 pixel_art_demo

 Timestamp is 5fdaac08 (Wed Dec 16 19:53:28 2020)

 Preferred load address is 0000000180000000

 Start         Length     Name                   Class
 0001:00000000 00072480H .text$mn                CODE
 0001:00072480 00000020H .text$mn$00             CODE
 0001:000724a0 0000088dH .text$x                 CODE
 0002:00000000 00000290H .idata$5                DATA
 0002:00000290 00000010H .00cfg                  DATA
 0002:000002a0 00000008H .CRT$XCA                DATA
 0002:000002a8 00000008H .CRT$XCZ                DATA
 0002:000002b0 00000008H .CRT$XIA                DATA
 0002:000002b8 00000020H .CRT$XIC                DATA
 0002:000002d8 00000008H .CRT$XIZ                DATA
 0002:000002e0 00000008H .CRT$XLA                DATA
 0002:000002e8 00000008H .CRT$XLZ                DATA
 0002:000002f0 00000008H .CRT$XPA                DATA
 0002:000002f8 00000010H .CRT$XPX                DATA
 0002:00000308 00000008H .CRT$XPXA               DATA
 0002:00000310 00000008H .CRT$XPZ                DATA
 0002:00000318 00000008H .CRT$XTA                DATA
 0002:00000320 00000010H .CRT$XTZ                DATA
 0002:00000328 00000000H .gfids$y                DATA
 0002:00000330 00019c10H .rdata                  DATA
 0002:00019f40 00000028H .rdata$T                DATA
 0002:00019f68 0000016cH .rdata$r                DATA
 0002:0001a0d4 00000364H .rdata$zzzdbg           DATA
 0002:0001a438 00000008H .rtc$IAA                DATA
 0002:0001a440 00000008H .rtc$IZZ                DATA
 0002:0001a448 00000008H .rtc$TAA                DATA
 0002:0001a450 00000008H .rtc$TZZ                DATA
 0002:0001a458 00000008H .tls                    DATA
 0002:0001a460 00000010H .tls$                   DATA
 0002:0001a470 00000010H .tls$ZZZ                DATA
 0002:0001a480 00001eb0H .xdata                  DATA
 0002:0001c330 00000090H .xdata$x                DATA
 0002:0001c3c0 000000a0H .edata                  DATA
 0002:0001c460 00000014H .idata$2                DATA
 0002:0001c474 00000014H .idata$3                DATA
 0002:0001c488 00000290H .idata$4                DATA
 0002:0001c718 000005e6H .idata$6                DATA
 0003:00000000 00000b20H .data                   DATA
 0003:00000b20 00000070H .data$r                 DATA
 0003:00000b90 00001bb0H .bss                    DATA
 0004:00000000 000044dcH .pdata                  DATA

  Address         Publics by Value              Rva+Base               Lib:Object

 0000:00000000       __guard_longjmp_table      0000000000000000     <absolute>
 0000:00000000       __guard_longjmp_count      0000000000000000     <absolute>
 0000:00000000       __guard_iat_table          0000000000000000     <absolute>
 0000:00000000       __guard_fids_count         0000000000000000     <absolute>
 0000:00000000       __hybrid_code_map_count    0000000000000000     <absolute>
 0000:00000000       ___safe_se_handler_count   0000000000000000     <absolute>
 0000:00000000       __enclave_config           0000000000000000     <absolute>
 0000:00000000       __hybrid_code_map          0000000000000000     <absolute>
 0000:00000000       __guard_iat_count          0000000000000000     <absolute>
 0000:00000000       ___safe_se_handler_table   0000000000000000     <absolute>
 0000:00000000       __volatile_metadata        0000000000000000     <absolute>
 0000:00000000       __guard_fids_table         0000000000000000     <absolute>
 0000:00000000       __hybrid_auxiliary_iat     0000000000000000     <absolute>
 0000:00000000       __dynamic_value_reloc_table 0000000000000000     <absolute>
 0000:00000100       __guard_flags              0000000000000100     <absolute>
 0000:00000000       __ImageBase                0000000180000000     <linker-defined>
 0001:00000030       stbi_load_from_memory      0000000180001030 f   pixel_art_demo.obj
 0001:000000d0       stbi_load_from_callbacks   00000001800010d0 f   pixel_art_demo.obj
 0001:00000170       stbi_load                  0000000180001170 f   pixel_art_demo.obj
 0001:00000220       stbi_load_from_file        0000000180001220 f   pixel_art_demo.obj
 0001:000002f0       stbi_load_gif_from_memory  00000001800012f0 f   pixel_art_demo.obj
 0001:00000440       stbi_load_16_from_memory   0000000180001440 f   pixel_art_demo.obj
 0001:000004e0       stbi_load_16_from_callbacks 00000001800014e0 f   pixel_art_demo.obj
 0001:00000580       stbi_load_16               0000000180001580 f   pixel_art_demo.obj
 0001:00000630       stbi_load_from_file_16     0000000180001630 f   pixel_art_demo.obj
 0001:00000700       stbi_loadf_from_memory     0000000180001700 f   pixel_art_demo.obj
 0001:000007a0       stbi_loadf_from_callbacks  00000001800017a0 f   pixel_art_demo.obj
 0001:00000840       stbi_loadf                 0000000180001840 f   pixel_art_demo.obj
 0001:000008f0       stbi_loadf_from_file       00000001800018f0 f   pixel_art_demo.obj
 0001:00000980       stbi_hdr_to_ldr_gamma      0000000180001980 f   pixel_art_demo.obj
 0001:000009b0       stbi_hdr_to_ldr_scale      00000001800019b0 f   pixel_art_demo.obj
 0001:000009e0       stbi_ldr_to_hdr_gamma      00000001800019e0 f   pixel_art_demo.obj
 0001:00000a00       stbi_ldr_to_hdr_scale      0000000180001a00 f   pixel_art_demo.obj
 0001:00000a20       stbi_is_hdr_from_callbacks 0000000180001a20 f   pixel_art_demo.obj
 0001:00000a90       stbi_is_hdr_from_memory    0000000180001a90 f   pixel_art_demo.obj
 0001:00000b00       stbi_is_hdr                0000000180001b00 f   pixel_art_demo.obj
 0001:00000b60       stbi_is_hdr_from_file      0000000180001b60 f   pixel_art_demo.obj
 0001:00000bf0       stbi_failure_reason        0000000180001bf0 f   pixel_art_demo.obj
 0001:00000c20       stbi_image_free            0000000180001c20 f   pixel_art_demo.obj
 0001:00000c40       stbi_info_from_memory      0000000180001c40 f   pixel_art_demo.obj
 0001:00000cd0       stbi_info_from_callbacks   0000000180001cd0 f   pixel_art_demo.obj
 0001:00000d60       stbi_is_16_bit_from_memory 0000000180001d60 f   pixel_art_demo.obj
 0001:00000dd0       stbi_is_16_bit_from_callbacks 0000000180001dd0 f   pixel_art_demo.obj
 0001:00000e40       stbi_info                  0000000180001e40 f   pixel_art_demo.obj
 0001:00000ec0       stbi_info_from_file        0000000180001ec0 f   pixel_art_demo.obj
 0001:00000f70       stbi_is_16_bit             0000000180001f70 f   pixel_art_demo.obj
 0001:00000fd0       stbi_is_16_bit_from_file   0000000180001fd0 f   pixel_art_demo.obj
 0001:00001060       stbi_set_unpremultiply_on_load 0000000180002060 f   pixel_art_demo.obj
 0001:00001080       stbi_convert_iphone_png_to_rgb 0000000180002080 f   pixel_art_demo.obj
 0001:000010a0       stbi_set_flip_vertically_on_load 00000001800020a0 f   pixel_art_demo.obj
 0001:000010c0       stbi_set_flip_vertically_on_load_thread 00000001800020c0 f   pixel_art_demo.obj
 0001:00001110       stbi_zlib_decode_malloc_guesssize 0000000180002110 f   pixel_art_demo.obj
 0001:00001210       stbi_zlib_decode_malloc_guesssize_headerflag 0000000180002210 f   pixel_art_demo.obj
 0001:00001320       stbi_zlib_decode_malloc    0000000180002320 f   pixel_art_demo.obj
 0001:00001360       stbi_zlib_decode_buffer    0000000180002360 f   pixel_art_demo.obj
 0001:00001420       stbi_zlib_decode_noheader_malloc 0000000180002420 f   pixel_art_demo.obj
 0001:00001520       stbi_zlib_decode_noheader_buffer 0000000180002520 f   pixel_art_demo.obj
 0001:0001ae50       ?Init@@YAXPEAX_KPEAUHINSTANCE__@@2IIPEAUHWND__@@@Z 000000018001be50 f   pixel_art_demo.obj
 0001:0001c040       ?Destroy@@YAXXZ            000000018001d040 f   pixel_art_demo.obj
 0001:0001c050       ?SwapChainChange@@YAXII@Z  000000018001d050 f   pixel_art_demo.obj
 0001:0001c0f0       ?CodeReload@@YAXPEAUHINSTANCE__@@PEAX_K@Z 000000018001d0f0 f   pixel_art_demo.obj
 0001:0001c180       ?MainLoop@@YAXPEAUframe_input@@0M@Z 000000018001d180 f   pixel_art_demo.obj
 0001:0001cb20       ??D@YA?ATm4@@T0@0@Z        000000018001db20 f i pixel_art_demo.obj
 0001:0001cdf0       ??D@YA?ATv3@@MT0@@Z        000000018001ddf0 f i pixel_art_demo.obj
 0001:0001ceb0       ??D@YA?ATv4@@MT0@@Z        000000018001deb0 f i pixel_art_demo.obj
 0001:0001cfa0       ??D@YA?ATv4@@Tm4@@T0@@Z    000000018001dfa0 f i pixel_art_demo.obj
 0001:0001d2a0       ??H@YA?ATv3@@T0@0@Z        000000018001e2a0 f i pixel_art_demo.obj
 0001:0001d370       ??H@YA?ATv4@@T0@0@Z        000000018001e370 f i pixel_art_demo.obj
 0001:0001d470       ?AlignAddress@@YA_K_K0@Z   000000018001e470 f i pixel_art_demo.obj
 0001:0001d4b0       ?AssetsPushQuad@@YA?AUprocedural_mesh@@XZ 000000018001e4b0 f i pixel_art_demo.obj
 0001:0001d870       ?BarrierMask@@YA?AUbarrier_mask@@II@Z 000000018001e870 f i pixel_art_demo.obj
 0001:0001d8b0       ?BeginTempMem@@YA?AUtemp_mem@@PEAUlinear_arena@@@Z 000000018001e8b0 f i pixel_art_demo.obj
 0001:0001d910       ?Copy@@YAXPEBXPEAX_K@Z     000000018001e910 f i pixel_art_demo.obj
 0001:0001d990       ?Cos@@YAMM@Z               000000018001e990 f i pixel_art_demo.obj
 0001:0001d9c0       ?DemoAllocGlobals@@YAXPEAUlinear_arena@@@Z 000000018001e9c0 f i pixel_art_demo.obj
 0001:0001da10       ?DemoRenderTargetsCreate@@YAXXZ 000000018001ea10 f i pixel_art_demo.obj
 0001:0001db90       ?EndTempMem@@YAXUtemp_mem@@@Z 000000018001eb90 f i pixel_art_demo.obj
 0001:0001dbb0       ?FullScreenPassCreate@@YA?AUrender_fullscreen_pass@@PEAD0PEAUrender_target@@IPEAPEAUVkDescriptorSetLayout_T@@IPEAPEAUVkDescriptorSet_T@@@Z 000000018001ebb0 f i pixel_art_demo.obj
 0001:0001de10       ?FullScreenPassRender@@YAXUvk_commands@@PEAUrender_fullscreen_pass@@@Z 000000018001ee10 f i pixel_art_demo.obj
 0001:0001df70       ?GetAlignOffset@@YA_K_K0@Z 000000018001ef70 f i pixel_art_demo.obj
 0001:0001dfc0       ?LinearArenaCreate@@YA?AUlinear_arena@@PEAX_K@Z 000000018001efc0 f i pixel_art_demo.obj
 0001:0001e020       ?LinearSubArena@@YA?AUlinear_arena@@PEAU1@_K@Z 000000018001f020 f i pixel_art_demo.obj
 0001:0001e0a0       ?M4@@YA?ATm4@@Tv4@@000@Z   000000018001f0a0 f i pixel_art_demo.obj
 0001:0001e140       ?M4Pos@@YA?ATm4@@Tv3@@@Z   000000018001f140 f i pixel_art_demo.obj
 0001:0001e330       ?M4Rotation@@YA?ATm4@@MMM@Z 000000018001f330 f i pixel_art_demo.obj
 0001:0001ea80       ?M4Scale@@YA?ATm4@@MMMM@Z  000000018001fa80 f i pixel_art_demo.obj
 0001:0001ec80       ?M4Scale@@YA?ATm4@@Tv3@@@Z 000000018001fc80 f i pixel_art_demo.obj
 0001:0001ed10       ?Max@@YAIII@Z              000000018001fd10 f i pixel_art_demo.obj
 0001:0001ed40       ?PushSizeAligned@@YAPEAXPEAUlinear_arena@@_K1@Z 000000018001fd40 f i pixel_art_demo.obj
 0001:0001edd0       ?PushStringAligned@@YAPEADPEAUlinear_arena@@PEAD_K@Z 000000018001fdd0 f i pixel_art_demo.obj
 0001:0001eef0       ?RenderTargetAddTarget@@YAXPEAUrender_target_builder@@PEAUrender_target_entry@@TVkClearValue@@@Z 000000018001fef0 f i pixel_art_demo.obj
 0001:0001efb0       ?RenderTargetBuilderBegin@@YA?AUrender_target_builder@@PEAUlinear_arena@@0II@Z 000000018001ffb0 f i pixel_art_demo.obj
 0001:0001f0d0       ?RenderTargetBuilderEnd@@YA?AUrender_target@@PEAUrender_target_builder@@PEAUVkRenderPass_T@@@Z 00000001800200d0 f i pixel_art_demo.obj
 0001:0001f230       ?RenderTargetEntryCreate@@YA?AUrender_target_entry@@PEAUvk_linear_arena@@IIW4VkFormat@@II@Z 0000000180020230 f i pixel_art_demo.obj
 0001:0001f300       ?RenderTargetEntryDestroy@@YAXUrender_target_entry@@@Z 0000000180020300 f i pixel_art_demo.obj
 0001:0001f350       ?RenderTargetEntryReCreate@@YAXPEAUvk_linear_arena@@IIW4VkFormat@@IIPEAUrender_target_entry@@@Z 0000000180020350 f i pixel_art_demo.obj
 0001:0001f440       ?RenderTargetRenderPassBegin@@YAXPEAUrender_target@@Uvk_commands@@I@Z 0000000180020440 f i pixel_art_demo.obj
 0001:0001f670       ?RenderTargetRenderPassEnd@@YAXUvk_commands@@@Z 0000000180020670 f i pixel_art_demo.obj
 0001:0001f690       ?RenderTargetSwapChainEntryCreate@@YA?AUrender_target_entry@@IIW4VkFormat@@@Z 0000000180020690 f i pixel_art_demo.obj
 0001:0001f700       ?RenderTargetUpdateEntries@@YAXPEAUlinear_arena@@PEAUrender_target@@@Z 0000000180020700 f i pixel_art_demo.obj
 0001:0001f8a0       ?Sin@@YAMM@Z               00000001800208a0 f i pixel_art_demo.obj
 0001:0001f8d0       ?V3@@YA?ATv3@@MMM@Z        00000001800208d0 f i pixel_art_demo.obj
 0001:0001f950       ?V4@@YA?ATv4@@HHHH@Z       0000000180020950 f i pixel_art_demo.obj
 0001:0001f9e0       ?V4@@YA?ATv4@@MMMM@Z       00000001800209e0 f i pixel_art_demo.obj
 0001:0001fa70       ?V4@@YA?ATv4@@Tv3@@M@Z     0000000180020a70 f i pixel_art_demo.obj
 0001:0001fb20       ?VkArenaClear@@YAXPEAUvk_linear_arena@@@Z 0000000180020b20 f i pixel_art_demo.obj
 0001:0001fb40       ?VkBarrierBufferAdd@@YAXPEAUvk_barrier_manager@@IIIIPEAUVkBuffer_T@@@Z 0000000180020b40 f i pixel_art_demo.obj
 0001:0001fc30       ?VkBarrierBufferAdd@@YAXPEAUvk_barrier_manager@@Ubarrier_mask@@1PEAUVkBuffer_T@@@Z 0000000180020c30 f i pixel_art_demo.obj
 0001:0001fc80       ?VkBarrierImageAdd@@YAXPEAUvk_barrier_manager@@IIW4VkImageLayout@@II1IPEAUVkImage_T@@@Z 0000000180020c80 f i pixel_art_demo.obj
 0001:0001fda0       ?VkBarrierImageAdd@@YAXPEAUvk_barrier_manager@@Ubarrier_mask@@W4VkImageLayout@@12IPEAUVkImage_T@@@Z 0000000180020da0 f i pixel_art_demo.obj
 0001:0001fe10       ?VkBarrierManagerCreate@@YA?AUvk_barrier_manager@@PEAUlinear_arena@@I@Z 0000000180020e10 f i pixel_art_demo.obj
 0001:0001fef0       ?VkBarrierManagerFlush@@YAXPEAUvk_barrier_manager@@PEAUVkCommandBuffer_T@@@Z 0000000180020ef0 f i pixel_art_demo.obj
 0001:0001ffb0       ?VkBufferCreate@@YAPEAUVkBuffer_T@@PEAUVkDevice_T@@PEAUvk_linear_arena@@I_K@Z 0000000180020fb0 f i pixel_art_demo.obj
 0001:00020020       ?VkBufferCreate@@YAXPEAUVkDevice_T@@PEAUvk_linear_arena@@I_KPEAPEAUVkBuffer_T@@PEAUvk_ptr@@@Z 0000000180021020 f i pixel_art_demo.obj
 0001:00020180       ?VkClearColorCreate@@YA?ATVkClearValue@@MMMM@Z 0000000180021180 f i pixel_art_demo.obj
 0001:00020240       ?VkClearDepthStencilCreate@@YA?ATVkClearValue@@MI@Z 0000000180021240 f i pixel_art_demo.obj
 0001:000202c0       ?VkCommandsBegin@@YAXPEAUVkDevice_T@@Uvk_commands@@@Z 00000001800212c0 f i pixel_art_demo.obj
 0001:00020370       ?VkCommandsCreate@@YA?AUvk_commands@@PEAUVkDevice_T@@PEAUVkCommandPool_T@@@Z 0000000180021370 f i pixel_art_demo.obj
 0001:00020460       ?VkCommandsSubmit@@YAXPEAUVkQueue_T@@Uvk_commands@@@Z 0000000180021460 f i pixel_art_demo.obj
 0001:000204f0       ?VkDescriptorBufferWrite@@YAXPEAUvk_descriptor_manager@@PEAUVkDescriptorSet_T@@IW4VkDescriptorType@@PEAUVkBuffer_T@@@Z 00000001800214f0 f i pixel_art_demo.obj
 0001:00020630       ?VkDescriptorImageWrite@@YAXPEAUvk_descriptor_manager@@PEAUVkDescriptorSet_T@@IW4VkDescriptorType@@PEAUVkImageView_T@@PEAUVkSampler_T@@W4VkImageLayout@@@Z 0000000180021630 f i pixel_art_demo.obj
 0001:00020780       ?VkDescriptorLayoutAdd@@YAXPEAUvk_descriptor_layout_builder@@W4VkDescriptorType@@II@Z 0000000180021780 f i pixel_art_demo.obj
 0001:00020860       ?VkDescriptorLayoutBegin@@YA?AUvk_descriptor_layout_builder@@PEAPEAUVkDescriptorSetLayout_T@@@Z 0000000180021860 f i pixel_art_demo.obj
 0001:000208e0       ?VkDescriptorLayoutEnd@@YAXPEAUVkDevice_T@@PEAUvk_descriptor_layout_builder@@@Z 00000001800218e0 f i pixel_art_demo.obj
 0001:00020950       ?VkDescriptorManagerCreate@@YA?AUvk_descriptor_manager@@PEAUlinear_arena@@I@Z 0000000180021950 f i pixel_art_demo.obj
 0001:00020a50       ?VkDescriptorManagerFlush@@YAXPEAUVkDevice_T@@PEAUvk_descriptor_manager@@@Z 0000000180021a50 f i pixel_art_demo.obj
 0001:00020ab0       ?VkDescriptorSetAllocate@@YAPEAUVkDescriptorSet_T@@PEAUVkDevice_T@@PEAUVkDescriptorPool_T@@PEAUVkDescriptorSetLayout_T@@@Z 0000000180021ab0 f i pixel_art_demo.obj
 0001:00020b30       ?VkFboCreate@@YAPEAUVkFramebuffer_T@@PEAUVkDevice_T@@PEAUVkRenderPass_T@@PEAPEAUVkImageView_T@@III@Z 0000000180021b30 f i pixel_art_demo.obj
 0001:00020be0       ?VkFboReCreate@@YAXPEAUVkDevice_T@@PEAUVkRenderPass_T@@PEAPEAUVkImageView_T@@IPEAPEAUVkFramebuffer_T@@II@Z 0000000180021be0 f i pixel_art_demo.obj
 0001:00020c50       ?VkGetDeviceFunctionPointers@@YAXXZ 0000000180021c50 f i pixel_art_demo.obj
 0001:00021f20       ?VkGetGlobalFunctionPointers@@YAXPEAUHINSTANCE__@@@Z 0000000180022f20 f i pixel_art_demo.obj
 0001:00022050       ?VkGetInstanceFunctionPointers@@YAXXZ 0000000180023050 f i pixel_art_demo.obj
 0001:00022450       ?VkGetMemoryType@@YAHPEAUVkPhysicalDeviceMemoryProperties@@II@Z 0000000180023450 f i pixel_art_demo.obj
 0001:000224f0       ?VkImage2dCreate@@YA?AUvk_image@@PEAUVkDevice_T@@PEAUvk_linear_arena@@IIW4VkFormat@@II@Z 00000001800234f0 f i pixel_art_demo.obj
 0001:000225a0       ?VkImage2dCreate@@YAXPEAUVkDevice_T@@PEAUvk_linear_arena@@IIW4VkFormat@@IIPEAPEAUVkImage_T@@PEAPEAUVkImageView_T@@@Z 00000001800235a0 f i pixel_art_demo.obj
 0001:00022820       ?VkInit@@YAXPEAUHINSTANCE__@@0PEAUHWND__@@PEAUlinear_arena@@2Urender_init_params@@@Z 0000000180023820 f i pixel_art_demo.obj
 0001:00023f30       ?VkLinearArenaCreate@@YA?AUvk_linear_arena@@PEAUVkDeviceMemory_T@@_K@Z 0000000180024f30 f i pixel_art_demo.obj
 0001:00023f90       ?VkMemoryAllocate@@YAPEAUVkDeviceMemory_T@@PEAUVkDevice_T@@I_K@Z 0000000180024f90 f i pixel_art_demo.obj
 0001:00024010       ?VkPipelineAddShaderRef@@YAXPEAUvk_pipeline_manager@@PEAUvk_pipeline_entry@@PEAD2W4VkShaderStageFlagBits@@@Z 0000000180025010 f i pixel_art_demo.obj
 0001:000240d0       ?VkPipelineAddShaderRef@@YAXPEAUvk_pipeline_manager@@PEAUvk_pipeline_entry@@Uvk_pipeline_builder_shader@@@Z 00000001800250d0 f i pixel_art_demo.obj
 0001:00024120       ?VkPipelineBuilderBegin@@YA?AUvk_pipeline_builder@@PEAUlinear_arena@@@Z 0000000180025120 f i pixel_art_demo.obj
 0001:00024300       ?VkPipelineBuilderEnd@@YAPEAUvk_pipeline@@PEAUvk_pipeline_builder@@PEAUVkDevice_T@@PEAUvk_pipeline_manager@@PEAUVkRenderPass_T@@IPEAPEAUVkDescriptorSetLayout_T@@I@Z 0000000180025300 f i pixel_art_demo.obj
 0001:00024750       ?VkPipelineColorAttachmentAdd@@YAXPEAUvk_pipeline_builder@@IW4VkBlendOp@@W4VkBlendFactor@@2122I@Z 0000000180025750 f i pixel_art_demo.obj
 0001:00024820       ?VkPipelineDepthStateAdd@@YAXPEAUvk_pipeline_builder@@IIW4VkCompareOp@@@Z 0000000180025820 f i pixel_art_demo.obj
 0001:000248c0       ?VkPipelineGetShaderModule@@YAPEAUVkShaderModule_T@@PEAUVkDevice_T@@PEAUlinear_arena@@PEAUvk_shader_ref@@@Z 00000001800258c0 f i pixel_art_demo.obj
 0001:00024970       ?VkPipelineGetShaderModule@@YAPEAUVkShaderModule_T@@PEAUVkDevice_T@@PEAXPEAUlinear_arena@@PEAUvk_shader_ref@@@Z 0000000180025970 f i pixel_art_demo.obj
 0001:00024b70       ?VkPipelineGraphicsCreate@@YAPEAUvk_pipeline@@PEAUVkDevice_T@@PEAUvk_pipeline_manager@@PEAUlinear_arena@@PEAUvk_pipeline_builder_shader@@IPEAUVkPipelineLayoutCreateInfo@@PEAUVkGraphicsPipelineCreateInfo@@@Z 0000000180025b70 f i pixel_art_demo.obj
 0001:000253b0       ?VkPipelineInputAssemblyAdd@@YAXPEAUvk_pipeline_builder@@W4VkPrimitiveTopology@@I@Z 00000001800263b0 f i pixel_art_demo.obj
 0001:000253f0       ?VkPipelineManagerCreate@@YA?AUvk_pipeline_manager@@PEAUlinear_arena@@@Z 00000001800263f0 f i pixel_art_demo.obj
 0001:000254b0       ?VkPipelineShaderAdd@@YAXPEAUvk_pipeline_builder@@PEAD1W4VkShaderStageFlagBits@@@Z 00000001800264b0 f i pixel_art_demo.obj
 0001:00025540       ?VkPipelineShaderStage@@YA?AUVkPipelineShaderStageCreateInfo@@W4VkShaderStageFlagBits@@PEAUVkShaderModule_T@@PEAD@Z 0000000180026540 f i pixel_art_demo.obj
 0001:000255b0       ?VkPipelineUpdateShaders@@YAXPEAUVkDevice_T@@PEAUlinear_arena@@PEAUvk_pipeline_manager@@@Z 00000001800265b0 f i pixel_art_demo.obj
 0001:00025b50       ?VkPipelineVertexAttributeAdd@@YAXPEAUvk_pipeline_builder@@W4VkFormat@@I@Z 0000000180026b50 f i pixel_art_demo.obj
 0001:00025c40       ?VkPipelineVertexAttributeAddOffset@@YAXPEAUvk_pipeline_builder@@I@Z 0000000180026c40 f i pixel_art_demo.obj
 0001:00025c70       ?VkPipelineVertexBindingBegin@@YAXPEAUvk_pipeline_builder@@@Z 0000000180026c70 f i pixel_art_demo.obj
 0001:00025d10       ?VkPipelineVertexBindingEnd@@YAXPEAUvk_pipeline_builder@@@Z 0000000180026d10 f i pixel_art_demo.obj
 0001:00025d50       ?VkPushSize@@YA?AUvk_ptr@@PEAUvk_linear_arena@@_K1@Z 0000000180026d50 f i pixel_art_demo.obj
 0001:00025e10       ?VkRenderPassAttachmentAdd@@YAIPEAUvk_render_pass_builder@@W4VkFormat@@W4VkAttachmentLoadOp@@W4VkAttachmentStoreOp@@W4VkImageLayout@@4@Z 0000000180026e10 f i pixel_art_demo.obj
 0001:00025ef0       ?VkRenderPassBuilderBegin@@YA?AUvk_render_pass_builder@@PEAUlinear_arena@@@Z 0000000180026ef0 f i pixel_art_demo.obj
 0001:000260a0       ?VkRenderPassBuilderEnd@@YAPEAUVkRenderPass_T@@PEAUvk_render_pass_builder@@PEAUVkDevice_T@@@Z 00000001800270a0 f i pixel_art_demo.obj
 0001:00026190       ?VkRenderPassColorRefAdd@@YAXPEAUvk_render_pass_builder@@IW4VkImageLayout@@@Z 0000000180027190 f i pixel_art_demo.obj
 0001:00026270       ?VkRenderPassDepthRefAdd@@YAXPEAUvk_render_pass_builder@@IW4VkImageLayout@@@Z 0000000180027270 f i pixel_art_demo.obj
 0001:00026360       ?VkRenderPassSubPassBegin@@YAXPEAUvk_render_pass_builder@@W4VkPipelineBindPoint@@@Z 0000000180027360 f i pixel_art_demo.obj
 0001:00026420       ?VkRenderPassSubPassEnd@@YAXPEAUvk_render_pass_builder@@@Z 0000000180027420 f i pixel_art_demo.obj
 0001:00026440       ?VkSamplerCreate@@YAPEAUVkSampler_T@@PEAUVkDevice_T@@W4VkFilter@@W4VkSamplerAddressMode@@M@Z 0000000180027440 f i pixel_art_demo.obj
 0001:00026560       ?VkSwapChainReCreate@@YAXPEAUlinear_arena@@IIW4VkPresentModeKHR@@@Z 0000000180027560 f i pixel_art_demo.obj
 0001:00026d80       ?VkTransferManagerCreate@@YA?AUvk_transfer_manager@@PEAUVkDevice_T@@IPEAUlinear_arena@@PEAUvk_linear_arena@@_K3II@Z 0000000180027d80 f i pixel_art_demo.obj
 0001:00027010       ?VkTransferManagerFlush@@YAXPEAUvk_transfer_manager@@PEAUVkDevice_T@@PEAUVkCommandBuffer_T@@PEAUvk_barrier_manager@@@Z 0000000180028010 f i pixel_art_demo.obj
 0001:00027590       ?VkTransferPushWrite@@YAPEAEPEAUvk_transfer_manager@@PEAUVkBuffer_T@@_K2Ubarrier_mask@@3@Z 0000000180028590 f i pixel_art_demo.obj
 0001:00027730       ?VkTransferPushWrite@@YAPEAEPEAUvk_transfer_manager@@PEAUVkBuffer_T@@_KUbarrier_mask@@3@Z 0000000180028730 f i pixel_art_demo.obj
 0001:00027790       ?VkTransferPushWriteImage@@YAPEAEPEAUvk_transfer_manager@@PEAUVkImage_T@@IIIW4VkImageAspectFlagBits@@W4VkImageLayout@@3Ubarrier_mask@@4@Z 0000000180028790 f i pixel_art_demo.obj
 0001:000278d0       ?ZeroMem@@YAXPEAX_K@Z      00000001800288d0 f i pixel_art_demo.obj
 0001:00027930       __GSHandlerCheck           0000000180028930 f   LIBCMTD:gshandler.obj
 0001:00027970       __GSHandlerCheckCommon     0000000180028970 f   LIBCMTD:gshandler.obj
 0001:00027a80       __chkstk                   0000000180028a80 f   LIBCMTD:chkstk.obj
 0001:00027a80       _alloca_probe              0000000180028a80 f   LIBCMTD:chkstk.obj
 0001:00027af0       __security_check_cookie    0000000180028af0 f   LIBCMTD:amdsecgs.obj
 0001:00027f10       _DllMainCRTStartup         0000000180028f10 f   LIBCMTD:dll_dllmain.obj
 0001:00027f50       __raise_securityfailure    0000000180028f50 f   LIBCMTD:gs_report.obj
 0001:00027f90       __report_gsfailure         0000000180028f90 f   LIBCMTD:gs_report.obj
 0001:00028070       __report_rangecheckfailure 0000000180029070 f   LIBCMTD:gs_report.obj
 0001:00028090       __report_securityfailure   0000000180029090 f   LIBCMTD:gs_report.obj
 0001:00028350       __security_init_cookie     0000000180029350 f   LIBCMTD:gs_support.obj
 0001:000283d0       DllMain                    00000001800293d0 f   LIBCMTD:dll_dllmain_stub.obj
 0001:000283f0       ?__scrt_initialize_type_info@@YAXXZ 00000001800293f0 f   LIBCMTD:tncleanup.obj
 0001:00028410       ?__scrt_uninitialize_type_info@@YAXXZ 0000000180029410 f   LIBCMTD:tncleanup.obj
 0001:00028430       __local_stdio_printf_options 0000000180029430 f i LIBCMTD:default_local_stdio_options.obj
 0001:00028440       __local_stdio_scanf_options 0000000180029440 f i LIBCMTD:default_local_stdio_options.obj
 0001:00028450       __scrt_initialize_default_local_stdio_options 0000000180029450 f   LIBCMTD:default_local_stdio_options.obj
 0001:000284a0       ??$__crt_fast_decode_pointer@PEAX@@YAPEAXQEAX@Z 00000001800294a0 f i libvcruntimed:winapi_downlevel.obj
 0001:000284a0       ??$__crt_fast_decode_pointer@P6AH_K@Z@@YAP6AH_K@ZQ6AH0@Z@Z 00000001800294a0 f i libucrtd:new_handler.obj
 0001:000284a0       ??$__crt_fast_decode_pointer@P6AXH@Z@@YAP6AXH@ZQ6AXH@Z@Z 00000001800294a0 f i libucrtd:signal.obj
 0001:000284a0       ??$__crt_fast_decode_pointer@P6AXPEAXK0@Z@@YAP6AXPEAXK0@ZQ6AX0K0@Z@Z 00000001800294a0 f i libucrtd:exit.obj
 0001:000284a0       ??$__crt_fast_decode_pointer@P6AXPEB_W00I_K@Z@@YAP6AXPEB_W00I_K@ZQ6AX000I1@Z@Z 00000001800294a0 f i libucrtd:invalid_parameter.obj
 0001:000284a0       ??$__crt_fast_decode_pointer@P6AXXZ@@YAP6AXXZQ6AXXZ@Z 00000001800294a0 f i libvcruntimed:purevirt.obj
 0001:000284a0       ??$__crt_fast_decode_pointer@PEAP6AXXZ@@YAPEAP6AXXZQEAP6AXXZ@Z 00000001800294a0 f i LIBCMTD:utility.obj
 0001:000284a0       ??$__crt_fast_decode_pointer@P6AHPEAU_exception@@@Z@@YAP6AHPEAU_exception@@@ZQ6AH0@Z@Z 00000001800294a0 f i libucrtd:matherr.obj
 0001:000284e0       ??$__crt_fast_encode_pointer@P6AXPEAXK0@Z@@YAP6AXPEAXK0@ZQ6AX0K0@Z@Z 00000001800294e0 f i libucrtd:exit.obj
 0001:000284e0       ??$__crt_fast_encode_pointer@P6AXH@Z@@YAP6AXH@ZQ6AXH@Z@Z 00000001800294e0 f i libucrtd:signal.obj
 0001:000284e0       ??$__crt_fast_encode_pointer@P6AXXZ@@YAP6AXXZQ6AXXZ@Z 00000001800294e0 f i libvcruntimed:purevirt_data.obj
 0001:000284e0       ??$__crt_fast_encode_pointer@PEAX@@YAPEAXQEAX@Z 00000001800294e0 f i libvcruntimed:winapi_downlevel.obj
 0001:000284e0       ??$__crt_fast_encode_pointer@PEAP6AXXZ@@YAPEAP6AXXZQEAP6AXXZ@Z 00000001800294e0 f i LIBCMTD:utility.obj
 0001:00028520       ?__crt_rotate_pointer_value@@YA_K_KH@Z 0000000180029520 f i LIBCMTD:utility.obj
 0001:00028540       ?configure_argv@__scrt_narrow_argv_policy@@SAHXZ 0000000180029540 f i LIBCMTD:utility.obj
 0001:00028630       ?initialize_environment@__scrt_narrow_environment_policy@@SAHXZ 0000000180029630 f i LIBCMTD:utility.obj
 0001:000286d0       NtCurrentTeb               00000001800296d0 f i LIBCMTD:utility.obj
 0001:000286e0       __scrt_acquire_startup_lock 00000001800296e0 f   LIBCMTD:utility.obj
 0001:00028750       __scrt_dllmain_after_initialize_c 0000000180029750 f   LIBCMTD:utility.obj
 0001:00028780       __scrt_dllmain_before_initialize_c 0000000180029780 f   LIBCMTD:utility.obj
 0001:000287a0       __scrt_dllmain_crt_thread_attach 00000001800297a0 f   LIBCMTD:utility.obj
 0001:000287d0       __scrt_dllmain_crt_thread_detach 00000001800297d0 f   LIBCMTD:utility.obj
 0001:000287f0       __scrt_dllmain_exception_filter 00000001800297f0 f   LIBCMTD:utility.obj
 0001:00028850       __scrt_dllmain_uninitialize_c 0000000180029850 f   LIBCMTD:utility.obj
 0001:00028880       __scrt_dllmain_uninitialize_critical 0000000180029880 f   LIBCMTD:utility.obj
 0001:000288a0       __scrt_initialize_crt      00000001800298a0 f   LIBCMTD:utility.obj
 0001:000288f0       __scrt_initialize_onexit_tables 00000001800298f0 f   LIBCMTD:utility.obj
 0001:00028a00       __scrt_is_nonwritable_in_current_image 0000000180029a00 f   LIBCMTD:utility.obj
 0001:00028a90       __scrt_release_startup_lock 0000000180029a90 f   LIBCMTD:utility.obj
 0001:00028ac0       __scrt_uninitialize_crt    0000000180029ac0 f   LIBCMTD:utility.obj
 0001:00028b00       __scrt_get_dyn_tls_init_callback 0000000180029b00 f   LIBCMTD:dyn_tls_init.obj
 0001:00028b10       __crt_debugger_hook        0000000180029b10 f   LIBCMTD:utility_desktop.obj
 0001:00028b20       __scrt_fastfail            0000000180029b20 f   LIBCMTD:utility_desktop.obj
 0001:00028cc0       _RTC_Initialize            0000000180029cc0 f   LIBCMTD:initsect.obj
 0001:00028d10       _RTC_Terminate             0000000180029d10 f   LIBCMTD:initsect.obj
 0001:00028d60       _guard_check_icall_nop     0000000180029d60 f i LIBCMTD:guard_support.obj
 0001:00028d60       ??1scoped_global_state_reset@__crt_state_management@@QEAA@XZ 0000000180029d60 f i libucrtd:onexit.obj
 0001:00028d60       ??1?$__crt_simd_cleanup_guard@$0A@@@QEAA@XZ 0000000180029d60 f i libucrtd:strnlen.obj
 0001:00028d70       ReadNoFence64              0000000180029d70 f i LIBCMTD:guard_support.obj
 0001:00028d70       ?__crt_interlocked_read_64@@YA_JPED_J@Z 0000000180029d70 f i libvcruntimed:std_type_info.obj
 0001:00028d90       ReadPointerNoFence         0000000180029d90 f i LIBCMTD:guard_support.obj
 0001:00028d90       ??$__crt_interlocked_read_pointer@X@@YAPEAXPEDSEAX@Z 0000000180029d90 f i libvcruntimed:winapi_downlevel.obj
 0001:00028d90       ??$__crt_interlocked_read_pointer@UHINSTANCE__@@@@YAPEAUHINSTANCE__@@PEDSEAU0@@Z 0000000180029d90 f i libvcruntimed:winapi_downlevel.obj
 0001:00028db0       _guard_icall_checks_enforced 0000000180029db0 f i LIBCMTD:guard_support.obj
 0001:00028df0       __isa_available_init       0000000180029df0 f   LIBCMTD:cpu_disp.obj
 0001:00029160       _get_startup_argv_mode     000000018002a160 f   LIBCMTD:argv_mode.obj
 0001:00029170       __scrt_is_ucrt_dll_in_use  000000018002a170 f   LIBCMTD:ucrt_detection.obj
 0001:000291a0       IsProcessorFeaturePresent  000000018002a1a0 f   kernel32:KERNEL32.dll
 0001:000291b0       __C_specific_handler       000000018002a1b0 f   libvcruntimed:riscchandler.obj
 0001:000295f0       ??$?RPEAU__crt_stdio_stream_data@@@__crt_internal_free_policy@@QEBAXQEBQEAU__crt_stdio_stream_data@@@Z 000000018002a5f0 f i libucrtd:_file.obj
 0001:000295f0       ??$?RU__vcrt_ptd@@@__crt_internal_free_policy@@QEBAXQEBU__vcrt_ptd@@@Z 000000018002a5f0 f i libvcruntimed:per_thread_data.obj
 0001:000295f0       ??$?RU__crt_lowio_handle_data@@@__crt_internal_free_policy@@QEBAXQEBU__crt_lowio_handle_data@@@Z 000000018002a5f0 f i libucrtd:osfinfo.obj
 0001:000295f0       ??$?RE@__crt_internal_free_policy@@QEBAXQEBE@Z 000000018002a5f0 f i libucrtd:argv_parsing.obj
 0001:000295f0       ??$?RU__acrt_ptd@@@__crt_internal_free_policy@@QEBAXQEBU__acrt_ptd@@@Z 000000018002a5f0 f i libucrtd:per_thread_data.obj
 0001:000295f0       ??$?RD@__crt_internal_free_policy@@QEBAXQEBD@Z 000000018002a5f0 f i libvcruntimed:std_type_info.obj
 0001:000295f0       ??$?RPEAD@__crt_internal_free_policy@@QEBAXQEBQEAD@Z 000000018002a5f0 f i libucrtd:argv_parsing.obj
 0001:000295f0       ??$?RU__crt_multibyte_data@@@__crt_internal_free_policy@@QEBAXQEBU__crt_multibyte_data@@@Z 000000018002a5f0 f i libucrtd:wsetlocale.obj
 0001:000295f0       ??$?RU__crt_stdio_stream_data@@@__crt_internal_free_policy@@QEBAXQEBU__crt_stdio_stream_data@@@Z 000000018002a5f0 f i libucrtd:stream.obj
 0001:00029620       ??0?$__crt_unique_heap_ptr@PEAU__crt_stdio_stream_data@@U__crt_internal_free_policy@@@@QEAA@QEAPEAU__crt_stdio_stream_data@@@Z 000000018002a620 f i libucrtd:_file.obj
 0001:00029620       ??0?$__crt_unique_heap_ptr@U__acrt_ptd@@U__crt_internal_free_policy@@@@QEAA@QEAU__acrt_ptd@@@Z 000000018002a620 f i libucrtd:per_thread_data.obj
 0001:00029620       ??0?$__crt_unique_heap_ptr@U__crt_lowio_handle_data@@U__crt_internal_free_policy@@@@QEAA@QEAU__crt_lowio_handle_data@@@Z 000000018002a620 f i libucrtd:osfinfo.obj
 0001:00029620       ??0?$__crt_unique_handle_t@U__crt_hmodule_traits@@@@QEAA@QEAUHINSTANCE__@@@Z 000000018002a620 f i libucrtd:exit.obj
 0001:00029620       ??0?$__crt_unique_heap_ptr@U__crt_stdio_stream_data@@U__crt_internal_free_policy@@@@QEAA@QEAU__crt_stdio_stream_data@@@Z 000000018002a620 f i libucrtd:stream.obj
 0001:00029620       ??0?$__crt_unique_heap_ptr@EU__crt_internal_free_policy@@@@QEAA@QEAE@Z 000000018002a620 f i libucrtd:argv_parsing.obj
 0001:00029620       ??0?$string_output_adapter@_W@__crt_stdio_output@@QEAA@QEAU?$string_output_adapter_context@_W@1@@Z 000000018002a620 f i libucrtd:output.obj
 0001:00029620       ??0?$__crt_unique_heap_ptr@DU__crt_public_free_policy@@@@QEAA@QEAD@Z 000000018002a620 f i libvcruntimed:std_exception.obj
 0001:00029620       ??0?$__crt_unique_heap_ptr@U__crt_multibyte_data@@U__crt_internal_free_policy@@@@QEAA@QEAU__crt_multibyte_data@@@Z 000000018002a620 f i libucrtd:wsetlocale.obj
 0001:00029620       ??0__crt_stdio_stream@@QEAA@QEAU_iobuf@@@Z 000000018002a620 f i libucrtd:fclose.obj
 0001:00029620       ??0__crt_stdio_stream@@QEAA@QEAU__crt_stdio_stream_data@@@Z 000000018002a620 f i libucrtd:stream.obj
 0001:00029620       ??0?$__crt_scoped_stack_ptr_tag@_W@@QEAA@QEA_W@Z 000000018002a620 f i libucrtd:getstringtypea.obj
 0001:00029620       ??0?$__crt_unique_heap_ptr@PEADU__crt_internal_free_policy@@@@QEAA@QEAPEAD@Z 000000018002a620 f i libucrtd:argv_parsing.obj
 0001:00029620       ??0?$string_output_adapter@D@__crt_stdio_output@@QEAA@QEAU?$string_output_adapter_context@D@1@@Z 000000018002a620 f i libucrtd:output.obj
 0001:00029620       ??0?$__crt_unique_handle_t@U__crt_findfile_traits@@@@QEAA@QEAX@Z 000000018002a620 f i libucrtd:argv_wildcards.obj
 0001:00029620       ??0?$__crt_unique_heap_ptr@DU__crt_internal_free_policy@@@@QEAA@QEAD@Z 000000018002a620 f i libvcruntimed:std_type_info.obj
 0001:00029620       ??0?$__crt_unique_heap_ptr@U__vcrt_ptd@@U__crt_internal_free_policy@@@@QEAA@QEAU__vcrt_ptd@@@Z 000000018002a620 f i libvcruntimed:per_thread_data.obj
 0001:00029620       ??0?$__crt_scoped_stack_ptr@_W@@QEAA@U?$__crt_scoped_stack_ptr_tag@_W@@@Z 000000018002a620 f i libucrtd:getstringtypea.obj
 0001:00029640       ??1?$__crt_unique_heap_ptr@U__acrt_ptd@@U__crt_internal_free_policy@@@@QEAA@XZ 000000018002a640 f i libucrtd:per_thread_data.obj
 0001:00029640       ??1?$__crt_unique_heap_ptr@U__vcrt_ptd@@U__crt_internal_free_policy@@@@QEAA@XZ 000000018002a640 f i libvcruntimed:per_thread_data.obj
 0001:00029640       ??1?$__crt_unique_heap_ptr@PEAU__crt_stdio_stream_data@@U__crt_internal_free_policy@@@@QEAA@XZ 000000018002a640 f i libucrtd:_file.obj
 0001:00029640       ??1?$__crt_unique_heap_ptr@PEADU__crt_internal_free_policy@@@@QEAA@XZ 000000018002a640 f i libucrtd:argv_parsing.obj
 0001:00029640       ??1?$__crt_unique_heap_ptr@DU__crt_internal_free_policy@@@@QEAA@XZ 000000018002a640 f i libvcruntimed:std_type_info.obj
 0001:00029640       ??1?$__crt_unique_heap_ptr@EU__crt_internal_free_policy@@@@QEAA@XZ 000000018002a640 f i libucrtd:argv_parsing.obj
 0001:00029640       ??1?$__crt_unique_heap_ptr@U__crt_stdio_stream_data@@U__crt_internal_free_policy@@@@QEAA@XZ 000000018002a640 f i libucrtd:stream.obj
 0001:00029640       ??1?$__crt_unique_heap_ptr@U__crt_lowio_handle_data@@U__crt_internal_free_policy@@@@QEAA@XZ 000000018002a640 f i libucrtd:osfinfo.obj
 0001:00029640       ??1?$__crt_unique_heap_ptr@U__crt_multibyte_data@@U__crt_internal_free_policy@@@@QEAA@XZ 000000018002a640 f i libucrtd:wsetlocale.obj
 0001:00029660       ??B?$__crt_unique_heap_ptr@U__acrt_ptd@@U__crt_internal_free_policy@@@@QEBA_NXZ 000000018002a660 f i libucrtd:per_thread_data.obj
 0001:00029660       ??B?$__crt_unique_heap_ptr@U__vcrt_ptd@@U__crt_internal_free_policy@@@@QEBA_NXZ 000000018002a660 f i libvcruntimed:per_thread_data.obj
 0001:00029660       ??B?$__crt_unique_heap_ptr@U__crt_lowio_handle_data@@U__crt_internal_free_policy@@@@QEBA_NXZ 000000018002a660 f i libucrtd:osfinfo.obj
 0001:00029660       ??B?$__crt_unique_heap_ptr@EU__crt_internal_free_policy@@@@QEBA_NXZ 000000018002a660 f i libucrtd:argv_parsing.obj
 0001:00029660       ??B?$__crt_unique_heap_ptr@DU__crt_public_free_policy@@@@QEBA_NXZ 000000018002a660 f i libvcruntimed:std_exception.obj
 0001:00029660       ??B?$__crt_unique_heap_ptr@U__crt_multibyte_data@@U__crt_internal_free_policy@@@@QEBA_NXZ 000000018002a660 f i libucrtd:wsetlocale.obj
 0001:00029660       ??B?$__crt_unique_heap_ptr@DU__crt_internal_free_policy@@@@QEBA_NXZ 000000018002a660 f i libvcruntimed:std_type_info.obj
 0001:00029680       ?get@?$__crt_unique_heap_ptr@U__crt_multibyte_data@@U__crt_internal_free_policy@@@@QEBAPEAU__crt_multibyte_data@@XZ 000000018002a680 f i libucrtd:wsetlocale.obj
 0001:00029680       ??C__crt_stdio_stream@@QEBAPEAU__crt_stdio_stream_data@@XZ 000000018002a680 f i libucrtd:fclose.obj
 0001:00029680       ?save_state@?$c_string_character_source@D@__crt_strtox@@QEBAPEBDXZ 000000018002a680 f i libucrtd:strtox.obj
 0001:00029680       ?get@?$__crt_unique_heap_ptr@DU__crt_public_free_policy@@@@QEBAPEADXZ 000000018002a680 f i libvcruntimed:std_exception.obj
 0001:00029680       ?get@?$__crt_unique_heap_ptr@PEADU__crt_internal_free_policy@@@@QEBAPEAPEADXZ 000000018002a680 f i libucrtd:argv_parsing.obj
 0001:00029680       ?public_stream@__crt_stdio_stream@@QEBAPEAU_iobuf@@XZ 000000018002a680 f i libucrtd:fopen.obj
 0001:00029680       ?save_state@?$c_string_character_source@_W@__crt_strtox@@QEBAPEB_WXZ 000000018002a680 f i libucrtd:strtox.obj
 0001:00029680       ?get@?$__crt_unique_heap_ptr@EU__crt_internal_free_policy@@@@QEBAPEAEXZ 000000018002a680 f i libucrtd:argv_parsing.obj
 0001:00029680       ?get@?$__crt_unique_heap_ptr@U__vcrt_ptd@@U__crt_internal_free_policy@@@@QEBAPEAU__vcrt_ptd@@XZ 000000018002a680 f i libvcruntimed:per_thread_data.obj
 0001:00029680       ?get@?$__crt_unique_heap_ptr@U__acrt_ptd@@U__crt_internal_free_policy@@@@QEBAPEAU__acrt_ptd@@XZ 000000018002a680 f i libucrtd:per_thread_data.obj
 0001:00029680       ?get@?$__crt_unique_handle_t@U__crt_findfile_traits@@@@QEBAPEAXXZ 000000018002a680 f i libucrtd:argv_wildcards.obj
 0001:00029680       ?get@?$__crt_unique_handle_t@U__crt_hmodule_traits@@@@QEBAPEAUHINSTANCE__@@XZ 000000018002a680 f i libucrtd:exit.obj
 0001:00029680       ?get@?$__crt_unique_heap_ptr@DU__crt_internal_free_policy@@@@QEBAPEADXZ 000000018002a680 f i libvcruntimed:std_type_info.obj
 0001:00029680       ?get@?$__crt_scoped_stack_ptr@_W@@QEBAPEA_WXZ 000000018002a680 f i libucrtd:getstringtypea.obj
 0001:00029680       ?get@?$__crt_unique_heap_ptr@U__crt_lowio_handle_data@@U__crt_internal_free_policy@@@@QEBAPEAU__crt_lowio_handle_data@@XZ 000000018002a680 f i libucrtd:osfinfo.obj
 0001:00029680       ?getFuncInfo@TryBlockMap@__FrameHandler3@@QEAAPEBU_s_FuncInfo@@XZ 000000018002a680 f i libvcruntimed:risctrnsctrl.obj
 0001:00029690       ?is_valid@?$__crt_unique_heap_ptr@U__crt_multibyte_data@@U__crt_internal_free_policy@@@@QEBA_NXZ 000000018002a690 f i libucrtd:wsetlocale.obj
 0001:00029690       ?is_valid@?$__crt_unique_heap_ptr@U__vcrt_ptd@@U__crt_internal_free_policy@@@@QEBA_NXZ 000000018002a690 f i libvcruntimed:per_thread_data.obj
 0001:00029690       ?is_valid@?$__crt_unique_heap_ptr@DU__crt_public_free_policy@@@@QEBA_NXZ 000000018002a690 f i libvcruntimed:std_exception.obj
 0001:00029690       ?is_valid@?$__crt_unique_heap_ptr@U__crt_lowio_handle_data@@U__crt_internal_free_policy@@@@QEBA_NXZ 000000018002a690 f i libucrtd:osfinfo.obj
 0001:00029690       ?is_valid@?$__crt_unique_heap_ptr@U__acrt_ptd@@U__crt_internal_free_policy@@@@QEBA_NXZ 000000018002a690 f i libucrtd:per_thread_data.obj
 0001:00029690       ?is_valid@?$__crt_unique_heap_ptr@EU__crt_internal_free_policy@@@@QEBA_NXZ 000000018002a690 f i libucrtd:argv_parsing.obj
 0001:00029690       ?valid@__crt_stdio_stream@@QEBA_NXZ 000000018002a690 f i libucrtd:fopen.obj
 0001:00029690       ?is_valid@?$__crt_unique_heap_ptr@DU__crt_internal_free_policy@@@@QEBA_NXZ 000000018002a690 f i libvcruntimed:std_type_info.obj
 0001:00029690       ??B?$__crt_scoped_stack_ptr@_W@@QEBA_NXZ 000000018002a690 f i libucrtd:lcmapstringa.obj
 0001:000296c0       ?release@?$__crt_unique_heap_ptr@EU__crt_internal_free_policy@@@@QEAAXXZ 000000018002a6c0 f i libucrtd:argv_parsing.obj
 0001:000296c0       ?release@?$__crt_unique_heap_ptr@U__crt_multibyte_data@@U__crt_internal_free_policy@@@@QEAAXXZ 000000018002a6c0 f i libucrtd:wsetlocale.obj
 0001:000296c0       ?release@?$__crt_unique_heap_ptr@PEADU__crt_internal_free_policy@@@@QEAAXXZ 000000018002a6c0 f i libucrtd:argv_parsing.obj
 0001:000296c0       ?release@?$__crt_unique_heap_ptr@U__crt_stdio_stream_data@@U__crt_internal_free_policy@@@@QEAAXXZ 000000018002a6c0 f i libucrtd:stream.obj
 0001:000296c0       ?release@?$__crt_unique_heap_ptr@U__crt_lowio_handle_data@@U__crt_internal_free_policy@@@@QEAAXXZ 000000018002a6c0 f i libucrtd:osfinfo.obj
 0001:000296c0       ?release@?$__crt_unique_heap_ptr@U__vcrt_ptd@@U__crt_internal_free_policy@@@@QEAAXXZ 000000018002a6c0 f i libvcruntimed:per_thread_data.obj
 0001:000296c0       ?release@?$__crt_unique_heap_ptr@U__acrt_ptd@@U__crt_internal_free_policy@@@@QEAAXXZ 000000018002a6c0 f i libucrtd:per_thread_data.obj
 0001:000296c0       ?release@?$__crt_unique_heap_ptr@DU__crt_internal_free_policy@@@@QEAAXXZ 000000018002a6c0 f i libvcruntimed:std_type_info.obj
 0001:000296c0       ?release@?$__crt_unique_heap_ptr@PEAU__crt_stdio_stream_data@@U__crt_internal_free_policy@@@@QEAAXXZ 000000018002a6c0 f i libucrtd:_file.obj
 0001:000296f0       __std_type_info_compare    000000018002a6f0 f   libvcruntimed:std_type_info.obj
 0001:00029730       __std_type_info_destroy_list 000000018002a730 f   libvcruntimed:std_type_info.obj
 0001:00029790       __vcrt_initialize          000000018002a790 f   libvcruntimed:initialization.obj
 0001:000297d0       __vcrt_thread_attach       000000018002a7d0 f   libvcruntimed:initialization.obj
 0001:000297f0       __vcrt_thread_detach       000000018002a7f0 f   libvcruntimed:initialization.obj
 0001:00029810       __vcrt_uninitialize        000000018002a810 f   libvcruntimed:initialization.obj
 0001:00029840       __vcrt_uninitialize_critical 000000018002a840 f   libvcruntimed:initialization.obj
 0001:00029870       _NLG_Notify                000000018002a870 f   libvcruntimed:notify.obj
 0001:00029890       __NLG_Dispatch2            000000018002a890 f   libvcruntimed:notify.obj
 0001:000298a0       __NLG_Return2              000000018002a8a0 f   libvcruntimed:notify.obj
 0001:000298b0       __except_validate_context_record 000000018002a8b0 f   libvcruntimed:jbcxrval.obj
 0001:00029910       __DestructExceptionObject  000000018002a910 f   libvcruntimed:ehhelpers.obj
 0001:00029a10       ?_CallMemberFunction0@@YAXQEAX0@Z 000000018002aa10 f i libvcruntimed:ehhelpers.obj
 0001:00029a40       _IsExceptionObjectToBeDestroyed 000000018002aa40 f   libvcruntimed:ehhelpers.obj
 0001:00029a90       __AdjustPointer            000000018002aa90 f   libvcruntimed:ehhelpers.obj
 0001:00029b10       __FrameUnwindFilter        000000018002ab10 f   libvcruntimed:ehhelpers.obj
 0001:00029ba0       _vsprintf_s_l              000000018002aba0 f i libvcruntimed:undname.obj
 0001:00029c10       sprintf_s                  000000018002ac10 f i libvcruntimed:undname.obj
 0001:00029cb0       ?detach@?$__crt_unique_heap_ptr@U__acrt_ptd@@U__crt_internal_free_policy@@@@QEAAPEAU__acrt_ptd@@XZ 000000018002acb0 f i libucrtd:per_thread_data.obj
 0001:00029cb0       ?detach@?$__crt_unique_heap_ptr@PEADU__crt_internal_free_policy@@@@QEAAPEAPEADXZ 000000018002acb0 f i libucrtd:argv_parsing.obj
 0001:00029cb0       ?detach@?$__crt_unique_heap_ptr@U__vcrt_ptd@@U__crt_internal_free_policy@@@@QEAAPEAU__vcrt_ptd@@XZ 000000018002acb0 f i libvcruntimed:per_thread_data.obj
 0001:00029cb0       ?detach@?$__crt_unique_heap_ptr@DU__crt_public_free_policy@@@@QEAAPEADXZ 000000018002acb0 f i libvcruntimed:std_exception.obj
 0001:00029cb0       ?detach@?$__crt_unique_heap_ptr@U__crt_multibyte_data@@U__crt_internal_free_policy@@@@QEAAPEAU__crt_multibyte_data@@XZ 000000018002acb0 f i libucrtd:wsetlocale.obj
 0001:00029cb0       ?detach@?$__crt_unique_heap_ptr@EU__crt_internal_free_policy@@@@QEAAPEAEXZ 000000018002acb0 f i libucrtd:argv_parsing.obj
 0001:00029cb0       ?detach@?$__crt_unique_heap_ptr@U__crt_lowio_handle_data@@U__crt_internal_free_policy@@@@QEAAPEAU__crt_lowio_handle_data@@XZ 000000018002acb0 f i libucrtd:osfinfo.obj
 0001:00029cb0       ?detach@?$__crt_unique_heap_ptr@U__crt_stdio_stream_data@@U__crt_internal_free_policy@@@@QEAAPEAU__crt_stdio_stream_data@@XZ 000000018002acb0 f i libucrtd:stream.obj
 0001:00029cb0       ?detach@?$__crt_unique_heap_ptr@PEAU__crt_stdio_stream_data@@U__crt_internal_free_policy@@@@QEAAPEAPEAU__crt_stdio_stream_data@@XZ 000000018002acb0 f i libucrtd:_file.obj
 0001:00029d30       __vcrt_freefls             000000018002ad30 f   libvcruntimed:per_thread_data.obj
 0001:00029d70       __vcrt_freeptd             000000018002ad70 f   libvcruntimed:per_thread_data.obj
 0001:00029dd0       __vcrt_getptd              000000018002add0 f   libvcruntimed:per_thread_data.obj
 0001:00029e00       __vcrt_getptd_noexit       000000018002ae00 f   libvcruntimed:per_thread_data.obj
 0001:00029fa0       __vcrt_initialize_ptd      000000018002afa0 f   libvcruntimed:per_thread_data.obj
 0001:00029ff0       __vcrt_uninitialize_ptd    000000018002aff0 f   libvcruntimed:per_thread_data.obj
 0001:0002a020       __vcrt_initialize_locks    000000018002b020 f   libvcruntimed:locks.obj
 0001:0002a090       __vcrt_uninitialize_locks  000000018002b090 f   libvcruntimed:locks.obj
 0001:0002a0f0       ??$?B$$A6AXXZ@__crt_fast_encoded_nullptr_t@@QEBAP6AXXZXZ 000000018002b0f0 f i libvcruntimed:purevirt_data.obj
 0001:0002a0f0       ??$?BX@__crt_fast_encoded_nullptr_t@@QEBAPEAXXZ 000000018002b0f0 f i libvcruntimed:winapi_downlevel.obj
 0001:0002a0f0       ??$?B$$A6AXH@Z@__crt_fast_encoded_nullptr_t@@QEBAP6AXH@ZXZ 000000018002b0f0 f i libucrtd:signal.obj
 0001:0002a0f0       ??$?B$$A6AXPEAXK0@Z@__crt_fast_encoded_nullptr_t@@QEBAP6AXPEAXK0@ZXZ 000000018002b0f0 f i libucrtd:exit.obj
 0001:0002a0f0       ??$?BP6AXXZ@__crt_fast_encoded_nullptr_t@@QEBAPEAP6AXXZXZ 000000018002b0f0 f i libucrtd:onexit.obj
 0001:0002a110       ??$__crt_interlocked_exchange_pointer@UHINSTANCE__@@PEAU1@@@YAPEAUHINSTANCE__@@PEDSEAU0@QEAU0@@Z 000000018002b110 f i libvcruntimed:winapi_downlevel.obj
 0001:0002a110       ??$__crt_interlocked_exchange_pointer@UHINSTANCE__@@PEAX@@YAPEAUHINSTANCE__@@PEDSEAU0@QEAX@Z 000000018002b110 f i libvcruntimed:winapi_downlevel.obj
 0001:0002a110       ??$__crt_interlocked_exchange_pointer@XPEAX@@YAPEAXPEDSEAXQEAX@Z 000000018002b110 f i libvcruntimed:winapi_downlevel.obj
 0001:0002a130       ?__crt_fast_encode_pointer@@YA?AU__crt_fast_encoded_nullptr_t@@$$T@Z 000000018002b130 f i libvcruntimed:winapi_downlevel.obj
 0001:0002a150       ?get_invalid_value@__crt_findfile_traits@@SAPEAXXZ 000000018002b150 f   libucrtd:argv_wildcards.obj
 0001:0002a690       __vcrt_FlsAlloc            000000018002b690 f   libvcruntimed:winapi_downlevel.obj
 0001:0002a6e0       __vcrt_FlsFree             000000018002b6e0 f   libvcruntimed:winapi_downlevel.obj
 0001:0002a730       __vcrt_FlsGetValue         000000018002b730 f   libvcruntimed:winapi_downlevel.obj
 0001:0002a780       __vcrt_FlsSetValue         000000018002b780 f   libvcruntimed:winapi_downlevel.obj
 0001:0002a7e0       __vcrt_InitializeCriticalSectionEx 000000018002b7e0 f   libvcruntimed:winapi_downlevel.obj
 0001:0002a840       __vcrt_initialize_winapi_thunks 000000018002b840 f   libvcruntimed:winapi_downlevel.obj
 0001:0002a8c0       __vcrt_uninitialize_winapi_thunks 000000018002b8c0 f   libvcruntimed:winapi_downlevel.obj
 0001:0002a960       __vcrt_initialize_pure_virtual_call_handler 000000018002b960 f   libvcruntimed:purevirt_data.obj
 0001:0002a9a0       memcpy_repmovs             000000018002b9a0 f   libvcruntimed:memcpy.obj
 0001:0002a9c0       memcpy                     000000018002b9c0 f   libvcruntimed:memcpy.obj
 0001:0002a9c0       memmove                    000000018002b9c0 f   libvcruntimed:memcpy.obj
 0001:0002ae00       ??$?0AEAViterator@TryBlockMap@__FrameHandler3@@AEAV012@$0A@@?$pair@Viterator@TryBlockMap@__FrameHandler3@@V123@@std@@QEAA@AEAViterator@TryBlockMap@__FrameHandler3@@0@Z 000000018002be00 f i libvcruntimed:risctrnsctrl.obj
 0001:0002af10       ??$_CallSETranslator@V__FrameHandler3@@@@YAHPEAUEHExceptionRecord@@PEA_KPEAU_CONTEXT@@PEAU_xDISPATCHER_CONTEXT@@PEBU_s_FuncInfo@@K1@Z 000000018002bf10 f i libvcruntimed:risctrnsctrl.obj
 0001:0002af90       ??$forward@AEAViterator@TryBlockMap@__FrameHandler3@@@std@@YAAEAViterator@TryBlockMap@__FrameHandler3@@AEAV123@@Z 000000018002bf90 f i libvcruntimed:risctrnsctrl.obj
 0001:0002af90       ?get_address_of@?$__crt_unique_handle_t@U__crt_hmodule_traits@@@@QEAAPEAPEAUHINSTANCE__@@XZ 000000018002bf90 f i libucrtd:exit.obj
 0001:0002af90       ?dangerous_get_state_array@?$dual_state_global@H@__crt_state_management@@QEAAPEAHXZ 000000018002bf90 f i libucrtd:txtmode.obj
 0001:0002af90       ?dangerous_get_state_array@?$dual_state_global@PEAU__crt_locale_data@@@__crt_state_management@@QEAAPEAPEAU__crt_locale_data@@XZ 000000018002bf90 f i libucrtd:per_thread_data.obj
 0001:0002af90       ?debug_info@?$__crt_win32_buffer@DU__crt_win32_buffer_internal_dynamic_resizing@@@@QEBAAEBV__crt_win32_buffer_empty_debug_info@@XZ 000000018002bf90 f i libucrtd:argv_wildcards.obj
 0001:0002af90       ?get_address_of@?$__crt_unique_heap_ptr@PEADU__crt_internal_free_policy@@@@QEAAPEAPEAPEADXZ 000000018002bf90 f i libucrtd:argv_parsing.obj
 0001:0002af90       ?debug_info@?$__crt_win32_buffer@_WU__crt_win32_buffer_internal_dynamic_resizing@@@@QEBAAEBV__crt_win32_buffer_empty_debug_info@@XZ 000000018002bf90 f i libucrtd:argv_wildcards.obj
 0001:0002af90       ?debug_info@?$__crt_win32_buffer@DU__crt_win32_buffer_no_resizing@@@@QEBAAEBV__crt_win32_buffer_empty_debug_info@@XZ 000000018002bf90 f i libucrtd:getmodulefilenamea.obj
 0001:0002af90       ?dangerous_get_state_array@?$dual_state_global@P6AXPEB_W00I_K@Z@__crt_state_management@@QEAAPEAP6AXPEB_W00I_K@ZXZ 000000018002bf90 f i libucrtd:invalid_parameter.obj
 0001:0002af90       ?dangerous_get_state_array@?$dual_state_global@PEAU__crt_multibyte_data@@@__crt_state_management@@QEAAPEAPEAU__crt_multibyte_data@@XZ 000000018002bf90 f i libucrtd:mbctype.obj
 0001:0002af90       ?dangerous_get_state_array@?$dual_state_global@PEAE@__crt_state_management@@QEAAPEAPEAEXZ 000000018002bf90 f i libucrtd:mbctype.obj
 0001:0002afa0       ??0iterator@HandlerMap@__FrameHandler3@@QEAA@AEAV12@I@Z 000000018002bfa0 f i libvcruntimed:frame.obj
 0001:0002afa0       ??0iterator@TryBlockMap@__FrameHandler3@@QEAA@AEAV12@I@Z 000000018002bfa0 f i libvcruntimed:risctrnsctrl.obj
 0001:0002afd0       ?CatchTryBlock@__FrameHandler3@@SAPEBU_s_TryBlockMapEntry@@PEBU_s_FuncInfo@@H@Z 000000018002bfd0 f   libvcruntimed:risctrnsctrl.obj
 0001:0002b070       ?ExecutionInCatch@__FrameHandler3@@SA_NPEAU_xDISPATCHER_CONTEXT@@PEBU_s_FuncInfo@@@Z 000000018002c070 f   libvcruntimed:risctrnsctrl.obj
 0001:0002b0c0       ?FrameUnwindToEmptyState@__FrameHandler3@@SAXPEA_KPEAU_xDISPATCHER_CONTEXT@@PEBU_s_FuncInfo@@@Z 000000018002c0c0 f   libvcruntimed:risctrnsctrl.obj
 0001:0002b160       ?GetEstablisherFrame@__FrameHandler3@@SAPEA_KPEA_KPEAU_xDISPATCHER_CONTEXT@@PEBU_s_FuncInfo@@0@Z 000000018002c160 f   libvcruntimed:risctrnsctrl.obj
 0001:0002b2d0       ?GetRangeOfTrysToCheck@__FrameHandler3@@SA?AU?$pair@Viterator@TryBlockMap@__FrameHandler3@@V123@@std@@AEAVTryBlockMap@1@HH@Z 000000018002c2d0 f   libvcruntimed:risctrnsctrl.obj
 0001:0002b520       ?UnwindNestedFrames@__FrameHandler3@@SAXPEA_KPEAUEHExceptionRecord@@PEAU_CONTEXT@@0PEAXPEBU_s_FuncInfo@@HHPEBU_s_HandlerType@@PEAU_xDISPATCHER_CONTEXT@@E@Z 000000018002c520 f   libvcruntimed:risctrnsctrl.obj
 0001:0002b690       ?getpDC@TryBlockMap@__FrameHandler3@@QEAAPEAU_xDISPATCHER_CONTEXT@@XZ 000000018002c690 f i libvcruntimed:risctrnsctrl.obj
 0001:0002b6a0       _CreateFrameInfo           000000018002c6a0 f   libvcruntimed:risctrnsctrl.obj
 0001:0002b710       _FindAndUnlinkFrame        000000018002c710 f   libvcruntimed:risctrnsctrl.obj
 0001:0002b790       _GetImageBase              000000018002c790 f   libvcruntimed:risctrnsctrl.obj
 0001:0002b7b0       _GetThrowImageBase         000000018002c7b0 f   libvcruntimed:risctrnsctrl.obj
 0001:0002b7d0       _SetImageBase              000000018002c7d0 f   libvcruntimed:risctrnsctrl.obj
 0001:0002b7f0       _SetThrowImageBase         000000018002c7f0 f   libvcruntimed:risctrnsctrl.obj
 0001:0002b810       __CxxFrameHandler3         000000018002c810 f   libvcruntimed:risctrnsctrl.obj
 0001:0002b8d0       ?GetCurrentState@__FrameHandler3@@SAHPEA_KPEAU_xDISPATCHER_CONTEXT@@PEBU_s_FuncInfo@@@Z 000000018002c8d0 f   libvcruntimed:ehstate.obj
 0001:0002b930       ?GetUnwindTryBlock@__FrameHandler3@@SAHPEA_KPEAU_xDISPATCHER_CONTEXT@@PEBU_s_FuncInfo@@@Z 000000018002c930 f   libvcruntimed:ehstate.obj
 0001:0002b980       ?SetState@__FrameHandler3@@SAXPEA_KPEBU_s_FuncInfo@@H@Z 000000018002c980 f   libvcruntimed:ehstate.obj
 0001:0002b9b0       ?SetUnwindTryBlock@__FrameHandler3@@SAXPEA_KPEAU_xDISPATCHER_CONTEXT@@PEBU_s_FuncInfo@@H@Z 000000018002c9b0 f   libvcruntimed:ehstate.obj
 0001:0002ba20       ?StateFromControlPc@__FrameHandler3@@SAHPEBU_s_FuncInfo@@PEAU_xDISPATCHER_CONTEXT@@@Z 000000018002ca20 f   libvcruntimed:ehstate.obj
 0001:0002ba60       ?StateFromIp@__FrameHandler3@@SAHPEBU_s_FuncInfo@@PEAU_xDISPATCHER_CONTEXT@@_K@Z 000000018002ca60 f   libvcruntimed:ehstate.obj
 0001:0002ccb0       ??$TypeMatchHelper@V__FrameHandler3@@@@YAHPEBU_s_HandlerType@@PEBU_s_CatchableType@@PEBU_s_ThrowInfo@@@Z 000000018002dcb0 f i libvcruntimed:frame.obj
 0001:0002cea0       ??$__InternalCxxFrameHandler@V__FrameHandler3@@@@YA?AW4_EXCEPTION_DISPOSITION@@PEAUEHExceptionRecord@@PEA_KPEAU_CONTEXT@@PEAU_xDISPATCHER_CONTEXT@@PEBU_s_FuncInfo@@H1E@Z 000000018002dea0 f i libvcruntimed:frame.obj
 0001:0002d320       ??0HandlerMap@__FrameHandler3@@QEAA@PEBU_s_TryBlockMapEntry@@PEAU_xDISPATCHER_CONTEXT@@@Z 000000018002e320 f i libvcruntimed:frame.obj
 0001:0002d360       ??0TryBlockMap@__FrameHandler3@@QEAA@PEBU_s_FuncInfo@@PEAU_xDISPATCHER_CONTEXT@@@Z 000000018002e360 f i libvcruntimed:frame.obj
 0001:0002d390       ??0bad_exception@std@@QEAA@AEBV01@@Z 000000018002e390 f i libvcruntimed:frame.obj
 0001:0002d3d0       ??0bad_exception@std@@QEAA@XZ 000000018002e3d0 f i libvcruntimed:frame.obj
 0001:0002d410       ??0exception@std@@QEAA@AEBV01@@Z 000000018002e410 f i libvcruntimed:frame.obj
 0001:0002d470       ??0exception@std@@QEAA@QEBDH@Z 000000018002e470 f i libvcruntimed:frame.obj
 0001:0002d4c0       ??1bad_exception@std@@UEAA@XZ 000000018002e4c0 f i libvcruntimed:frame.obj
 0001:0002d4e0       ??1exception@std@@UEAA@XZ  000000018002e4e0 f i libvcruntimed:frame.obj
 0001:0002d510       ??8iterator@HandlerMap@__FrameHandler3@@QEBA_NAEBV012@@Z 000000018002e510 f i libvcruntimed:frame.obj
 0001:0002d550       ??8type_info@@QEBA_NAEBV0@@Z 000000018002e550 f i libvcruntimed:frame.obj
 0001:0002d5a0       ??9iterator@HandlerMap@__FrameHandler3@@QEBA_NAEBV012@@Z 000000018002e5a0 f i libvcruntimed:frame.obj
 0001:0002d5e0       ??Diterator@HandlerMap@__FrameHandler3@@QEAAPEBU_s_HandlerType@@XZ 000000018002e5e0 f i libvcruntimed:frame.obj
 0001:0002d610       ??Diterator@TryBlockMap@__FrameHandler3@@QEAAPEBU_s_TryBlockMapEntry@@XZ 000000018002e610 f i libvcruntimed:frame.obj
 0001:0002d650       ??Eiterator@TryBlockMap@__FrameHandler3@@QEAAAEAV012@XZ 000000018002e650 f i libvcruntimed:frame.obj
 0001:0002d650       ??Eiterator@HandlerMap@__FrameHandler3@@QEAAAEAV012@XZ 000000018002e650 f i libvcruntimed:frame.obj
 0001:0002d670       ??Miterator@TryBlockMap@__FrameHandler3@@QEBA_NAEBV012@@Z 000000018002e670 f i libvcruntimed:frame.obj
 0001:0002d6b0       ??_Ebad_exception@std@@UEAAPEAXI@Z 000000018002e6b0 f i libvcruntimed:frame.obj
 0001:0002d6b0       ??_Gbad_exception@std@@UEAAPEAXI@Z 000000018002e6b0 f i libvcruntimed:frame.obj
 0001:0002d6f0       ??_Eexception@std@@UEAAPEAXI@Z 000000018002e6f0 f i libvcruntimed:frame.obj
 0001:0002d6f0       ??_Gexception@std@@UEAAPEAXI@Z 000000018002e6f0 f i libvcruntimed:frame.obj
 0001:0002d730       ?BuildCatchObject@__FrameHandler3@@SAXPEAUEHExceptionRecord@@PEAXPEBU_s_HandlerType@@PEBU_s_CatchableType@@@Z 000000018002e730 f   libvcruntimed:frame.obj
 0001:0002d770       ?CxxCallCatchBlock@__FrameHandler3@@SAPEAXPEAU_EXCEPTION_RECORD@@@Z 000000018002e770 f   libvcruntimed:frame.obj
 0001:0002dad0       ?FrameUnwindToState@__FrameHandler3@@SAXPEA_KPEAU_xDISPATCHER_CONTEXT@@PEBU_s_FuncInfo@@H@Z 000000018002ead0 f   libvcruntimed:frame.obj
 0001:0002dd60       ?GetHandlerSearchState@__FrameHandler3@@SAHPEA_KPEAU_xDISPATCHER_CONTEXT@@PEBU_s_FuncInfo@@@Z 000000018002ed60 f i libvcruntimed:frame.obj
 0001:0002de10       ?GetMaxState@__FrameHandler3@@SAHPEAU_xDISPATCHER_CONTEXT@@PEBU_s_FuncInfo@@@Z 000000018002ee10 f i libvcruntimed:frame.obj
 0001:0002e040       ?TypeMatch@__FrameHandler3@@SAHPEBU_s_HandlerType@@PEBU_s_CatchableType@@PEBU_s_ThrowInfo@@@Z 000000018002f040 f   libvcruntimed:frame.obj
 0001:0002e040       __TypeMatch                000000018002f040 f   libvcruntimed:frame.obj
 0001:0002e070       ?_CallMemberFunction1@@YAXQEAX00@Z 000000018002f070 f i libvcruntimed:frame.obj
 0001:0002e0a0       ?_CallMemberFunction2@@YAXQEAX00H@Z 000000018002f0a0 f i libvcruntimed:frame.obj
 0001:0002e0e0       ?_ValidateExecute@@YA_NP6A_JXZ@Z 000000018002f0e0 f i libvcruntimed:frame.obj
 0001:0002e100       ?_ValidateWrite@@YA_NPEAXI@Z 000000018002f100 f i libvcruntimed:frame.obj
 0001:0002e100       ?_ValidateRead@@YA_NPEBXI@Z 000000018002f100 f i libvcruntimed:frame.obj
 0001:0002e160       ?begin@HandlerMap@__FrameHandler3@@QEAA?AViterator@12@XZ 000000018002f160 f i libvcruntimed:frame.obj
 0001:0002e190       ?end@HandlerMap@__FrameHandler3@@QEAA?AViterator@12@XZ 000000018002f190 f i libvcruntimed:frame.obj
 0001:0002e1c0       ?getESTypes@__FrameHandler3@@SAPEBU_s_ESTypeList@@PEBU_s_FuncInfo@@@Z 000000018002f1c0 f i libvcruntimed:frame.obj
 0001:0002e200       ?getLastEntry@HandlerMap@__FrameHandler3@@QEAAPEBU_s_HandlerType@@XZ 000000018002f200 f i libvcruntimed:frame.obj
 0001:0002e220       ?getMagicNum@__FrameHandler3@@SAIPEBU_s_FuncInfo@@@Z 000000018002f220 f i libvcruntimed:frame.obj
 0001:0002e240       ?getNumTryBlocks@TryBlockMap@__FrameHandler3@@QEAAIXZ 000000018002f240 f i libvcruntimed:frame.obj
 0001:0002e260       ?isEHs@__FrameHandler3@@SA_NPEBU_s_FuncInfo@@@Z 000000018002f260 f i libvcruntimed:frame.obj
 0001:0002e2a0       ?isNoExcept@__FrameHandler3@@SA_NPEBU_s_FuncInfo@@@Z 000000018002f2a0 f i libvcruntimed:frame.obj
 0001:0002e2e0       ?what@exception@std@@UEBAPEBDXZ 000000018002f2e0 f i libvcruntimed:frame.obj
 0001:0002e320       __vcrt_EncodePointer       000000018002f320 f i libvcruntimed:frame.obj
 0001:0002e350       memset_repmovs             000000018002f350 f   libvcruntimed:memset.obj
 0001:0002e370       memset                     000000018002f370 f   libvcruntimed:memset.obj
 0001:0002e510       _CallSettingFrame          000000018002f510 f   libvcruntimed:handlers.obj
 0001:0002e560       _CallSettingFrameEncoded   000000018002f560 f   libvcruntimed:handlers.obj
 0001:0002e5b0       ??$?RD@__crt_public_free_policy@@QEBAXQEBD@Z 000000018002f5b0 f i libvcruntimed:std_exception.obj
 0001:0002e5d0       ??1?$__crt_unique_heap_ptr@DU__crt_public_free_policy@@@@QEAA@XZ 000000018002f5d0 f i libvcruntimed:std_exception.obj
 0001:0002e5f0       ?release@?$__crt_unique_heap_ptr@DU__crt_public_free_policy@@@@QEAAXXZ 000000018002f5f0 f i libvcruntimed:std_exception.obj
 0001:0002e620       __std_exception_copy       000000018002f620 f   libvcruntimed:std_exception.obj
 0001:0002e750       __std_exception_destroy    000000018002f750 f   libvcruntimed:std_exception.obj
 0001:0002e790       _CxxThrowException         000000018002f790 f   libvcruntimed:throw.obj
 0001:0002e8f0       strncmp                    000000018002f8f0 f   libucrtd:strncmp.obj
 0001:0002e970       free                       000000018002f970 f   libucrtd:free.obj
 0001:0002e9a0       malloc                     000000018002f9a0 f   libucrtd:malloc.obj
 0001:0002e9d0       realloc                    000000018002f9d0 f   libucrtd:realloc.obj
 0001:0002ea10       ??$is_overflow_condition@K@__crt_strtox@@YA_NIK@Z 000000018002fa10 f i libucrtd:strtox.obj
 0001:0002ea80       ??$make_c_string_character_source@DPEAPEAD@__crt_strtox@@YA?AV?$c_string_character_source@D@0@QEBDQEAPEAD@Z 000000018002fa80 f i libucrtd:strtox.obj
 0001:0002ea80       ??$make_c_string_character_source@_WPEAPEA_W@__crt_strtox@@YA?AV?$c_string_character_source@_W@0@QEB_WQEAPEA_W@Z 000000018002fa80 f i libucrtd:strtox.obj
 0001:0002eac0       ??$parse_integer@KV?$c_string_character_source@D@__crt_strtox@@@__crt_strtox@@YAKQEAU__crt_locale_pointers@@V?$c_string_character_source@D@0@H_N@Z 000000018002fac0 f i libucrtd:strtox.obj
 0001:0002ef50       ??$parse_integer@KV?$c_string_character_source@_W@__crt_strtox@@@__crt_strtox@@YAKQEAU__crt_locale_pointers@@V?$c_string_character_source@_W@0@H_N@Z 000000018002ff50 f i libucrtd:strtox.obj
 0001:0002f400       ??$parse_integer_from_string@JDPEAPEAD@__crt_strtox@@YAJQEBDQEAPEADHQEAU__crt_locale_pointers@@@Z 0000000180030400 f i libucrtd:strtox.obj
 0001:0002f450       ??$parse_integer_from_string@J_WPEAPEA_W@__crt_strtox@@YAJQEB_WQEAPEA_WHQEAU__crt_locale_pointers@@@Z 0000000180030450 f i libucrtd:strtox.obj
 0001:0002f4a0       ??0?$c_string_character_source@D@__crt_strtox@@QEAA@QEBDQEAPEBD@Z 00000001800304a0 f i libucrtd:strtox.obj
 0001:0002f4a0       ??0?$c_string_character_source@_W@__crt_strtox@@QEAA@QEB_WQEAPEB_W@Z 00000001800304a0 f i libucrtd:strtox.obj
 0001:0002f4f0       ??0_LocaleUpdate@@QEAA@QEAU__crt_locale_pointers@@@Z 00000001800304f0 f i libucrtd:strtox.obj
 0001:0002f610       ??1?$c_string_character_source@_W@__crt_strtox@@QEAA@XZ 0000000180030610 f i libucrtd:strtox.obj
 0001:0002f610       ??1?$c_string_character_source@D@__crt_strtox@@QEAA@XZ 0000000180030610 f i libucrtd:strtox.obj
 0001:0002f640       ??1_LocaleUpdate@@QEAA@XZ  0000000180030640 f i libucrtd:strtox.obj
 0001:0002f670       ?GetLocaleT@_LocaleUpdate@@QEAAPEAU__crt_locale_pointers@@XZ 0000000180030670 f i libucrtd:strtox.obj
 0001:0002f680       ?get@?$c_string_character_source@D@__crt_strtox@@QEAADXZ 0000000180030680 f i libucrtd:strtox.obj
 0001:0002f6c0       ?get@?$c_string_character_source@_W@__crt_strtox@@QEAA_WXZ 00000001800306c0 f i libucrtd:strtox.obj
 0001:0002f700       ?is_space@__crt_strtox@@YA_NDQEAU__crt_locale_pointers@@@Z 0000000180030700 f i libucrtd:strtox.obj
 0001:0002f750       ?is_space@__crt_strtox@@YA_N_WPEAU__crt_locale_pointers@@@Z 0000000180030750 f i libucrtd:strtox.obj
 0001:0002f790       ?maximum_signed_value@__crt_strtox@@YAJK@Z 0000000180030790 f i libucrtd:strtox.obj
 0001:0002f7a0       ?minimum_signed_value@__crt_strtox@@YAJK@Z 00000001800307a0 f i libucrtd:strtox.obj
 0001:0002f7b0       ?parse_digit@__crt_strtox@@YAID@Z 00000001800307b0 f i libucrtd:strtox.obj
 0001:0002f820       ?parse_digit@__crt_strtox@@YAI_W@Z 0000000180030820 f i libucrtd:strtox.obj
 0001:0002f870       ?restore_state@?$c_string_character_source@_W@__crt_strtox@@QEAA_NQEB_W@Z 0000000180030870 f i libucrtd:strtox.obj
 0001:0002f870       ?restore_state@?$c_string_character_source@D@__crt_strtox@@QEAA_NQEBD@Z 0000000180030870 f i libucrtd:strtox.obj
 0001:0002f890       ?unget@?$c_string_character_source@D@__crt_strtox@@QEAAXD@Z 0000000180030890 f i libucrtd:strtox.obj
 0001:0002f970       ?unget@?$c_string_character_source@_W@__crt_strtox@@QEAAX_W@Z 0000000180030970 f i libucrtd:strtox.obj
 0001:0002fa50       ?validate@?$c_string_character_source@D@__crt_strtox@@QEBA_NXZ 0000000180030a50 f i libucrtd:strtox.obj
 0001:0002fb10       ?validate@?$c_string_character_source@_W@__crt_strtox@@QEBA_NXZ 0000000180030b10 f i libucrtd:strtox.obj
 0001:0002fbd0       ?wide_character_to_digit@__crt_strtox@@YAH_W@Z 0000000180030bd0 f i libucrtd:strtox.obj
 0001:0002ff40       __acrt_disable_global_locale_sync 0000000180030f40 f i libucrtd:strtox.obj
 0001:0002ff70       __acrt_enable_global_locale_sync 0000000180030f70 f i libucrtd:strtox.obj
 0001:0002ffa0       __acrt_get_locale_data_prefix 0000000180030fa0 f i libucrtd:strtox.obj
 0001:0002ffc0       __acrt_locale_changed      0000000180030fc0 f i libucrtd:strtox.obj
 0001:0002fff0       __ascii_iswalpha           0000000180030ff0 f i libucrtd:strtox.obj
 0001:00030030       __ascii_toupper            0000000180031030 f i libucrtd:strtox.obj
 0001:00030050       __ascii_towupper           0000000180031050 f i libucrtd:strtox.obj
 0001:00030070       _chvalidchk_l              0000000180031070 f i libucrtd:strtox.obj
 0001:000300a0       _ischartype_l              00000001800310a0 f i libucrtd:strtox.obj
 0001:00030130       strtol                     0000000180031130 f   libucrtd:strtox.obj
 0001:00030160       wcstol                     0000000180031160 f   libucrtd:strtox.obj
 0001:00030190       ldexp                      0000000180031190 f   libucrtd:ldexp.obj
 0001:00030840       ??$open_file@AEBQEBDAEBQEBDAEBHPEAU_iobuf@@@?$__crt_char_traits@D@@SAPEAU_iobuf@@AEBQEBD0AEBH$$QEAPEAU1@@Z 0000000180031840 f i libucrtd:fopen.obj
 0001:00030890       ?unlock@__crt_stdio_stream@@QEBAXXZ 0000000180031890 f i libucrtd:fopen.obj
 0001:000308b0       fopen_s                    00000001800318b0 f   libucrtd:fopen.obj
 0001:000308e0       ??$__crt_interlocked_read@J@@YAJPEDJ@Z 00000001800318e0 f i libucrtd:fclose.obj
 0001:000308e0       ??$__crt_interlocked_read@H@@YAHPEDH@Z 00000001800318e0 f i libucrtd:setmode.obj
 0001:00030900       ?__crt_interlocked_read_32@@YAHPEDH@Z 0000000180031900 f i libucrtd:fclose.obj
 0001:00030920       ?get_flags@__crt_stdio_stream@@QEBAJXZ 0000000180031920 f i libucrtd:fclose.obj
 0001:00030950       ?is_in_use@__crt_stdio_stream@@QEBA_NXZ 0000000180031950 f i libucrtd:fclose.obj
 0001:00030990       ?is_string_backed@__crt_stdio_stream@@QEBA_NXZ 0000000180031990 f i libucrtd:fclose.obj
 0001:000309d0       _fclose_nolock             00000001800319d0 f   libucrtd:fclose.obj
 0001:00030b60       fclose                     0000000180031b60 f   libucrtd:fclose.obj
 0001:00030ca0       ?eof@__crt_stdio_stream@@QEBA_NXZ 0000000180031ca0 f i libucrtd:feoferr.obj
 0001:00030cc0       ?error@__crt_stdio_stream@@QEBA_NXZ 0000000180031cc0 f i libucrtd:feoferr.obj
 0001:00030ce0       ?has_any_of@__crt_stdio_stream@@QEBA_NJ@Z 0000000180031ce0 f i libucrtd:feoferr.obj
 0001:00030d20       feof                       0000000180031d20 f   libucrtd:feoferr.obj
 0001:00030df0       ferror                     0000000180031df0 f   libucrtd:feoferr.obj
 0001:00030ec0       _fgetc_nolock              0000000180031ec0 f   libucrtd:fgetc.obj
 0001:00031020       fgetc                      0000000180032020 f   libucrtd:fgetc.obj
 0001:000312e0       ?__acrt_stdio_reset_buffer@@YAXV__crt_stdio_stream@@@Z 00000001800322e0 f i libucrtd:fread.obj
 0001:00031330       ?has_any_buffer@__crt_stdio_stream@@QEBA_NXZ 0000000180032330 f i libucrtd:fread.obj
 0001:00031350       ?set_flags@__crt_stdio_stream@@QEBA_NJ@Z 0000000180032350 f i libucrtd:fread.obj
 0001:000313c0       _fread_nolock_s            00000001800323c0 f   libucrtd:fread.obj
 0001:00031d70       fread                      0000000180032d70 f   libucrtd:fread.obj
 0001:00031dc0       fread_s                    0000000180032dc0 f   libucrtd:fread.obj
 0001:00032050       ?LongLongSub@@YAJ_J0PEA_J@Z 0000000180033050 f i libucrtd:fseek.obj
 0001:00032680       ?has_all_of@__crt_stdio_stream@@QEBA_NJ@Z 0000000180033680 f i libucrtd:fseek.obj
 0001:000326c0       ?lowio_handle@__crt_stdio_stream@@QEBAHXZ 00000001800336c0 f i libucrtd:fseek.obj
 0001:000326f0       ?unset_flags@__crt_stdio_stream@@QEBA_NJ@Z 00000001800336f0 f i libucrtd:fseek.obj
 0001:00032750       fseek                      0000000180033750 f   libucrtd:fseek.obj
 0001:00033430       ?ctrl_z@__crt_stdio_stream@@QEBA_NXZ 0000000180034430 f i libucrtd:ftell.obj
 0001:00033450       ?has_big_buffer@__crt_stdio_stream@@QEBA_NXZ 0000000180034450 f i libucrtd:ftell.obj
 0001:00033470       ?has_crt_buffer@__crt_stdio_stream@@QEBA_NXZ 0000000180034470 f i libucrtd:ftell.obj
 0001:00033490       ?has_setvbuf_buffer@__crt_stdio_stream@@QEBA_NXZ 0000000180034490 f i libucrtd:ftell.obj
 0001:000334b0       _ftelli64_nolock           00000001800344b0 f   libucrtd:ftell.obj
 0001:000334e0       _utf8_no_of_trailbytes     00000001800344e0 f i libucrtd:ftell.obj
 0001:00033500       ftell                      0000000180034500 f   libucrtd:ftell.obj
 0001:00033530       _ungetc_nolock             0000000180034530 f   libucrtd:ungetc.obj
 0001:000338d0       ungetc                     00000001800348d0 f   libucrtd:ungetc.obj
 0001:00034a30       ??$ftprintf@PEAU_iobuf@@PEB_WAEBQEB_WAEBQEB_WAEBI@?$__crt_char_traits@_W@@SAH$$QEAPEAU_iobuf@@$$QEAPEB_WAEBQEB_W2AEBI@Z 0000000180035a30 f i libucrtd:assert.obj
 0001:00034a80       ??$get_module_file_name@AEAPEAUHINSTANCE__@@AEAY0BAF@DK@?$__crt_char_traits@D@@SAKAEAPEAUHINSTANCE__@@AEAY0BAF@D$$QEAK@Z 0000000180035a80 f i libucrtd:assert.obj
 0001:00034a80       ??$get_module_file_name@$$TAEAY0BAF@DH@?$__crt_char_traits@D@@SAK$$QEA$$TAEAY0BAF@D$$QEAH@Z 0000000180035a80 f i libucrtd:argv_parsing.obj
 0001:00034ac0       ??$get_module_file_name@AEAPEAUHINSTANCE__@@AEAY0BAF@_WK@?$__crt_char_traits@_W@@SAKAEAPEAUHINSTANCE__@@AEAY0BAF@_W$$QEAK@Z 0000000180035ac0 f i libucrtd:assert.obj
 0001:00034b00       ??$itot_s@AEBIPEA_W_KH@?$__crt_char_traits@_W@@SAHAEBI$$QEAPEA_W$$QEA_K$$QEAH@Z 0000000180035b00 f i libucrtd:assert.obj
 0001:00034b50       ??$show_message_box@AEAY0CEA@_WPEB_WJ@?$__crt_char_traits@_W@@SAHAEAY0CEA@_W$$QEAPEB_W$$QEAJ@Z 0000000180035b50 f i libucrtd:assert.obj
 0001:00034b90       ??$tcscat_s@AEBQEA_WAEB_KAEAPEA_W@?$__crt_char_traits@_W@@SAHAEBQEA_WAEB_KAEAPEA_W@Z 0000000180035b90 f i libucrtd:assert.obj
 0001:00034b90       ??$tcscat_s@AEBQEA_WAEB_KAEBQEB_W@?$__crt_char_traits@_W@@SAHAEBQEA_WAEB_KAEBQEB_W@Z 0000000180035b90 f i libucrtd:assert.obj
 0001:00034b90       ??$tcscat_s@AEBQEA_WAEB_KPEB_W@?$__crt_char_traits@_W@@SAHAEBQEA_WAEB_K$$QEAPEB_W@Z 0000000180035b90 f i libucrtd:assert.obj
 0001:00034bd0       ??$tcscpy_s@AEAY0BAF@D_KPEBD@?$__crt_char_traits@D@@SAHAEAY0BAF@D$$QEA_K$$QEAPEBD@Z 0000000180035bd0 f i libucrtd:assert.obj
 0001:00034c10       ??$tcscpy_s@AEAY0BAF@_W_KPEB_W@?$__crt_char_traits@_W@@SAHAEAY0BAF@_W$$QEA_K$$QEAPEB_W@Z 0000000180035c10 f i libucrtd:assert.obj
 0001:00034c50       ??$tcscpy_s@AEBQEA_WAEB_KPEB_W@?$__crt_char_traits@_W@@SAHAEBQEA_WAEB_K$$QEAPEB_W@Z 0000000180035c50 f i libucrtd:assert.obj
 0001:00034c90       ??$tcslen@AEAY0BAF@D@?$__crt_char_traits@D@@SA_KAEAY0BAF@D@Z 0000000180035c90 f i libucrtd:assert.obj
 0001:00034cb0       ??$tcslen@AEAY0BAF@_W@?$__crt_char_traits@_W@@SA_KAEAY0BAF@_W@Z 0000000180035cb0 f i libucrtd:assert.obj
 0001:00034cd0       ??$tcslen@AEBQEA_W@?$__crt_char_traits@_W@@SA_KAEBQEA_W@Z 0000000180035cd0 f i libucrtd:assert.obj
 0001:00034cd0       ??$tcslen@AEBQEB_W@?$__crt_char_traits@_W@@SA_KAEBQEB_W@Z 0000000180035cd0 f i libucrtd:assert.obj
 0001:00034cf0       ??$tcslen@AEBQEBD@?$__crt_char_traits@D@@SA_KAEBQEBD@Z 0000000180035cf0 f i libucrtd:assert.obj
 0001:00034d10       ??$tcsncat_s@AEBQEA_WAEB_KPEB_W_K@?$__crt_char_traits@_W@@SAHAEBQEA_WAEB_K$$QEAPEB_W$$QEA_K@Z 0000000180035d10 f i libucrtd:assert.obj
 0001:00034d10       ??$tcsncat_s@AEBQEA_WAEB_KAEAPEB_W_K@?$__crt_char_traits@_W@@SAHAEBQEA_WAEB_KAEAPEB_W$$QEA_K@Z 0000000180035d10 f i libucrtd:assert.obj
 0001:00034d10       ??$tcsncat_s@AEBQEA_WAEB_KAEBQEB_WAEB_K@?$__crt_char_traits@_W@@SAHAEBQEA_WAEB_KAEBQEB_W1@Z 0000000180035d10 f i libucrtd:assert.obj
 0001:00034f30       _invoke_watson_if_error    0000000180035f30 f i libucrtd:assert.obj
 0001:00034f80       _vfwprintf_l               0000000180035f80 f i libucrtd:assert.obj
 0001:00034fd0       _vswprintf_c_l             0000000180035fd0 f i libucrtd:assert.obj
 0001:00035040       _wassert                   0000000180036040 f   libucrtd:assert.obj
 0001:00035080       fwprintf                   0000000180036080 f i libucrtd:assert.obj
 0001:000350d0       swprintf                   00000001800360d0 f i libucrtd:assert.obj
 0001:00035130       cosf                       0000000180036130 f   libucrtd:cosf.obj
 0001:00035630       pow                        0000000180036630 f   libucrtd:pow.obj
 0001:00036cd0       sinf                       0000000180037cd0 f   libucrtd:sinf.obj
 0001:000373d0       _initterm                  00000001800383d0 f   libucrtd:initterm.obj
 0001:00037430       _initterm_e                0000000180038430 f   libucrtd:initterm.obj
 0001:00037520       _seh_filter_dll            0000000180038520 f   libucrtd:exception_filter.obj
 0001:00037550       _seh_filter_exe            0000000180038550 f   libucrtd:exception_filter.obj
 0001:00037880       ??$__crt_get_proc_address@P6AXI@Z@@YAP6AXI@ZQEAUHINSTANCE__@@QEBD@Z 0000000180038880 f i libucrtd:exit.obj
 0001:00037920       ??1?$__crt_unique_handle_t@U__crt_hmodule_traits@@@@QEAA@XZ 0000000180038920 f i libucrtd:exit.obj
 0001:00037a80       ?__acrt_select_exit_lock@@YA?AW4__acrt_lock_id@@XZ 0000000180038a80 f i libucrtd:exit.obj
 0001:00037ab0       ?close@?$__crt_unique_handle_t@U__crt_hmodule_traits@@@@QEAAXXZ 0000000180038ab0 f i libucrtd:exit.obj
 0001:00037af0       ?close@__crt_hmodule_traits@@SA_NPEAUHINSTANCE__@@@Z 0000000180038af0 f i libucrtd:exit.obj
 0001:00037c00       ?get_current_state_index@__crt_state_management@@YA_KXZ 0000000180038c00 f i libucrtd:environment_initialization.obj
 0001:00037c00       ?get_invalid_value@__crt_hmodule_traits@@SAPEAUHINSTANCE__@@XZ 0000000180038c00 f i libucrtd:exit.obj
 0001:00037dc0       __acrt_initialize_thread_local_exit_callback 0000000180038dc0 f   libucrtd:exit.obj
 0001:00037de0       _cexit                     0000000180038de0 f   libucrtd:exit.obj
 0001:00037e00       _exit                      0000000180038e00 f   libucrtd:exit.obj
 0001:00037e20       _is_c_termination_complete 0000000180038e20 f   libucrtd:exit.obj
 0001:00038660       ??$set_program_name@PEAD@?$__crt_char_traits@D@@SAX$$QEAPEAD@Z 0000000180039660 f i libucrtd:argv_parsing.obj
 0001:00038790       __acrt_allocate_buffer_for_argv 0000000180039790 f   libucrtd:argv_parsing.obj
 0001:000388b0       _configure_narrow_argv     00000001800398b0 f   libucrtd:argv_parsing.obj
 0001:000388d0       _set_pgmptr                00000001800398d0 f i libucrtd:argv_parsing.obj
 0001:00038b00       ??$tcslen@AEAPEAD@?$__crt_char_traits@D@@SA_KAEAPEAD@Z 0000000180039b00 f i libucrtd:environment_initialization.obj
 0001:00038b4c       ??B?$__crt_unique_heap_ptr@PEADU__crt_internal_free_policy@@@@QEBA_NXZ 0000000180039b4c f i libucrtd:environment_initialization.obj
 0001:00038b54       ?detach@?$__crt_unique_heap_ptr@DU__crt_internal_free_policy@@@@QEAAPEADXZ 0000000180039b54 f i libucrtd:environment_initialization.obj
 0001:00038b5c       __dcrt_uninitialize_environments_nolock 0000000180039b5c f   libucrtd:environment_initialization.obj
 0001:00038b94       _initialize_narrow_environment 0000000180039b94 f   libucrtd:environment_initialization.obj
 0001:00038e70       _execute_onexit_table      0000000180039e70 f   libucrtd:onexit.obj
 0001:00038eb0       _initialize_onexit_table   0000000180039eb0 f   libucrtd:onexit.obj
 0001:00038f80       __acrt_uninitialize_command_line 0000000180039f80 f   libucrtd:argv_data.obj
 0001:000391f0       ?initialize@?$dual_state_global@PEAU__crt_multibyte_data@@@__crt_state_management@@QEAAXQEAU__crt_multibyte_data@@@Z 000000018003a1f0 f i libucrtd:mbctype.obj
 0001:000391f0       ?initialize@?$dual_state_global@P6AHPEAU_exception@@@Z@__crt_state_management@@QEAAXQ6AHPEAU_exception@@@Z@Z 000000018003a1f0 f i libucrtd:matherr.obj
 0001:000391f0       ?initialize@?$dual_state_global@P6AH_K@Z@__crt_state_management@@QEAAXQ6AH_K@Z@Z 000000018003a1f0 f i libucrtd:new_handler.obj
 0001:000391f0       ?initialize@?$dual_state_global@PEAU__crt_locale_data@@@__crt_state_management@@QEAAXQEAU__crt_locale_data@@@Z 000000018003a1f0 f i libucrtd:initialization.obj
 0001:000391f0       ?initialize@?$dual_state_global@P6AXH@Z@__crt_state_management@@QEAAXQ6AXH@Z@Z 000000018003a1f0 f i libucrtd:signal.obj
 0001:00039240       __acrt_initialize          000000018003a240 f   libucrtd:initialization.obj
 0001:00039270       __acrt_thread_attach       000000018003a270 f   libucrtd:initialization.obj
 0001:00039290       __acrt_thread_detach       000000018003a290 f   libucrtd:initialization.obj
 0001:000392a0       __acrt_uninitialize        000000018003a2a0 f   libucrtd:initialization.obj
 0001:000392d0       __acrt_uninitialize_critical 000000018003a2d0 f   libucrtd:initialization.obj
 0001:000392f0       terminate                  000000018003a2f0 f   libucrtd:terminate.obj
 0001:0003b300       _CrtCheckMemory            000000018003c300 f   libucrtd:debug_heap.obj
 0001:0003b490       _CrtDumpMemoryLeaks        000000018003c490 f   libucrtd:debug_heap.obj
 0001:0003b550       _CrtIsValidHeapPointer     000000018003c550 f   libucrtd:debug_heap.obj
 0001:0003b590       _CrtIsValidPointer         000000018003c590 f   libucrtd:debug_heap.obj
 0001:0003b5d0       _CrtMemCheckpoint          000000018003c5d0 f   libucrtd:debug_heap.obj
 0001:0003b850       _CrtMemDumpAllObjectsSince 000000018003c850 f   libucrtd:debug_heap.obj
 0001:0003b8b0       _CrtSetDbgFlag             000000018003c8b0 f   libucrtd:debug_heap.obj
 0001:0003ba10       _CrtSetDumpClient          000000018003ca10 f   libucrtd:debug_heap.obj
 0001:0003ba40       _calloc_dbg                000000018003ca40 f   libucrtd:debug_heap.obj
 0001:0003bae0       _free_dbg                  000000018003cae0 f   libucrtd:debug_heap.obj
 0001:0003bb50       _invoke_watson_if_oneof    000000018003cb50 f i libucrtd:debug_heap.obj
 0001:0003bbb0       _malloc_dbg                000000018003cbb0 f   libucrtd:debug_heap.obj
 0001:0003bbf0       _msize_dbg                 000000018003cbf0 f   libucrtd:debug_heap.obj
 0001:0003bd90       _realloc_dbg               000000018003cd90 f   libucrtd:debug_heap.obj
 0001:0003be00       _recalloc_dbg              000000018003ce00 f   libucrtd:debug_heap.obj
 0001:0003c3d0       strcpy_s                   000000018003d3d0 f   libucrtd:strcpy_s.obj
 0001:0003c410       strcmp                     000000018003d410 f   libucrtd:strcmp.obj
 0001:0003c490       strlen                     000000018003d490 f   libucrtd:strlen.obj
 0001:0003c540       ??$?0AEBV?$stream_output_adapter@_W@__crt_stdio_output@@AEB_KAEBQEB_WAEBQEAU__crt_locale_pointers@@AEBQEAD@?$standard_base@_WV?$stream_output_adapter@_W@__crt_stdio_output@@@__crt_stdio_output@@IEAA@AEBV?$stream_output_adapter@_W@1@AEB_KAEBQEB_WAEBQEAU__crt_locale_pointers@@AEBQEAD@Z 000000018003d540 f i libucrtd:output.obj
 0001:0003c540       ??$?0AEBV?$string_output_adapter@_W@__crt_stdio_output@@AEB_KAEBQEB_WAEBQEAU__crt_locale_pointers@@AEBQEAD@?$standard_base@_WV?$string_output_adapter@_W@__crt_stdio_output@@@__crt_stdio_output@@IEAA@AEBV?$string_output_adapter@_W@1@AEB_KAEBQEB_WAEBQEAU__crt_locale_pointers@@AEBQEAD@Z 000000018003d540 f i libucrtd:output.obj
 0001:0003c5b0       ??$?0AEBV?$string_output_adapter@D@__crt_stdio_output@@AEB_KAEBQEBDAEBQEAU__crt_locale_pointers@@AEBQEAD@?$format_validation_base@DV?$string_output_adapter@D@__crt_stdio_output@@@__crt_stdio_output@@IEAA@AEBV?$string_output_adapter@D@1@AEB_KAEBQEBDAEBQEAU__crt_locale_pointers@@AEBQEAD@Z 000000018003d5b0 f i libucrtd:output.obj
 0001:0003c600       ??$?0AEBV?$string_output_adapter@D@__crt_stdio_output@@AEB_KAEBQEBDAEBQEAU__crt_locale_pointers@@AEBQEAD@?$standard_base@DV?$string_output_adapter@D@__crt_stdio_output@@@__crt_stdio_output@@IEAA@AEBV?$string_output_adapter@D@1@AEB_KAEBQEBDAEBQEAU__crt_locale_pointers@@AEBQEAD@Z 000000018003d600 f i libucrtd:output.obj
 0001:0003c670       ??$?0AEBV?$string_output_adapter@_W@__crt_stdio_output@@AEB_KAEBQEB_WAEBQEAU__crt_locale_pointers@@AEBQEAD@?$format_validation_base@_WV?$string_output_adapter@_W@__crt_stdio_output@@@__crt_stdio_output@@IEAA@AEBV?$string_output_adapter@_W@1@AEB_KAEBQEB_WAEBQEAU__crt_locale_pointers@@AEBQEAD@Z 000000018003d670 f i libucrtd:output.obj
 0001:0003e700       ??$count@D@formatting_buffer@__crt_stdio_output@@QEBA_KXZ 000000018003f700 f i libucrtd:output.obj
 0001:0003e750       ??$count@_W@formatting_buffer@__crt_stdio_output@@QEBA_KXZ 000000018003f750 f i libucrtd:output.obj
 0001:0003e7a0       ??$data@_W@formatting_buffer@__crt_stdio_output@@QEAAPEA_WXZ 000000018003f7a0 f i libucrtd:output.obj
 0001:0003e7a0       ??$data@D@formatting_buffer@__crt_stdio_output@@QEAAPEADXZ 000000018003f7a0 f i libucrtd:output.obj
 0001:0003e7f0       ??$ensure_buffer_is_big_enough@D@formatting_buffer@__crt_stdio_output@@QEAA_N_K@Z 000000018003f7f0 f i libucrtd:output.obj
 0001:0003e920       ??$ensure_buffer_is_big_enough@_W@formatting_buffer@__crt_stdio_output@@QEAA_N_K@Z 000000018003f920 f i libucrtd:output.obj
 0001:0003ea50       ??$extract_argument_from_va_list@C_J@?$standard_base@_WV?$string_output_adapter@_W@__crt_stdio_output@@@__crt_stdio_output@@IEAA_NAEA_J@Z 000000018003fa50 f i libucrtd:output.obj
 0001:0003ea50       ??$extract_argument_from_va_list@C_J@?$standard_base@_WV?$stream_output_adapter@_W@__crt_stdio_output@@@__crt_stdio_output@@IEAA_NAEA_J@Z 000000018003fa50 f i libucrtd:output.obj
 0001:0003ea50       ??$extract_argument_from_va_list@C_J@?$standard_base@DV?$string_output_adapter@D@__crt_stdio_output@@@__crt_stdio_output@@IEAA_NAEA_J@Z 000000018003fa50 f i libucrtd:output.obj
 0001:0003ea90       ??$extract_argument_from_va_list@E_J@?$standard_base@_WV?$string_output_adapter@_W@__crt_stdio_output@@@__crt_stdio_output@@IEAA_NAEA_J@Z 000000018003fa90 f i libucrtd:output.obj
 0001:0003ea90       ??$extract_argument_from_va_list@E_J@?$standard_base@DV?$string_output_adapter@D@__crt_stdio_output@@@__crt_stdio_output@@IEAA_NAEA_J@Z 000000018003fa90 f i libucrtd:output.obj
 0001:0003ea90       ??$extract_argument_from_va_list@E_J@?$standard_base@_WV?$stream_output_adapter@_W@__crt_stdio_output@@@__crt_stdio_output@@IEAA_NAEA_J@Z 000000018003fa90 f i libucrtd:output.obj
 0001:0003ead0       ??$extract_argument_from_va_list@F_J@?$standard_base@_WV?$string_output_adapter@_W@__crt_stdio_output@@@__crt_stdio_output@@IEAA_NAEA_J@Z 000000018003fad0 f i libucrtd:output.obj
 0001:0003ead0       ??$extract_argument_from_va_list@F_J@?$standard_base@_WV?$stream_output_adapter@_W@__crt_stdio_output@@@__crt_stdio_output@@IEAA_NAEA_J@Z 000000018003fad0 f i libucrtd:output.obj
 0001:0003ead0       ??$extract_argument_from_va_list@F_J@?$standard_base@DV?$string_output_adapter@D@__crt_stdio_output@@@__crt_stdio_output@@IEAA_NAEA_J@Z 000000018003fad0 f i libucrtd:output.obj
 0001:0003eb10       ??$extract_argument_from_va_list@GD@?$standard_base@DV?$string_output_adapter@D@__crt_stdio_output@@@__crt_stdio_output@@IEAA_NAEAD@Z 000000018003fb10 f i libucrtd:output.obj
 0001:0003eb40       ??$extract_argument_from_va_list@G_J@?$standard_base@DV?$string_output_adapter@D@__crt_stdio_output@@@__crt_stdio_output@@IEAA_NAEA_J@Z 000000018003fb40 f i libucrtd:output.obj
 0001:0003eb40       ??$extract_argument_from_va_list@G_J@?$standard_base@_WV?$string_output_adapter@_W@__crt_stdio_output@@@__crt_stdio_output@@IEAA_NAEA_J@Z 000000018003fb40 f i libucrtd:output.obj
 0001:0003eb40       ??$extract_argument_from_va_list@G_J@?$standard_base@_WV?$stream_output_adapter@_W@__crt_stdio_output@@@__crt_stdio_output@@IEAA_NAEA_J@Z 000000018003fb40 f i libucrtd:output.obj
 0001:0003eb80       ??$extract_argument_from_va_list@H_J@?$standard_base@_WV?$stream_output_adapter@_W@__crt_stdio_output@@@__crt_stdio_output@@IEAA_NAEA_J@Z 000000018003fb80 f i libucrtd:output.obj
 0001:0003eb80       ??$extract_argument_from_va_list@H_J@?$standard_base@_WV?$string_output_adapter@_W@__crt_stdio_output@@@__crt_stdio_output@@IEAA_NAEA_J@Z 000000018003fb80 f i libucrtd:output.obj
 0001:0003eb80       ??$extract_argument_from_va_list@H_J@?$standard_base@DV?$string_output_adapter@D@__crt_stdio_output@@@__crt_stdio_output@@IEAA_NAEA_J@Z 000000018003fb80 f i libucrtd:output.obj
 0001:0003ebb0       ??$extract_argument_from_va_list@I_J@?$standard_base@DV?$string_output_adapter@D@__crt_stdio_output@@@__crt_stdio_output@@IEAA_NAEA_J@Z 000000018003fbb0 f i libucrtd:output.obj
 0001:0003ebb0       ??$extract_argument_from_va_list@I_J@?$standard_base@_WV?$string_output_adapter@_W@__crt_stdio_output@@@__crt_stdio_output@@IEAA_NAEA_J@Z 000000018003fbb0 f i libucrtd:output.obj
 0001:0003ebb0       ??$extract_argument_from_va_list@I_J@?$standard_base@_WV?$stream_output_adapter@_W@__crt_stdio_output@@@__crt_stdio_output@@IEAA_NAEA_J@Z 000000018003fbb0 f i libucrtd:output.obj
 0001:0003ebe0       ??$extract_argument_from_va_list@PEAUansi_string@?1??type_case_Z@?$output_processor@_WV?$stream_output_adapter@_W@__crt_stdio_output@@V?$standard_base@_WV?$stream_output_adapter@_W@__crt_stdio_output@@@2@@__crt_stdio_output@@AEAA_NXZ@PEAU1?1??234@AEAA_NXZ@@?$standard_base@_WV?$stream_output_adapter@_W@__crt_stdio_output@@@__crt_stdio_output@@IEAA_NAEAPEAUansi_string@?1??type_case_Z@?$output_processor@_WV?$stream_output_adapter@_W@__crt_stdio_output@@V?$standard_base@_WV?$stream_output_adapter@_W@__crt_stdio_output@@@2@@1@AEAA_NXZ@@Z 000000018003fbe0 f i libucrtd:output.obj
 0001:0003ebe0       ??$extract_argument_from_va_list@PEADPEAD@?$standard_base@DV?$string_output_adapter@D@__crt_stdio_output@@@__crt_stdio_output@@IEAA_NAEAPEAD@Z 000000018003fbe0 f i libucrtd:output.obj
 0001:0003ebe0       ??$extract_argument_from_va_list@PEAXPEAX@?$standard_base@_WV?$string_output_adapter@_W@__crt_stdio_output@@@__crt_stdio_output@@IEAA_NAEAPEAX@Z 000000018003fbe0 f i libucrtd:output.obj
 0001:0003ebe0       ??$extract_argument_from_va_list@PEAXPEAX@?$standard_base@_WV?$stream_output_adapter@_W@__crt_stdio_output@@@__crt_stdio_output@@IEAA_NAEAPEAX@Z 000000018003fbe0 f i libucrtd:output.obj
 0001:0003ebe0       ??$extract_argument_from_va_list@PEAUansi_string@?1??type_case_Z@?$output_processor@_WV?$string_output_adapter@_W@__crt_stdio_output@@V?$format_validation_base@_WV?$string_output_adapter@_W@__crt_stdio_output@@@2@@__crt_stdio_output@@AEAA_NXZ@PEAU1?1??234@AEAA_NXZ@@?$standard_base@_WV?$string_output_adapter@_W@__crt_stdio_output@@@__crt_stdio_output@@IEAA_NAEAPEAUansi_string@?1??type_case_Z@?$output_processor@_WV?$string_output_adapter@_W@__crt_stdio_output@@V?$format_validation_base@_WV?$string_output_adapter@_W@__crt_stdio_output@@@2@@1@AEAA_NXZ@@Z 000000018003fbe0 f i libucrtd:output.obj
 0001:0003ebe0       ??$extract_argument_from_va_list@_K_J@?$standard_base@DV?$string_output_adapter@D@__crt_stdio_output@@@__crt_stdio_output@@IEAA_NAEA_J@Z 000000018003fbe0 f i libucrtd:output.obj
 0001:0003ebe0       ??$extract_argument_from_va_list@_K_J@?$standard_base@_WV?$stream_output_adapter@_W@__crt_stdio_output@@@__crt_stdio_output@@IEAA_NAEA_J@Z 000000018003fbe0 f i libucrtd:output.obj
 0001:0003ebe0       ??$extract_argument_from_va_list@PEAUansi_string@?1??type_case_Z@?$output_processor@_WV?$string_output_adapter@_W@__crt_stdio_output@@V?$standard_base@_WV?$string_output_adapter@_W@__crt_stdio_output@@@2@@__crt_stdio_output@@AEAA_NXZ@PEAU1?1??234@AEAA_NXZ@@?$standard_base@_WV?$string_output_adapter@_W@__crt_stdio_output@@@__crt_stdio_output@@IEAA_NAEAPEAUansi_string@?1??type_case_Z@?$output_processor@_WV?$string_output_adapter@_W@__crt_stdio_output@@V?$standard_base@_WV?$string_output_adapter@_W@__crt_stdio_output@@@2@@1@AEAA_NXZ@@Z 000000018003fbe0 f i libucrtd:output.obj
 0001:0003ebe0       ??$extract_argument_from_va_list@PEAUansi_string@?1??type_case_Z@?$output_processor@DV?$string_output_adapter@D@__crt_stdio_output@@V?$format_validation_base@DV?$string_output_adapter@D@__crt_stdio_output@@@2@@__crt_stdio_output@@AEAA_NXZ@PEAU1?1??234@AEAA_NXZ@@?$standard_base@DV?$string_output_adapter@D@__crt_stdio_output@@@__crt_stdio_output@@IEAA_NAEAPEAUansi_string@?1??type_case_Z@?$output_processor@DV?$string_output_adapter@D@__crt_stdio_output@@V?$format_validation_base@DV?$string_output_adapter@D@__crt_stdio_output@@@2@@1@AEAA_NXZ@@Z 000000018003fbe0 f i libucrtd:output.obj
 0001:0003ebe0       ??$extract_argument_from_va_list@_J_J@?$standard_base@_WV?$string_output_adapter@_W@__crt_stdio_output@@@__crt_stdio_output@@IEAA_NAEA_J@Z 000000018003fbe0 f i libucrtd:output.obj
 0001:0003ebe0       ??$extract_argument_from_va_list@PEADPEAD@?$standard_base@_WV?$stream_output_adapter@_W@__crt_stdio_output@@@__crt_stdio_output@@IEAA_NAEAPEAD@Z 000000018003fbe0 f i libucrtd:output.obj
 0001:0003ebe0       ??$extract_argument_from_va_list@_K_J@?$standard_base@_WV?$string_output_adapter@_W@__crt_stdio_output@@@__crt_stdio_output@@IEAA_NAEA_J@Z 000000018003fbe0 f i libucrtd:output.obj
 0001:0003ebe0       ??$extract_argument_from_va_list@_J_J@?$standard_base@_WV?$stream_output_adapter@_W@__crt_stdio_output@@@__crt_stdio_output@@IEAA_NAEA_J@Z 000000018003fbe0 f i libucrtd:output.obj
 0001:0003ebe0       ??$extract_argument_from_va_list@PEADPEAD@?$standard_base@_WV?$string_output_adapter@_W@__crt_stdio_output@@@__crt_stdio_output@@IEAA_NAEAPEAD@Z 000000018003fbe0 f i libucrtd:output.obj
 0001:0003ebe0       ??$extract_argument_from_va_list@PEAXPEAX@?$standard_base@DV?$string_output_adapter@D@__crt_stdio_output@@@__crt_stdio_output@@IEAA_NAEAPEAX@Z 000000018003fbe0 f i libucrtd:output.obj
 0001:0003ebe0       ??$extract_argument_from_va_list@_J_J@?$standard_base@DV?$string_output_adapter@D@__crt_stdio_output@@@__crt_stdio_output@@IEAA_NAEA_J@Z 000000018003fbe0 f i libucrtd:output.obj
 0001:0003ec10       ??$extract_argument_from_va_list@U_CRT_DOUBLE@@U1@@?$standard_base@_WV?$string_output_adapter@_W@__crt_stdio_output@@@__crt_stdio_output@@IEAA_NAEAU_CRT_DOUBLE@@@Z 000000018003fc10 f i libucrtd:output.obj
 0001:0003ec10       ??$extract_argument_from_va_list@U_CRT_DOUBLE@@U1@@?$standard_base@DV?$string_output_adapter@D@__crt_stdio_output@@@__crt_stdio_output@@IEAA_NAEAU_CRT_DOUBLE@@@Z 000000018003fc10 f i libucrtd:output.obj
 0001:0003ec10       ??$extract_argument_from_va_list@U_CRT_DOUBLE@@U1@@?$standard_base@_WV?$stream_output_adapter@_W@__crt_stdio_output@@@__crt_stdio_output@@IEAA_NAEAU_CRT_DOUBLE@@@Z 000000018003fc10 f i libucrtd:output.obj
 0001:0003ec60       ??$extract_argument_from_va_list@_W_W@?$standard_base@_WV?$string_output_adapter@_W@__crt_stdio_output@@@__crt_stdio_output@@IEAA_NAEA_W@Z 000000018003fc60 f i libucrtd:output.obj
 0001:0003ec60       ??$extract_argument_from_va_list@_W_W@?$standard_base@DV?$string_output_adapter@D@__crt_stdio_output@@@__crt_stdio_output@@IEAA_NAEA_W@Z 000000018003fc60 f i libucrtd:output.obj
 0001:0003ec60       ??$extract_argument_from_va_list@_W_W@?$standard_base@_WV?$stream_output_adapter@_W@__crt_stdio_output@@@__crt_stdio_output@@IEAA_NAEA_W@Z 000000018003fc60 f i libucrtd:output.obj
 0001:0003ec90       ??$is_wide_character_specifier@D@__crt_stdio_output@@YA_N_KDW4length_modifier@0@@Z 000000018003fc90 f i libucrtd:output.obj
 0001:0003ed30       ??$is_wide_character_specifier@_W@__crt_stdio_output@@YA_N_K_WW4length_modifier@0@@Z 000000018003fd30 f i libucrtd:output.obj
 0001:0003ee00       ??$puttc_nolock@AEB_WPEAU_iobuf@@@?$__crt_char_traits@_W@@SAGAEB_W$$QEAPEAU_iobuf@@@Z 000000018003fe00 f i libucrtd:output.obj
 0001:0003ee30       ??$read_va_arg@C@__crt_stdio_output@@YACAEAPEAD@Z 000000018003fe30 f i libucrtd:output.obj
 0001:0003ee30       ??$read_va_arg@E@__crt_stdio_output@@YAEAEAPEAD@Z 000000018003fe30 f i libucrtd:output.obj
 0001:0003eea0       ??$read_va_arg@G@__crt_stdio_output@@YAGAEAPEAD@Z 000000018003fea0 f i libucrtd:output.obj
 0001:0003eea0       ??$read_va_arg@F@__crt_stdio_output@@YAFAEAPEAD@Z 000000018003fea0 f i libucrtd:output.obj
 0001:0003eea0       ??$read_va_arg@_W@__crt_stdio_output@@YA_WAEAPEAD@Z 000000018003fea0 f i libucrtd:output.obj
 0001:0003ef10       ??$read_va_arg@I@__crt_stdio_output@@YAIAEAPEAD@Z 000000018003ff10 f i libucrtd:output.obj
 0001:0003ef10       ??$read_va_arg@H@__crt_stdio_output@@YAHAEAPEAD@Z 000000018003ff10 f i libucrtd:output.obj
 0001:0003ef70       ??$read_va_arg@PEAUansi_string@?1??type_case_Z@?$output_processor@_WV?$string_output_adapter@_W@__crt_stdio_output@@V?$standard_base@_WV?$string_output_adapter@_W@__crt_stdio_output@@@2@@__crt_stdio_output@@AEAA_NXZ@@__crt_stdio_output@@YAPEAUansi_string@?1??type_case_Z@?$output_processor@_WV?$string_output_adapter@_W@__crt_stdio_output@@V?$standard_base@_WV?$string_output_adapter@_W@__crt_stdio_output@@@2@@0@AEAA_NXZ@AEAPEAD@Z 000000018003ff70 f i libucrtd:output.obj
 0001:0003ef70       ??$read_va_arg@PEAUansi_string@?1??type_case_Z@?$output_processor@_WV?$stream_output_adapter@_W@__crt_stdio_output@@V?$standard_base@_WV?$stream_output_adapter@_W@__crt_stdio_output@@@2@@__crt_stdio_output@@AEAA_NXZ@@__crt_stdio_output@@YAPEAUansi_string@?1??type_case_Z@?$output_processor@_WV?$stream_output_adapter@_W@__crt_stdio_output@@V?$standard_base@_WV?$stream_output_adapter@_W@__crt_stdio_output@@@2@@0@AEAA_NXZ@AEAPEAD@Z 000000018003ff70 f i libucrtd:output.obj
 0001:0003ef70       ??$read_va_arg@_K@__crt_stdio_output@@YA_KAEAPEAD@Z 000000018003ff70 f i libucrtd:output.obj
 0001:0003ef70       ??$read_va_arg@_J@__crt_stdio_output@@YA_JAEAPEAD@Z 000000018003ff70 f i libucrtd:output.obj
 0001:0003ef70       ??$read_va_arg@PEAUansi_string@?1??type_case_Z@?$output_processor@_WV?$string_output_adapter@_W@__crt_stdio_output@@V?$format_validation_base@_WV?$string_output_adapter@_W@__crt_stdio_output@@@2@@__crt_stdio_output@@AEAA_NXZ@@__crt_stdio_output@@YAPEAUansi_string@?1??type_case_Z@?$output_processor@_WV?$string_output_adapter@_W@__crt_stdio_output@@V?$format_validation_base@_WV?$string_output_adapter@_W@__crt_stdio_output@@@2@@0@AEAA_NXZ@AEAPEAD@Z 000000018003ff70 f i libucrtd:output.obj
 0001:0003ef70       ??$read_va_arg@U_CRT_DOUBLE@@@__crt_stdio_output@@YA?AU_CRT_DOUBLE@@AEAPEAD@Z 000000018003ff70 f i libucrtd:output.obj
 0001:0003ef70       ??$read_va_arg@PEAX@__crt_stdio_output@@YAPEAXAEAPEAD@Z 000000018003ff70 f i libucrtd:output.obj
 0001:0003ef70       ??$read_va_arg@PEAUansi_string@?1??type_case_Z@?$output_processor@DV?$string_output_adapter@D@__crt_stdio_output@@V?$format_validation_base@DV?$string_output_adapter@D@__crt_stdio_output@@@2@@__crt_stdio_output@@AEAA_NXZ@@__crt_stdio_output@@YAPEAUansi_string@?1??type_case_Z@?$output_processor@DV?$string_output_adapter@D@__crt_stdio_output@@V?$format_validation_base@DV?$string_output_adapter@D@__crt_stdio_output@@@2@@0@AEAA_NXZ@AEAPEAD@Z 000000018003ff70 f i libucrtd:output.obj
 0001:0003ef70       ??$read_va_arg@PEAD@__crt_stdio_output@@YAPEADAEAPEAD@Z 000000018003ff70 f i libucrtd:output.obj
 0001:0003efe0       ??$scratch_count@D@formatting_buffer@__crt_stdio_output@@QEBA_KXZ 000000018003ffe0 f i libucrtd:output.obj
 0001:0003f000       ??$scratch_data@D@formatting_buffer@__crt_stdio_output@@QEAAPEADXZ 0000000180040000 f i libucrtd:output.obj
 0001:0003f070       ??$tcstol@PEBDPEAPEADH@?$__crt_char_traits@D@@SAJ$$QEAPEBD$$QEAPEAPEAD$$QEAH@Z 0000000180040070 f i libucrtd:output.obj
 0001:0003f0b0       ??$tcstol@PEB_WPEAPEA_WH@?$__crt_char_traits@_W@@SAJ$$QEAPEB_W$$QEAPEAPEA_W$$QEAH@Z 00000001800400b0 f i libucrtd:output.obj
 0001:0003f0f0       ??$type_case_integer_parse_into_buffer@I@?$output_processor@DV?$string_output_adapter@D@__crt_stdio_output@@V?$format_validation_base@DV?$string_output_adapter@D@__crt_stdio_output@@@2@@__crt_stdio_output@@AEAAXII_N@Z 00000001800400f0 f i libucrtd:output.obj
 0001:0003f220       ??$type_case_integer_parse_into_buffer@I@?$output_processor@_WV?$stream_output_adapter@_W@__crt_stdio_output@@V?$standard_base@_WV?$stream_output_adapter@_W@__crt_stdio_output@@@2@@__crt_stdio_output@@AEAAXII_N@Z 0000000180040220 f i libucrtd:output.obj
 0001:0003f220       ??$type_case_integer_parse_into_buffer@I@?$output_processor@_WV?$string_output_adapter@_W@__crt_stdio_output@@V?$standard_base@_WV?$string_output_adapter@_W@__crt_stdio_output@@@2@@__crt_stdio_output@@AEAAXII_N@Z 0000000180040220 f i libucrtd:output.obj
 0001:0003f220       ??$type_case_integer_parse_into_buffer@I@?$output_processor@_WV?$string_output_adapter@_W@__crt_stdio_output@@V?$format_validation_base@_WV?$string_output_adapter@_W@__crt_stdio_output@@@2@@__crt_stdio_output@@AEAAXII_N@Z 0000000180040220 f i libucrtd:output.obj
 0001:0003f360       ??$type_case_integer_parse_into_buffer@_K@?$output_processor@DV?$string_output_adapter@D@__crt_stdio_output@@V?$format_validation_base@DV?$string_output_adapter@D@__crt_stdio_output@@@2@@__crt_stdio_output@@AEAAX_KI_N@Z 0000000180040360 f i libucrtd:output.obj
 0001:0003f4b0       ??$type_case_integer_parse_into_buffer@_K@?$output_processor@_WV?$stream_output_adapter@_W@__crt_stdio_output@@V?$standard_base@_WV?$stream_output_adapter@_W@__crt_stdio_output@@@2@@__crt_stdio_output@@AEAAX_KI_N@Z 00000001800404b0 f i libucrtd:output.obj
 0001:0003f4b0       ??$type_case_integer_parse_into_buffer@_K@?$output_processor@_WV?$string_output_adapter@_W@__crt_stdio_output@@V?$standard_base@_WV?$string_output_adapter@_W@__crt_stdio_output@@@2@@__crt_stdio_output@@AEAAX_KI_N@Z 00000001800404b0 f i libucrtd:output.obj
 0001:0003f4b0       ??$type_case_integer_parse_into_buffer@_K@?$output_processor@_WV?$string_output_adapter@_W@__crt_stdio_output@@V?$format_validation_base@_WV?$string_output_adapter@_W@__crt_stdio_output@@@2@@__crt_stdio_output@@AEAAX_KI_N@Z 00000001800404b0 f i libucrtd:output.obj
 0001:0003f610       ??$write_multiple_characters@V?$stream_output_adapter@_W@__crt_stdio_output@@D@__crt_stdio_output@@YAXAEBV?$stream_output_adapter@_W@0@DHQEAH@Z 0000000180040610 f i libucrtd:output.obj
 0001:0003f670       ??$write_multiple_characters@V?$string_output_adapter@D@__crt_stdio_output@@D@__crt_stdio_output@@YAXAEBV?$string_output_adapter@D@0@DHQEAH@Z 0000000180040670 f i libucrtd:output.obj
 0001:0003f6d0       ??$write_multiple_characters@V?$string_output_adapter@_W@__crt_stdio_output@@D@__crt_stdio_output@@YAXAEBV?$string_output_adapter@_W@0@DHQEAH@Z 00000001800406d0 f i libucrtd:output.obj
 0001:0003f7b0       ??0?$common_data@D@__crt_stdio_output@@IEAA@XZ 00000001800407b0 f i libucrtd:output.obj
 0001:0003f880       ??0?$common_data@_W@__crt_stdio_output@@IEAA@XZ 0000000180040880 f i libucrtd:output.obj
 0001:0003f950       ??0?$output_adapter_data@DV?$string_output_adapter@D@__crt_stdio_output@@@__crt_stdio_output@@IEAA@AEBV?$string_output_adapter@D@1@_KQEBDQEAU__crt_locale_pointers@@QEAD@Z 0000000180040950 f i libucrtd:output.obj
 0001:0003f9d0       ??0?$output_adapter_data@_WV?$stream_output_adapter@_W@__crt_stdio_output@@@__crt_stdio_output@@IEAA@AEBV?$stream_output_adapter@_W@1@_KQEB_WQEAU__crt_locale_pointers@@QEAD@Z 00000001800409d0 f i libucrtd:output.obj
 0001:0003f9d0       ??0?$output_adapter_data@_WV?$string_output_adapter@_W@__crt_stdio_output@@@__crt_stdio_output@@IEAA@AEBV?$string_output_adapter@_W@1@_KQEB_WQEAU__crt_locale_pointers@@QEAD@Z 00000001800409d0 f i libucrtd:output.obj
 0001:0003fa50       ??0?$output_processor@DV?$string_output_adapter@D@__crt_stdio_output@@V?$format_validation_base@DV?$string_output_adapter@D@__crt_stdio_output@@@2@@__crt_stdio_output@@QEAA@AEBV?$string_output_adapter@D@1@_KQEBDQEAU__crt_locale_pointers@@QEAD@Z 0000000180040a50 f i libucrtd:output.obj
 0001:0003faa0       ??0?$output_processor@_WV?$string_output_adapter@_W@__crt_stdio_output@@V?$standard_base@_WV?$string_output_adapter@_W@__crt_stdio_output@@@2@@__crt_stdio_output@@QEAA@AEBV?$string_output_adapter@_W@1@_KQEB_WQEAU__crt_locale_pointers@@QEAD@Z 0000000180040aa0 f i libucrtd:output.obj
 0001:0003faa0       ??0?$output_processor@_WV?$stream_output_adapter@_W@__crt_stdio_output@@V?$standard_base@_WV?$stream_output_adapter@_W@__crt_stdio_output@@@2@@__crt_stdio_output@@QEAA@AEBV?$stream_output_adapter@_W@1@_KQEB_WQEAU__crt_locale_pointers@@QEAD@Z 0000000180040aa0 f i libucrtd:output.obj
 0001:0003faf0       ??0?$output_processor@_WV?$string_output_adapter@_W@__crt_stdio_output@@V?$format_validation_base@_WV?$string_output_adapter@_W@__crt_stdio_output@@@2@@__crt_stdio_output@@QEAA@AEBV?$string_output_adapter@_W@1@_KQEB_WQEAU__crt_locale_pointers@@QEAD@Z 0000000180040af0 f i libucrtd:output.obj
 0001:0003fb40       ??0?$stream_output_adapter@_W@__crt_stdio_output@@QEAA@QEAU_iobuf@@@Z 0000000180040b40 f i libucrtd:output.obj
 0001:0003fb70       ??0__acrt_stdio_temporary_buffering_guard@@QEAA@QEAU_iobuf@@@Z 0000000180040b70 f i libucrtd:output.obj
 0001:0003fbb0       ??0__crt_stdio_stream@@QEAA@XZ 0000000180040bb0 f i libucrtd:stream.obj
 0001:0003fbb0       ??0__crt_deferred_errno_cache@@QEAA@XZ 0000000180040bb0 f i libucrtd:output.obj
 0001:0003fbd0       ??0__crt_errno_guard@@QEAA@QEAH@Z 0000000180040bd0 f i libucrtd:output.obj
 0001:0003fc10       ??0formatting_buffer@__crt_stdio_output@@QEAA@XZ 0000000180040c10 f i libucrtd:output.obj
 0001:0003fc50       ??1?$common_data@_W@__crt_stdio_output@@QEAA@XZ 0000000180040c50 f i libucrtd:output.obj
 0001:0003fc50       ??1?$common_data@D@__crt_stdio_output@@QEAA@XZ 0000000180040c50 f i libucrtd:output.obj
 0001:0003fc70       ??1?$output_processor@_WV?$string_output_adapter@_W@__crt_stdio_output@@V?$standard_base@_WV?$string_output_adapter@_W@__crt_stdio_output@@@2@@__crt_stdio_output@@QEAA@XZ 0000000180040c70 f i libucrtd:output.obj
 0001:0003fc70       ??1?$format_validation_base@_WV?$string_output_adapter@_W@__crt_stdio_output@@@__crt_stdio_output@@QEAA@XZ 0000000180040c70 f i libucrtd:output.obj
 0001:0003fc70       ??1?$output_processor@_WV?$stream_output_adapter@_W@__crt_stdio_output@@V?$standard_base@_WV?$stream_output_adapter@_W@__crt_stdio_output@@@2@@__crt_stdio_output@@QEAA@XZ 0000000180040c70 f i libucrtd:output.obj
 0001:0003fc70       ??1?$format_validation_base@DV?$string_output_adapter@D@__crt_stdio_output@@@__crt_stdio_output@@QEAA@XZ 0000000180040c70 f i libucrtd:output.obj
 0001:0003fc90       ??1?$output_adapter_data@_WV?$stream_output_adapter@_W@__crt_stdio_output@@@__crt_stdio_output@@QEAA@XZ 0000000180040c90 f i libucrtd:output.obj
 0001:0003fc90       ??1?$output_adapter_data@DV?$string_output_adapter@D@__crt_stdio_output@@@__crt_stdio_output@@QEAA@XZ 0000000180040c90 f i libucrtd:output.obj
 0001:0003fc90       ??1?$output_adapter_data@_WV?$string_output_adapter@_W@__crt_stdio_output@@@__crt_stdio_output@@QEAA@XZ 0000000180040c90 f i libucrtd:output.obj
 0001:0003fcb0       ??1?$output_processor@DV?$string_output_adapter@D@__crt_stdio_output@@V?$format_validation_base@DV?$string_output_adapter@D@__crt_stdio_output@@@2@@__crt_stdio_output@@QEAA@XZ 0000000180040cb0 f i libucrtd:output.obj
 0001:0003fcb0       ??1?$output_processor@_WV?$string_output_adapter@_W@__crt_stdio_output@@V?$format_validation_base@_WV?$string_output_adapter@_W@__crt_stdio_output@@@2@@__crt_stdio_output@@QEAA@XZ 0000000180040cb0 f i libucrtd:output.obj
 0001:0003fcd0       ??1?$standard_base@_WV?$stream_output_adapter@_W@__crt_stdio_output@@@__crt_stdio_output@@QEAA@XZ 0000000180040cd0 f i libucrtd:output.obj
 0001:0003fcd0       ??1?$standard_base@_WV?$string_output_adapter@_W@__crt_stdio_output@@@__crt_stdio_output@@QEAA@XZ 0000000180040cd0 f i libucrtd:output.obj
 0001:0003fcd0       ??1?$standard_base@DV?$string_output_adapter@D@__crt_stdio_output@@@__crt_stdio_output@@QEAA@XZ 0000000180040cd0 f i libucrtd:output.obj
 0001:0003fcf0       ??1__acrt_stdio_temporary_buffering_guard@@QEAA@XZ 0000000180040cf0 f i libucrtd:output.obj
 0001:0003fd20       ??1__crt_errno_guard@@QEAA@XZ 0000000180040d20 f i libucrtd:output.obj
 0001:0003fd50       ??1formatting_buffer@__crt_stdio_output@@QEAA@XZ 0000000180040d50 f i libucrtd:output.obj
 0001:0003fd80       ??4?$__crt_unique_heap_ptr@DU__crt_internal_free_policy@@@@QEAAAEAV0@$$QEAV0@@Z 0000000180040d80 f i libucrtd:output.obj
 0001:0003fdc0       ??A?$spectre_mitigated_lookup_table@Ustate_transition_pair@__crt_stdio_output@@$0IA@@__crt_stdio_output@@QEBAAEBUstate_transition_pair@1@_K@Z 0000000180040dc0 f i libucrtd:output.obj
 0001:0003ff50       ?adjust_hexit@?$output_processor@DV?$string_output_adapter@D@__crt_stdio_output@@V?$format_validation_base@DV?$string_output_adapter@D@__crt_stdio_output@@@2@@__crt_stdio_output@@CADH_N@Z 0000000180040f50 f i libucrtd:output.obj
 0001:0003ff50       ?adjust_hexit@?$output_processor@_WV?$stream_output_adapter@_W@__crt_stdio_output@@V?$standard_base@_WV?$stream_output_adapter@_W@__crt_stdio_output@@@2@@__crt_stdio_output@@CADH_N@Z 0000000180040f50 f i libucrtd:output.obj
 0001:0003ff50       ?adjust_hexit@?$output_processor@_WV?$string_output_adapter@_W@__crt_stdio_output@@V?$standard_base@_WV?$string_output_adapter@_W@__crt_stdio_output@@@2@@__crt_stdio_output@@CADH_N@Z 0000000180040f50 f i libucrtd:output.obj
 0001:0003ff50       ?adjust_hexit@?$output_processor@_WV?$string_output_adapter@_W@__crt_stdio_output@@V?$format_validation_base@_WV?$string_output_adapter@_W@__crt_stdio_output@@@2@@__crt_stdio_output@@CADH_N@Z 0000000180040f50 f i libucrtd:output.obj
 0001:0003ffa0       ?advance_to_next_pass@?$standard_base@DV?$string_output_adapter@D@__crt_stdio_output@@@__crt_stdio_output@@IEAA_NXZ 0000000180040fa0 f i libucrtd:output.obj
 0001:0003ffa0       ?advance_to_next_pass@?$standard_base@_WV?$stream_output_adapter@_W@__crt_stdio_output@@@__crt_stdio_output@@IEAA_NXZ 0000000180040fa0 f i libucrtd:output.obj
 0001:0003ffa0       ?advance_to_next_pass@?$standard_base@_WV?$string_output_adapter@_W@__crt_stdio_output@@@__crt_stdio_output@@IEAA_NXZ 0000000180040fa0 f i libucrtd:output.obj
 0001:0003fff0       ?crop_zeroes@__crt_stdio_output@@YAXPEADQEAU__crt_locale_pointers@@@Z 0000000180040ff0 f i libucrtd:output.obj
 0001:00040130       ?find_next_state@?$output_processor@DV?$string_output_adapter@D@__crt_stdio_output@@V?$format_validation_base@DV?$string_output_adapter@D@__crt_stdio_output@@@2@@__crt_stdio_output@@AEBA?AW4state@2@DW432@@Z 0000000180041130 f i libucrtd:output.obj
 0001:000401c0       ?find_next_state@?$output_processor@_WV?$stream_output_adapter@_W@__crt_stdio_output@@V?$standard_base@_WV?$stream_output_adapter@_W@__crt_stdio_output@@@2@@__crt_stdio_output@@AEBA?AW4state@2@_WW432@@Z 00000001800411c0 f i libucrtd:output.obj
 0001:000401c0       ?find_next_state@?$output_processor@_WV?$string_output_adapter@_W@__crt_stdio_output@@V?$standard_base@_WV?$string_output_adapter@_W@__crt_stdio_output@@@2@@__crt_stdio_output@@AEBA?AW4state@2@_WW432@@Z 00000001800411c0 f i libucrtd:output.obj
 0001:00040250       ?find_next_state@?$output_processor@_WV?$string_output_adapter@_W@__crt_stdio_output@@V?$format_validation_base@_WV?$string_output_adapter@_W@__crt_stdio_output@@@2@@__crt_stdio_output@@AEBA?AW4state@2@_WW432@@Z 0000000180041250 f i libucrtd:output.obj
 0001:000402e0       ?force_decimal_point@__crt_stdio_output@@YAXPEADQEAU__crt_locale_pointers@@@Z 00000001800412e0 f i libucrtd:output.obj
 0001:000403e0       ?get@__crt_deferred_errno_cache@@QEAAAEAHXZ 00000001800413e0 f i libucrtd:output.obj
 0001:00040410       ?has_flag@?$output_processor@DV?$string_output_adapter@D@__crt_stdio_output@@V?$format_validation_base@DV?$string_output_adapter@D@__crt_stdio_output@@@2@@__crt_stdio_output@@AEBA_NI@Z 0000000180041410 f i libucrtd:output.obj
 0001:00040410       ?has_flag@?$output_processor@_WV?$string_output_adapter@_W@__crt_stdio_output@@V?$standard_base@_WV?$string_output_adapter@_W@__crt_stdio_output@@@2@@__crt_stdio_output@@AEBA_NI@Z 0000000180041410 f i libucrtd:output.obj
 0001:00040410       ?has_flag@?$output_processor@_WV?$stream_output_adapter@_W@__crt_stdio_output@@V?$standard_base@_WV?$stream_output_adapter@_W@__crt_stdio_output@@@2@@__crt_stdio_output@@AEBA_NI@Z 0000000180041410 f i libucrtd:output.obj
 0001:00040410       ?has_flag@?$output_processor@_WV?$string_output_adapter@_W@__crt_stdio_output@@V?$format_validation_base@_WV?$string_output_adapter@_W@__crt_stdio_output@@@2@@__crt_stdio_output@@AEBA_NI@Z 0000000180041410 f i libucrtd:output.obj
 0001:00040450       ?narrow_null_string@?$output_processor@_WV?$string_output_adapter@_W@__crt_stdio_output@@V?$standard_base@_WV?$string_output_adapter@_W@__crt_stdio_output@@@2@@__crt_stdio_output@@CAPEADXZ 0000000180041450 f i libucrtd:output.obj
 0001:00040450       ?narrow_null_string@?$output_processor@_WV?$stream_output_adapter@_W@__crt_stdio_output@@V?$standard_base@_WV?$stream_output_adapter@_W@__crt_stdio_output@@@2@@__crt_stdio_output@@CAPEADXZ 0000000180041450 f i libucrtd:output.obj
 0001:00040450       ?narrow_null_string@?$output_processor@_WV?$string_output_adapter@_W@__crt_stdio_output@@V?$format_validation_base@_WV?$string_output_adapter@_W@__crt_stdio_output@@@2@@__crt_stdio_output@@CAPEADXZ 0000000180041450 f i libucrtd:output.obj
 0001:00040450       ?narrow_null_string@?$output_processor@DV?$string_output_adapter@D@__crt_stdio_output@@V?$format_validation_base@DV?$string_output_adapter@D@__crt_stdio_output@@@2@@__crt_stdio_output@@CAPEADXZ 0000000180041450 f i libucrtd:output.obj
 0001:00040460       ?parse_int_from_format_string@?$output_processor@DV?$string_output_adapter@D@__crt_stdio_output@@V?$format_validation_base@DV?$string_output_adapter@D@__crt_stdio_output@@@2@@__crt_stdio_output@@AEAA_NQEAH@Z 0000000180041460 f i libucrtd:output.obj
 0001:00040550       ?parse_int_from_format_string@?$output_processor@_WV?$stream_output_adapter@_W@__crt_stdio_output@@V?$standard_base@_WV?$stream_output_adapter@_W@__crt_stdio_output@@@2@@__crt_stdio_output@@AEAA_NQEAH@Z 0000000180041550 f i libucrtd:output.obj
 0001:00040550       ?parse_int_from_format_string@?$output_processor@_WV?$string_output_adapter@_W@__crt_stdio_output@@V?$standard_base@_WV?$string_output_adapter@_W@__crt_stdio_output@@@2@@__crt_stdio_output@@AEAA_NQEAH@Z 0000000180041550 f i libucrtd:output.obj
 0001:00040550       ?parse_int_from_format_string@?$output_processor@_WV?$string_output_adapter@_W@__crt_stdio_output@@V?$format_validation_base@_WV?$string_output_adapter@_W@__crt_stdio_output@@@2@@__crt_stdio_output@@AEAA_NQEAH@Z 0000000180041550 f i libucrtd:output.obj
 0001:00040640       ?process@?$output_processor@DV?$string_output_adapter@D@__crt_stdio_output@@V?$format_validation_base@DV?$string_output_adapter@D@__crt_stdio_output@@@2@@__crt_stdio_output@@QEAAHXZ 0000000180041640 f i libucrtd:output.obj
 0001:000409a0       ?process@?$output_processor@_WV?$stream_output_adapter@_W@__crt_stdio_output@@V?$standard_base@_WV?$stream_output_adapter@_W@__crt_stdio_output@@@2@@__crt_stdio_output@@QEAAHXZ 00000001800419a0 f i libucrtd:output.obj
 0001:00040d00       ?process@?$output_processor@_WV?$string_output_adapter@_W@__crt_stdio_output@@V?$format_validation_base@_WV?$string_output_adapter@_W@__crt_stdio_output@@@2@@__crt_stdio_output@@QEAAHXZ 0000000180041d00 f i libucrtd:output.obj
 0001:00041060       ?process@?$output_processor@_WV?$string_output_adapter@_W@__crt_stdio_output@@V?$standard_base@_WV?$string_output_adapter@_W@__crt_stdio_output@@@2@@__crt_stdio_output@@QEAAHXZ 0000000180042060 f i libucrtd:output.obj
 0001:000413c0       ?set_flag@?$output_processor@_WV?$string_output_adapter@_W@__crt_stdio_output@@V?$format_validation_base@_WV?$string_output_adapter@_W@__crt_stdio_output@@@2@@__crt_stdio_output@@AEAAXI@Z 00000001800423c0 f i libucrtd:output.obj
 0001:000413c0       ?set_flag@?$output_processor@_WV?$stream_output_adapter@_W@__crt_stdio_output@@V?$standard_base@_WV?$stream_output_adapter@_W@__crt_stdio_output@@@2@@__crt_stdio_output@@AEAAXI@Z 00000001800423c0 f i libucrtd:output.obj
 0001:000413c0       ?set_flag@?$output_processor@DV?$string_output_adapter@D@__crt_stdio_output@@V?$format_validation_base@DV?$string_output_adapter@D@__crt_stdio_output@@@2@@__crt_stdio_output@@AEAAXI@Z 00000001800423c0 f i libucrtd:output.obj
 0001:000413c0       ?set_flag@?$output_processor@_WV?$string_output_adapter@_W@__crt_stdio_output@@V?$standard_base@_WV?$string_output_adapter@_W@__crt_stdio_output@@@2@@__crt_stdio_output@@AEAAXI@Z 00000001800423c0 f i libucrtd:output.obj
 0001:000413e0       ?validate_and_update_state_at_beginning_of_format_character@?$standard_base@_WV?$string_output_adapter@_W@__crt_stdio_output@@@__crt_stdio_output@@IEAA_NXZ 00000001800423e0 f i libucrtd:output.obj
 0001:000413e0       ?validate_and_update_state_at_beginning_of_format_character@?$standard_base@DV?$string_output_adapter@D@__crt_stdio_output@@@__crt_stdio_output@@IEAA_NXZ 00000001800423e0 f i libucrtd:output.obj
 0001:000413e0       ?validate_state_for_type_case_a@?$standard_base@DV?$string_output_adapter@D@__crt_stdio_output@@@__crt_stdio_output@@IEBA_NXZ 00000001800423e0 f i libucrtd:output.obj
 0001:000413e0       ?validate_and_update_state_at_end_of_format_string@?$standard_base@_WV?$string_output_adapter@_W@__crt_stdio_output@@@__crt_stdio_output@@IEBA_NXZ 00000001800423e0 f i libucrtd:output.obj
 0001:000413e0       ?validate_and_update_state_at_end_of_format_string@?$standard_base@_WV?$stream_output_adapter@_W@__crt_stdio_output@@@__crt_stdio_output@@IEBA_NXZ 00000001800423e0 f i libucrtd:output.obj
 0001:000413e0       ?should_format@?$standard_base@_WV?$stream_output_adapter@_W@__crt_stdio_output@@@__crt_stdio_output@@IEAA_NXZ 00000001800423e0 f i libucrtd:output.obj
 0001:000413e0       ?validate_stream_is_ansi_if_required@?$__acrt_stdio_char_traits@_W@@SA_NQEAU_iobuf@@@Z 00000001800423e0 f i libucrtd:output.obj
 0001:000413e0       ?validate_state_for_type_case_a@?$standard_base@_WV?$stream_output_adapter@_W@__crt_stdio_output@@@__crt_stdio_output@@IEBA_NXZ 00000001800423e0 f i libucrtd:output.obj
 0001:000413e0       ?should_format@?$standard_base@DV?$string_output_adapter@D@__crt_stdio_output@@@__crt_stdio_output@@IEAA_NXZ 00000001800423e0 f i libucrtd:output.obj
 0001:000413e0       ?validate_state_for_type_case_a@?$standard_base@_WV?$string_output_adapter@_W@__crt_stdio_output@@@__crt_stdio_output@@IEBA_NXZ 00000001800423e0 f i libucrtd:output.obj
 0001:000413e0       ?should_format@?$standard_base@_WV?$string_output_adapter@_W@__crt_stdio_output@@@__crt_stdio_output@@IEAA_NXZ 00000001800423e0 f i libucrtd:output.obj
 0001:000413e0       ?validate_and_update_state_at_beginning_of_format_character@?$standard_base@_WV?$stream_output_adapter@_W@__crt_stdio_output@@@__crt_stdio_output@@IEAA_NXZ 00000001800423e0 f i libucrtd:output.obj
 0001:000413f0       ?should_skip_normal_state_processing@?$standard_base@DV?$string_output_adapter@D@__crt_stdio_output@@@__crt_stdio_output@@IEAA_NXZ 00000001800423f0 f i libucrtd:output.obj
 0001:000413f0       ?should_skip_normal_state_processing@?$standard_base@_WV?$stream_output_adapter@_W@__crt_stdio_output@@@__crt_stdio_output@@IEAA_NXZ 00000001800423f0 f i libucrtd:output.obj
 0001:000413f0       ?should_skip_type_state_output@?$standard_base@_WV?$stream_output_adapter@_W@__crt_stdio_output@@@__crt_stdio_output@@IEBA_NXZ 00000001800423f0 f i libucrtd:output.obj
 0001:000413f0       ?should_skip_type_state_output@?$standard_base@_WV?$string_output_adapter@_W@__crt_stdio_output@@@__crt_stdio_output@@IEBA_NXZ 00000001800423f0 f i libucrtd:output.obj
 0001:000413f0       ?should_skip_type_state_output@?$standard_base@DV?$string_output_adapter@D@__crt_stdio_output@@@__crt_stdio_output@@IEBA_NXZ 00000001800423f0 f i libucrtd:output.obj
 0001:000413f0       ?should_skip_normal_state_processing@?$standard_base@_WV?$string_output_adapter@_W@__crt_stdio_output@@@__crt_stdio_output@@IEAA_NXZ 00000001800423f0 f i libucrtd:output.obj
 0001:00041400       ?state_case_dot@?$output_processor@_WV?$string_output_adapter@_W@__crt_stdio_output@@V?$format_validation_base@_WV?$string_output_adapter@_W@__crt_stdio_output@@@2@@__crt_stdio_output@@AEAA_NXZ 0000000180042400 f i libucrtd:output.obj
 0001:00041400       ?state_case_dot@?$output_processor@_WV?$string_output_adapter@_W@__crt_stdio_output@@V?$standard_base@_WV?$string_output_adapter@_W@__crt_stdio_output@@@2@@__crt_stdio_output@@AEAA_NXZ 0000000180042400 f i libucrtd:output.obj
 0001:00041400       ?state_case_dot@?$output_processor@DV?$string_output_adapter@D@__crt_stdio_output@@V?$format_validation_base@DV?$string_output_adapter@D@__crt_stdio_output@@@2@@__crt_stdio_output@@AEAA_NXZ 0000000180042400 f i libucrtd:output.obj
 0001:00041400       ?state_case_dot@?$output_processor@_WV?$stream_output_adapter@_W@__crt_stdio_output@@V?$standard_base@_WV?$stream_output_adapter@_W@__crt_stdio_output@@@2@@__crt_stdio_output@@AEAA_NXZ 0000000180042400 f i libucrtd:output.obj
 0001:00041420       ?state_case_flag@?$output_processor@DV?$string_output_adapter@D@__crt_stdio_output@@V?$format_validation_base@DV?$string_output_adapter@D@__crt_stdio_output@@@2@@__crt_stdio_output@@AEAA_NXZ 0000000180042420 f i libucrtd:output.obj
 0001:000414c0       ?state_case_flag@?$output_processor@_WV?$stream_output_adapter@_W@__crt_stdio_output@@V?$standard_base@_WV?$stream_output_adapter@_W@__crt_stdio_output@@@2@@__crt_stdio_output@@AEAA_NXZ 00000001800424c0 f i libucrtd:output.obj
 0001:000414c0       ?state_case_flag@?$output_processor@_WV?$string_output_adapter@_W@__crt_stdio_output@@V?$format_validation_base@_WV?$string_output_adapter@_W@__crt_stdio_output@@@2@@__crt_stdio_output@@AEAA_NXZ 00000001800424c0 f i libucrtd:output.obj
 0001:000414c0       ?state_case_flag@?$output_processor@_WV?$string_output_adapter@_W@__crt_stdio_output@@V?$standard_base@_WV?$string_output_adapter@_W@__crt_stdio_output@@@2@@__crt_stdio_output@@AEAA_NXZ 00000001800424c0 f i libucrtd:output.obj
 0001:00041560       ?state_case_normal@?$output_processor@DV?$string_output_adapter@D@__crt_stdio_output@@V?$format_validation_base@DV?$string_output_adapter@D@__crt_stdio_output@@@2@@__crt_stdio_output@@AEAA_NXZ 0000000180042560 f i libucrtd:output.obj
 0001:00041640       ?state_case_normal@?$output_processor@_WV?$stream_output_adapter@_W@__crt_stdio_output@@V?$standard_base@_WV?$stream_output_adapter@_W@__crt_stdio_output@@@2@@__crt_stdio_output@@AEAA_NXZ 0000000180042640 f i libucrtd:output.obj
 0001:00041720       ?state_case_normal@?$output_processor@_WV?$string_output_adapter@_W@__crt_stdio_output@@V?$format_validation_base@_WV?$string_output_adapter@_W@__crt_stdio_output@@@2@@__crt_stdio_output@@AEAA_NXZ 0000000180042720 f i libucrtd:output.obj
 0001:00041800       ?state_case_normal@?$output_processor@_WV?$string_output_adapter@_W@__crt_stdio_output@@V?$standard_base@_WV?$string_output_adapter@_W@__crt_stdio_output@@@2@@__crt_stdio_output@@AEAA_NXZ 0000000180042800 f i libucrtd:output.obj
 0001:000418e0       ?state_case_normal_common@?$output_processor@DV?$string_output_adapter@D@__crt_stdio_output@@V?$format_validation_base@DV?$string_output_adapter@D@__crt_stdio_output@@@2@@__crt_stdio_output@@AEAA_NXZ 00000001800428e0 f i libucrtd:output.obj
 0001:00041930       ?state_case_normal_common@?$output_processor@_WV?$stream_output_adapter@_W@__crt_stdio_output@@V?$standard_base@_WV?$stream_output_adapter@_W@__crt_stdio_output@@@2@@__crt_stdio_output@@AEAA_NXZ 0000000180042930 f i libucrtd:output.obj
 0001:00041980       ?state_case_normal_common@?$output_processor@_WV?$string_output_adapter@_W@__crt_stdio_output@@V?$standard_base@_WV?$string_output_adapter@_W@__crt_stdio_output@@@2@@__crt_stdio_output@@AEAA_NXZ 0000000180042980 f i libucrtd:output.obj
 0001:00041980       ?state_case_normal_common@?$output_processor@_WV?$string_output_adapter@_W@__crt_stdio_output@@V?$format_validation_base@_WV?$string_output_adapter@_W@__crt_stdio_output@@@2@@__crt_stdio_output@@AEAA_NXZ 0000000180042980 f i libucrtd:output.obj
 0001:000419d0       ?state_case_normal_tchar@?$output_processor@DV?$string_output_adapter@D@__crt_stdio_output@@V?$format_validation_base@DV?$string_output_adapter@D@__crt_stdio_output@@@2@@__crt_stdio_output@@AEAA_ND@Z 00000001800429d0 f i libucrtd:output.obj
 0001:00041b10       ?state_case_normal_tchar@?$output_processor@_WV?$stream_output_adapter@_W@__crt_stdio_output@@V?$standard_base@_WV?$stream_output_adapter@_W@__crt_stdio_output@@@2@@__crt_stdio_output@@AEAA_N_W@Z 0000000180042b10 f i libucrtd:output.obj
 0001:00041b10       ?state_case_normal_tchar@?$output_processor@_WV?$string_output_adapter@_W@__crt_stdio_output@@V?$standard_base@_WV?$string_output_adapter@_W@__crt_stdio_output@@@2@@__crt_stdio_output@@AEAA_N_W@Z 0000000180042b10 f i libucrtd:output.obj
 0001:00041b10       ?state_case_normal_tchar@?$output_processor@_WV?$string_output_adapter@_W@__crt_stdio_output@@V?$format_validation_base@_WV?$string_output_adapter@_W@__crt_stdio_output@@@2@@__crt_stdio_output@@AEAA_N_W@Z 0000000180042b10 f i libucrtd:output.obj
 0001:00041b30       ?state_case_percent@?$output_processor@_WV?$stream_output_adapter@_W@__crt_stdio_output@@V?$standard_base@_WV?$stream_output_adapter@_W@__crt_stdio_output@@@2@@__crt_stdio_output@@AEAA_NXZ 0000000180042b30 f i libucrtd:output.obj
 0001:00041b30       ?state_case_percent@?$output_processor@DV?$string_output_adapter@D@__crt_stdio_output@@V?$format_validation_base@DV?$string_output_adapter@D@__crt_stdio_output@@@2@@__crt_stdio_output@@AEAA_NXZ 0000000180042b30 f i libucrtd:output.obj
 0001:00041b30       ?state_case_percent@?$output_processor@_WV?$string_output_adapter@_W@__crt_stdio_output@@V?$format_validation_base@_WV?$string_output_adapter@_W@__crt_stdio_output@@@2@@__crt_stdio_output@@AEAA_NXZ 0000000180042b30 f i libucrtd:output.obj
 0001:00041b30       ?state_case_percent@?$output_processor@_WV?$string_output_adapter@_W@__crt_stdio_output@@V?$standard_base@_WV?$string_output_adapter@_W@__crt_stdio_output@@@2@@__crt_stdio_output@@AEAA_NXZ 0000000180042b30 f i libucrtd:output.obj
 0001:00041b80       ?state_case_precision@?$output_processor@DV?$string_output_adapter@D@__crt_stdio_output@@V?$format_validation_base@DV?$string_output_adapter@D@__crt_stdio_output@@@2@@__crt_stdio_output@@AEAA_NXZ 0000000180042b80 f i libucrtd:output.obj
 0001:00041c00       ?state_case_precision@?$output_processor@_WV?$string_output_adapter@_W@__crt_stdio_output@@V?$standard_base@_WV?$string_output_adapter@_W@__crt_stdio_output@@@2@@__crt_stdio_output@@AEAA_NXZ 0000000180042c00 f i libucrtd:output.obj
 0001:00041c00       ?state_case_precision@?$output_processor@_WV?$stream_output_adapter@_W@__crt_stdio_output@@V?$standard_base@_WV?$stream_output_adapter@_W@__crt_stdio_output@@@2@@__crt_stdio_output@@AEAA_NXZ 0000000180042c00 f i libucrtd:output.obj
 0001:00041c00       ?state_case_precision@?$output_processor@_WV?$string_output_adapter@_W@__crt_stdio_output@@V?$format_validation_base@_WV?$string_output_adapter@_W@__crt_stdio_output@@@2@@__crt_stdio_output@@AEAA_NXZ 0000000180042c00 f i libucrtd:output.obj
 0001:00041c80       ?state_case_size@?$output_processor@DV?$string_output_adapter@D@__crt_stdio_output@@V?$format_validation_base@DV?$string_output_adapter@D@__crt_stdio_output@@@2@@__crt_stdio_output@@AEAA_NXZ 0000000180042c80 f i libucrtd:output.obj
 0001:00042100       ?state_case_size@?$output_processor@_WV?$stream_output_adapter@_W@__crt_stdio_output@@V?$standard_base@_WV?$stream_output_adapter@_W@__crt_stdio_output@@@2@@__crt_stdio_output@@AEAA_NXZ 0000000180043100 f i libucrtd:output.obj
 0001:00042580       ?state_case_size@?$output_processor@_WV?$string_output_adapter@_W@__crt_stdio_output@@V?$format_validation_base@_WV?$string_output_adapter@_W@__crt_stdio_output@@@2@@__crt_stdio_output@@AEAA_NXZ 0000000180043580 f i libucrtd:output.obj
 0001:00042a00       ?state_case_size@?$output_processor@_WV?$string_output_adapter@_W@__crt_stdio_output@@V?$standard_base@_WV?$string_output_adapter@_W@__crt_stdio_output@@@2@@__crt_stdio_output@@AEAA_NXZ 0000000180043a00 f i libucrtd:output.obj
 0001:00042e80       ?state_case_type@?$output_processor@DV?$string_output_adapter@D@__crt_stdio_output@@V?$format_validation_base@DV?$string_output_adapter@D@__crt_stdio_output@@@2@@__crt_stdio_output@@AEAA_NXZ 0000000180043e80 f i libucrtd:output.obj
 0001:00043320       ?state_case_type@?$output_processor@_WV?$stream_output_adapter@_W@__crt_stdio_output@@V?$standard_base@_WV?$stream_output_adapter@_W@__crt_stdio_output@@@2@@__crt_stdio_output@@AEAA_NXZ 0000000180044320 f i libucrtd:output.obj
 0001:00043880       ?state_case_type@?$output_processor@_WV?$string_output_adapter@_W@__crt_stdio_output@@V?$format_validation_base@_WV?$string_output_adapter@_W@__crt_stdio_output@@@2@@__crt_stdio_output@@AEAA_NXZ 0000000180044880 f i libucrtd:output.obj
 0001:00043de0       ?state_case_type@?$output_processor@_WV?$string_output_adapter@_W@__crt_stdio_output@@V?$standard_base@_WV?$string_output_adapter@_W@__crt_stdio_output@@@2@@__crt_stdio_output@@AEAA_NXZ 0000000180044de0 f i libucrtd:output.obj
 0001:00044340       ?state_case_width@?$output_processor@DV?$string_output_adapter@D@__crt_stdio_output@@V?$format_validation_base@DV?$string_output_adapter@D@__crt_stdio_output@@@2@@__crt_stdio_output@@AEAA_NXZ 0000000180045340 f i libucrtd:output.obj
 0001:000443d0       ?state_case_width@?$output_processor@_WV?$stream_output_adapter@_W@__crt_stdio_output@@V?$standard_base@_WV?$stream_output_adapter@_W@__crt_stdio_output@@@2@@__crt_stdio_output@@AEAA_NXZ 00000001800453d0 f i libucrtd:output.obj
 0001:000443d0       ?state_case_width@?$output_processor@_WV?$string_output_adapter@_W@__crt_stdio_output@@V?$format_validation_base@_WV?$string_output_adapter@_W@__crt_stdio_output@@@2@@__crt_stdio_output@@AEAA_NXZ 00000001800453d0 f i libucrtd:output.obj
 0001:000443d0       ?state_case_width@?$output_processor@_WV?$string_output_adapter@_W@__crt_stdio_output@@V?$standard_base@_WV?$string_output_adapter@_W@__crt_stdio_output@@@2@@__crt_stdio_output@@AEAA_NXZ 00000001800453d0 f i libucrtd:output.obj
 0001:00044460       ?state_count@?$format_validation_base@DV?$string_output_adapter@D@__crt_stdio_output@@@__crt_stdio_output@@KAIXZ 0000000180045460 f i libucrtd:output.obj
 0001:00044460       ?state_count@?$format_validation_base@_WV?$string_output_adapter@_W@__crt_stdio_output@@@__crt_stdio_output@@KAIXZ 0000000180045460 f i libucrtd:output.obj
 0001:00044470       ?state_count@?$standard_base@_WV?$string_output_adapter@_W@__crt_stdio_output@@@__crt_stdio_output@@KAIXZ 0000000180045470 f i libucrtd:output.obj
 0001:00044470       ?state_count@?$standard_base@_WV?$stream_output_adapter@_W@__crt_stdio_output@@@__crt_stdio_output@@KAIXZ 0000000180045470 f i libucrtd:output.obj
 0001:00044480       ?state_transition_table@?$format_validation_base@DV?$string_output_adapter@D@__crt_stdio_output@@@__crt_stdio_output@@KAAEBV?$spectre_mitigated_lookup_table@Ustate_transition_pair@__crt_stdio_output@@$0IA@@2@XZ 0000000180045480 f i libucrtd:output.obj
 0001:00044480       ?state_transition_table@?$format_validation_base@_WV?$string_output_adapter@_W@__crt_stdio_output@@@__crt_stdio_output@@KAAEBV?$spectre_mitigated_lookup_table@Ustate_transition_pair@__crt_stdio_output@@$0IA@@2@XZ 0000000180045480 f i libucrtd:output.obj
 0001:00044490       ?state_transition_table@?$standard_base@_WV?$stream_output_adapter@_W@__crt_stdio_output@@@__crt_stdio_output@@KAAEBV?$spectre_mitigated_lookup_table@Ustate_transition_pair@__crt_stdio_output@@$0IA@@2@XZ 0000000180045490 f i libucrtd:output.obj
 0001:00044490       ?state_transition_table@?$standard_base@_WV?$string_output_adapter@_W@__crt_stdio_output@@@__crt_stdio_output@@KAAEBV?$spectre_mitigated_lookup_table@Ustate_transition_pair@__crt_stdio_output@@$0IA@@2@XZ 0000000180045490 f i libucrtd:output.obj
 0001:000444a0       ?tchar_string@?$common_data@D@__crt_stdio_output@@IEAAAEAPEADD@Z 00000001800454a0 f i libucrtd:output.obj
 0001:000444c0       ?tchar_string@?$common_data@D@__crt_stdio_output@@IEAAAEAPEADXZ 00000001800454c0 f i libucrtd:output.obj
 0001:000444e0       ?tchar_string@?$common_data@_W@__crt_stdio_output@@IEAAAEAPEA_WXZ 00000001800454e0 f i libucrtd:output.obj
 0001:00044500       ?tchar_string@?$common_data@_W@__crt_stdio_output@@IEAAAEAPEA_W_W@Z 0000000180045500 f i libucrtd:output.obj
 0001:00044520       ?to_integer_size@__crt_stdio_output@@YA_KW4length_modifier@1@@Z 0000000180045520 f i libucrtd:output.obj
 0001:000445d0       ?type_case_X@?$output_processor@DV?$string_output_adapter@D@__crt_stdio_output@@V?$format_validation_base@DV?$string_output_adapter@D@__crt_stdio_output@@@2@@__crt_stdio_output@@AEAA_NXZ 00000001800455d0 f i libucrtd:output.obj
 0001:000445f0       ?type_case_X@?$output_processor@_WV?$stream_output_adapter@_W@__crt_stdio_output@@V?$standard_base@_WV?$stream_output_adapter@_W@__crt_stdio_output@@@2@@__crt_stdio_output@@AEAA_NXZ 00000001800455f0 f i libucrtd:output.obj
 0001:00044610       ?type_case_X@?$output_processor@_WV?$string_output_adapter@_W@__crt_stdio_output@@V?$format_validation_base@_WV?$string_output_adapter@_W@__crt_stdio_output@@@2@@__crt_stdio_output@@AEAA_NXZ 0000000180045610 f i libucrtd:output.obj
 0001:00044630       ?type_case_X@?$output_processor@_WV?$string_output_adapter@_W@__crt_stdio_output@@V?$standard_base@_WV?$string_output_adapter@_W@__crt_stdio_output@@@2@@__crt_stdio_output@@AEAA_NXZ 0000000180045630 f i libucrtd:output.obj
 0001:00044650       ?type_case_Z@?$output_processor@DV?$string_output_adapter@D@__crt_stdio_output@@V?$format_validation_base@DV?$string_output_adapter@D@__crt_stdio_output@@@2@@__crt_stdio_output@@AEAA_NXZ 0000000180045650 f i libucrtd:output.obj
 0001:00044770       ?type_case_Z@?$output_processor@_WV?$string_output_adapter@_W@__crt_stdio_output@@V?$format_validation_base@_WV?$string_output_adapter@_W@__crt_stdio_output@@@2@@__crt_stdio_output@@AEAA_NXZ 0000000180045770 f i libucrtd:output.obj
 0001:00044770       ?type_case_Z@?$output_processor@_WV?$string_output_adapter@_W@__crt_stdio_output@@V?$standard_base@_WV?$string_output_adapter@_W@__crt_stdio_output@@@2@@__crt_stdio_output@@AEAA_NXZ 0000000180045770 f i libucrtd:output.obj
 0001:00044770       ?type_case_Z@?$output_processor@_WV?$stream_output_adapter@_W@__crt_stdio_output@@V?$standard_base@_WV?$stream_output_adapter@_W@__crt_stdio_output@@@2@@__crt_stdio_output@@AEAA_NXZ 0000000180045770 f i libucrtd:output.obj
 0001:00044890       ?type_case_a@?$output_processor@DV?$string_output_adapter@D@__crt_stdio_output@@V?$format_validation_base@DV?$string_output_adapter@D@__crt_stdio_output@@@2@@__crt_stdio_output@@AEAA_NXZ 0000000180045890 f i libucrtd:output.obj
 0001:00044c60       ?type_case_a@?$output_processor@_WV?$stream_output_adapter@_W@__crt_stdio_output@@V?$standard_base@_WV?$stream_output_adapter@_W@__crt_stdio_output@@@2@@__crt_stdio_output@@AEAA_NXZ 0000000180045c60 f i libucrtd:output.obj
 0001:00044c60       ?type_case_a@?$output_processor@_WV?$string_output_adapter@_W@__crt_stdio_output@@V?$standard_base@_WV?$string_output_adapter@_W@__crt_stdio_output@@@2@@__crt_stdio_output@@AEAA_NXZ 0000000180045c60 f i libucrtd:output.obj
 0001:00044c60       ?type_case_a@?$output_processor@_WV?$string_output_adapter@_W@__crt_stdio_output@@V?$format_validation_base@_WV?$string_output_adapter@_W@__crt_stdio_output@@@2@@__crt_stdio_output@@AEAA_NXZ 0000000180045c60 f i libucrtd:output.obj
 0001:00045030       ?type_case_c@?$output_processor@DV?$string_output_adapter@D@__crt_stdio_output@@V?$format_validation_base@DV?$string_output_adapter@D@__crt_stdio_output@@@2@@__crt_stdio_output@@AEAA_NXZ 0000000180046030 f i libucrtd:output.obj
 0001:00045050       ?type_case_c@?$output_processor@_WV?$stream_output_adapter@_W@__crt_stdio_output@@V?$standard_base@_WV?$stream_output_adapter@_W@__crt_stdio_output@@@2@@__crt_stdio_output@@AEAA_NXZ 0000000180046050 f i libucrtd:output.obj
 0001:00045050       ?type_case_c@?$output_processor@_WV?$string_output_adapter@_W@__crt_stdio_output@@V?$format_validation_base@_WV?$string_output_adapter@_W@__crt_stdio_output@@@2@@__crt_stdio_output@@AEAA_NXZ 0000000180046050 f i libucrtd:output.obj
 0001:00045050       ?type_case_c@?$output_processor@_WV?$string_output_adapter@_W@__crt_stdio_output@@V?$standard_base@_WV?$string_output_adapter@_W@__crt_stdio_output@@@2@@__crt_stdio_output@@AEAA_NXZ 0000000180046050 f i libucrtd:output.obj
 0001:00045070       ?type_case_c_tchar@?$output_processor@DV?$string_output_adapter@D@__crt_stdio_output@@V?$format_validation_base@DV?$string_output_adapter@D@__crt_stdio_output@@@2@@__crt_stdio_output@@AEAA_ND@Z 0000000180046070 f i libucrtd:output.obj
 0001:000451d0       ?type_case_c_tchar@?$output_processor@_WV?$string_output_adapter@_W@__crt_stdio_output@@V?$format_validation_base@_WV?$string_output_adapter@_W@__crt_stdio_output@@@2@@__crt_stdio_output@@AEAA_N_W@Z 00000001800461d0 f i libucrtd:output.obj
 0001:000451d0       ?type_case_c_tchar@?$output_processor@_WV?$stream_output_adapter@_W@__crt_stdio_output@@V?$standard_base@_WV?$stream_output_adapter@_W@__crt_stdio_output@@@2@@__crt_stdio_output@@AEAA_N_W@Z 00000001800461d0 f i libucrtd:output.obj
 0001:000451d0       ?type_case_c_tchar@?$output_processor@_WV?$string_output_adapter@_W@__crt_stdio_output@@V?$standard_base@_WV?$string_output_adapter@_W@__crt_stdio_output@@@2@@__crt_stdio_output@@AEAA_N_W@Z 00000001800461d0 f i libucrtd:output.obj
 0001:00045300       ?type_case_d@?$output_processor@DV?$string_output_adapter@D@__crt_stdio_output@@V?$format_validation_base@DV?$string_output_adapter@D@__crt_stdio_output@@@2@@__crt_stdio_output@@AEAA_NXZ 0000000180046300 f i libucrtd:output.obj
 0001:00045330       ?type_case_d@?$output_processor@_WV?$stream_output_adapter@_W@__crt_stdio_output@@V?$standard_base@_WV?$stream_output_adapter@_W@__crt_stdio_output@@@2@@__crt_stdio_output@@AEAA_NXZ 0000000180046330 f i libucrtd:output.obj
 0001:00045360       ?type_case_d@?$output_processor@_WV?$string_output_adapter@_W@__crt_stdio_output@@V?$format_validation_base@_WV?$string_output_adapter@_W@__crt_stdio_output@@@2@@__crt_stdio_output@@AEAA_NXZ 0000000180046360 f i libucrtd:output.obj
 0001:00045390       ?type_case_d@?$output_processor@_WV?$string_output_adapter@_W@__crt_stdio_output@@V?$standard_base@_WV?$string_output_adapter@_W@__crt_stdio_output@@@2@@__crt_stdio_output@@AEAA_NXZ 0000000180046390 f i libucrtd:output.obj
 0001:000453c0       ?type_case_integer@?$output_processor@DV?$string_output_adapter@D@__crt_stdio_output@@V?$format_validation_base@DV?$string_output_adapter@D@__crt_stdio_output@@@2@@__crt_stdio_output@@AEAA_NI_N@Z 00000001800463c0 f i libucrtd:output.obj
 0001:00045810       ?type_case_integer@?$output_processor@_WV?$stream_output_adapter@_W@__crt_stdio_output@@V?$standard_base@_WV?$stream_output_adapter@_W@__crt_stdio_output@@@2@@__crt_stdio_output@@AEAA_NI_N@Z 0000000180046810 f i libucrtd:output.obj
 0001:00045c60       ?type_case_integer@?$output_processor@_WV?$string_output_adapter@_W@__crt_stdio_output@@V?$format_validation_base@_WV?$string_output_adapter@_W@__crt_stdio_output@@@2@@__crt_stdio_output@@AEAA_NI_N@Z 0000000180046c60 f i libucrtd:output.obj
 0001:000460b0       ?type_case_integer@?$output_processor@_WV?$string_output_adapter@_W@__crt_stdio_output@@V?$standard_base@_WV?$string_output_adapter@_W@__crt_stdio_output@@@2@@__crt_stdio_output@@AEAA_NI_N@Z 00000001800470b0 f i libucrtd:output.obj
 0001:00046500       ?type_case_n@?$output_processor@DV?$string_output_adapter@D@__crt_stdio_output@@V?$format_validation_base@DV?$string_output_adapter@D@__crt_stdio_output@@@2@@__crt_stdio_output@@AEAA_NXZ 0000000180047500 f i libucrtd:output.obj
 0001:00046740       ?type_case_n@?$output_processor@_WV?$stream_output_adapter@_W@__crt_stdio_output@@V?$standard_base@_WV?$stream_output_adapter@_W@__crt_stdio_output@@@2@@__crt_stdio_output@@AEAA_NXZ 0000000180047740 f i libucrtd:output.obj
 0001:00046980       ?type_case_n@?$output_processor@_WV?$string_output_adapter@_W@__crt_stdio_output@@V?$format_validation_base@_WV?$string_output_adapter@_W@__crt_stdio_output@@@2@@__crt_stdio_output@@AEAA_NXZ 0000000180047980 f i libucrtd:output.obj
 0001:00046bc0       ?type_case_n@?$output_processor@_WV?$string_output_adapter@_W@__crt_stdio_output@@V?$standard_base@_WV?$string_output_adapter@_W@__crt_stdio_output@@@2@@__crt_stdio_output@@AEAA_NXZ 0000000180047bc0 f i libucrtd:output.obj
 0001:00046e00       ?type_case_o@?$output_processor@DV?$string_output_adapter@D@__crt_stdio_output@@V?$format_validation_base@DV?$string_output_adapter@D@__crt_stdio_output@@@2@@__crt_stdio_output@@AEAA_NXZ 0000000180047e00 f i libucrtd:output.obj
 0001:00046e50       ?type_case_o@?$output_processor@_WV?$stream_output_adapter@_W@__crt_stdio_output@@V?$standard_base@_WV?$stream_output_adapter@_W@__crt_stdio_output@@@2@@__crt_stdio_output@@AEAA_NXZ 0000000180047e50 f i libucrtd:output.obj
 0001:00046ea0       ?type_case_o@?$output_processor@_WV?$string_output_adapter@_W@__crt_stdio_output@@V?$format_validation_base@_WV?$string_output_adapter@_W@__crt_stdio_output@@@2@@__crt_stdio_output@@AEAA_NXZ 0000000180047ea0 f i libucrtd:output.obj
 0001:00046ef0       ?type_case_o@?$output_processor@_WV?$string_output_adapter@_W@__crt_stdio_output@@V?$standard_base@_WV?$string_output_adapter@_W@__crt_stdio_output@@@2@@__crt_stdio_output@@AEAA_NXZ 0000000180047ef0 f i libucrtd:output.obj
 0001:00046f40       ?type_case_p@?$output_processor@DV?$string_output_adapter@D@__crt_stdio_output@@V?$format_validation_base@DV?$string_output_adapter@D@__crt_stdio_output@@@2@@__crt_stdio_output@@AEAA_NXZ 0000000180047f40 f i libucrtd:output.obj
 0001:00046f80       ?type_case_p@?$output_processor@_WV?$stream_output_adapter@_W@__crt_stdio_output@@V?$standard_base@_WV?$stream_output_adapter@_W@__crt_stdio_output@@@2@@__crt_stdio_output@@AEAA_NXZ 0000000180047f80 f i libucrtd:output.obj
 0001:00046fc0       ?type_case_p@?$output_processor@_WV?$string_output_adapter@_W@__crt_stdio_output@@V?$format_validation_base@_WV?$string_output_adapter@_W@__crt_stdio_output@@@2@@__crt_stdio_output@@AEAA_NXZ 0000000180047fc0 f i libucrtd:output.obj
 0001:00047000       ?type_case_p@?$output_processor@_WV?$string_output_adapter@_W@__crt_stdio_output@@V?$standard_base@_WV?$string_output_adapter@_W@__crt_stdio_output@@@2@@__crt_stdio_output@@AEAA_NXZ 0000000180048000 f i libucrtd:output.obj
 0001:00047040       ?type_case_s@?$output_processor@DV?$string_output_adapter@D@__crt_stdio_output@@V?$format_validation_base@DV?$string_output_adapter@D@__crt_stdio_output@@@2@@__crt_stdio_output@@AEAA_NXZ 0000000180048040 f i libucrtd:output.obj
 0001:00047160       ?type_case_s@?$output_processor@_WV?$string_output_adapter@_W@__crt_stdio_output@@V?$format_validation_base@_WV?$string_output_adapter@_W@__crt_stdio_output@@@2@@__crt_stdio_output@@AEAA_NXZ 0000000180048160 f i libucrtd:output.obj
 0001:00047160       ?type_case_s@?$output_processor@_WV?$string_output_adapter@_W@__crt_stdio_output@@V?$standard_base@_WV?$string_output_adapter@_W@__crt_stdio_output@@@2@@__crt_stdio_output@@AEAA_NXZ 0000000180048160 f i libucrtd:output.obj
 0001:00047160       ?type_case_s@?$output_processor@_WV?$stream_output_adapter@_W@__crt_stdio_output@@V?$standard_base@_WV?$stream_output_adapter@_W@__crt_stdio_output@@@2@@__crt_stdio_output@@AEAA_NXZ 0000000180048160 f i libucrtd:output.obj
 0001:00047280       ?type_case_s_compute_narrow_string_length@?$output_processor@DV?$string_output_adapter@D@__crt_stdio_output@@V?$format_validation_base@DV?$string_output_adapter@D@__crt_stdio_output@@@2@@__crt_stdio_output@@AEBAHHD@Z 0000000180048280 f i libucrtd:output.obj
 0001:000472b0       ?type_case_s_compute_narrow_string_length@?$output_processor@_WV?$string_output_adapter@_W@__crt_stdio_output@@V?$standard_base@_WV?$string_output_adapter@_W@__crt_stdio_output@@@2@@__crt_stdio_output@@AEBAHH_W@Z 00000001800482b0 f i libucrtd:output.obj
 0001:000472b0       ?type_case_s_compute_narrow_string_length@?$output_processor@_WV?$stream_output_adapter@_W@__crt_stdio_output@@V?$standard_base@_WV?$stream_output_adapter@_W@__crt_stdio_output@@@2@@__crt_stdio_output@@AEBAHH_W@Z 00000001800482b0 f i libucrtd:output.obj
 0001:000472b0       ?type_case_s_compute_narrow_string_length@?$output_processor@_WV?$string_output_adapter@_W@__crt_stdio_output@@V?$format_validation_base@_WV?$string_output_adapter@_W@__crt_stdio_output@@@2@@__crt_stdio_output@@AEBAHH_W@Z 00000001800482b0 f i libucrtd:output.obj
 0001:00047340       ?type_case_u@?$output_processor@DV?$string_output_adapter@D@__crt_stdio_output@@V?$format_validation_base@DV?$string_output_adapter@D@__crt_stdio_output@@@2@@__crt_stdio_output@@AEAA_NXZ 0000000180048340 f i libucrtd:output.obj
 0001:00047360       ?type_case_u@?$output_processor@_WV?$stream_output_adapter@_W@__crt_stdio_output@@V?$standard_base@_WV?$stream_output_adapter@_W@__crt_stdio_output@@@2@@__crt_stdio_output@@AEAA_NXZ 0000000180048360 f i libucrtd:output.obj
 0001:00047380       ?type_case_u@?$output_processor@_WV?$string_output_adapter@_W@__crt_stdio_output@@V?$format_validation_base@_WV?$string_output_adapter@_W@__crt_stdio_output@@@2@@__crt_stdio_output@@AEAA_NXZ 0000000180048380 f i libucrtd:output.obj
 0001:000473a0       ?type_case_u@?$output_processor@_WV?$string_output_adapter@_W@__crt_stdio_output@@V?$standard_base@_WV?$string_output_adapter@_W@__crt_stdio_output@@@2@@__crt_stdio_output@@AEAA_NXZ 00000001800483a0 f i libucrtd:output.obj
 0001:000473c0       ?type_case_x@?$output_processor@DV?$string_output_adapter@D@__crt_stdio_output@@V?$format_validation_base@DV?$string_output_adapter@D@__crt_stdio_output@@@2@@__crt_stdio_output@@AEAA_NXZ 00000001800483c0 f i libucrtd:output.obj
 0001:000473e0       ?type_case_x@?$output_processor@_WV?$stream_output_adapter@_W@__crt_stdio_output@@V?$standard_base@_WV?$stream_output_adapter@_W@__crt_stdio_output@@@2@@__crt_stdio_output@@AEAA_NXZ 00000001800483e0 f i libucrtd:output.obj
 0001:00047400       ?type_case_x@?$output_processor@_WV?$string_output_adapter@_W@__crt_stdio_output@@V?$format_validation_base@_WV?$string_output_adapter@_W@__crt_stdio_output@@@2@@__crt_stdio_output@@AEAA_NXZ 0000000180048400 f i libucrtd:output.obj
 0001:00047420       ?type_case_x@?$output_processor@_WV?$string_output_adapter@_W@__crt_stdio_output@@V?$standard_base@_WV?$string_output_adapter@_W@__crt_stdio_output@@@2@@__crt_stdio_output@@AEAA_NXZ 0000000180048420 f i libucrtd:output.obj
 0001:00047440       ?unset_flag@?$output_processor@_WV?$stream_output_adapter@_W@__crt_stdio_output@@V?$standard_base@_WV?$stream_output_adapter@_W@__crt_stdio_output@@@2@@__crt_stdio_output@@AEAAXI@Z 0000000180048440 f i libucrtd:output.obj
 0001:00047440       ?unset_flag@?$output_processor@_WV?$string_output_adapter@_W@__crt_stdio_output@@V?$format_validation_base@_WV?$string_output_adapter@_W@__crt_stdio_output@@@2@@__crt_stdio_output@@AEAAXI@Z 0000000180048440 f i libucrtd:output.obj
 0001:00047440       ?unset_flag@?$output_processor@_WV?$string_output_adapter@_W@__crt_stdio_output@@V?$standard_base@_WV?$string_output_adapter@_W@__crt_stdio_output@@@2@@__crt_stdio_output@@AEAAXI@Z 0000000180048440 f i libucrtd:output.obj
 0001:00047440       ?unset_flag@?$output_processor@DV?$string_output_adapter@D@__crt_stdio_output@@V?$format_validation_base@DV?$string_output_adapter@D@__crt_stdio_output@@@2@@__crt_stdio_output@@AEAAXI@Z 0000000180048440 f i libucrtd:output.obj
 0001:00047470       ?update_field_width@?$standard_base@_WV?$stream_output_adapter@_W@__crt_stdio_output@@@__crt_stdio_output@@IEAA_NXZ 0000000180048470 f i libucrtd:output.obj
 0001:00047470       ?update_field_width@?$standard_base@_WV?$string_output_adapter@_W@__crt_stdio_output@@@__crt_stdio_output@@IEAA_NXZ 0000000180048470 f i libucrtd:output.obj
 0001:00047470       ?update_field_width@?$standard_base@DV?$string_output_adapter@D@__crt_stdio_output@@@__crt_stdio_output@@IEAA_NXZ 0000000180048470 f i libucrtd:output.obj
 0001:000474a0       ?update_precision@?$standard_base@_WV?$stream_output_adapter@_W@__crt_stdio_output@@@__crt_stdio_output@@IEAA_NXZ 00000001800484a0 f i libucrtd:output.obj
 0001:000474a0       ?update_precision@?$standard_base@DV?$string_output_adapter@D@__crt_stdio_output@@@__crt_stdio_output@@IEAA_NXZ 00000001800484a0 f i libucrtd:output.obj
 0001:000474a0       ?update_precision@?$standard_base@_WV?$string_output_adapter@_W@__crt_stdio_output@@@__crt_stdio_output@@IEAA_NXZ 00000001800484a0 f i libucrtd:output.obj
 0001:000474d0       ?validate@?$stream_output_adapter@_W@__crt_stdio_output@@QEBA_NXZ 00000001800484d0 f i libucrtd:output.obj
 0001:000475b0       ?validate@?$string_output_adapter@D@__crt_stdio_output@@QEBA_NXZ 00000001800485b0 f i libucrtd:output.obj
 0001:00047670       ?validate@?$string_output_adapter@_W@__crt_stdio_output@@QEBA_NXZ 0000000180048670 f i libucrtd:output.obj
 0001:00047730       ?validate_and_update_state_at_end_of_format_string@?$format_validation_base@DV?$string_output_adapter@D@__crt_stdio_output@@@__crt_stdio_output@@IEBA_NXZ 0000000180048730 f i libucrtd:output.obj
 0001:000477f0       ?validate_and_update_state_at_end_of_format_string@?$format_validation_base@_WV?$string_output_adapter@_W@__crt_stdio_output@@@__crt_stdio_output@@IEBA_NXZ 00000001800487f0 f i libucrtd:output.obj
 0001:000478b0       ?wide_null_string@?$output_processor@DV?$string_output_adapter@D@__crt_stdio_output@@V?$format_validation_base@DV?$string_output_adapter@D@__crt_stdio_output@@@2@@__crt_stdio_output@@CAPEA_WXZ 00000001800488b0 f i libucrtd:output.obj
 0001:000478b0       ?wide_null_string@?$output_processor@_WV?$string_output_adapter@_W@__crt_stdio_output@@V?$format_validation_base@_WV?$string_output_adapter@_W@__crt_stdio_output@@@2@@__crt_stdio_output@@CAPEA_WXZ 00000001800488b0 f i libucrtd:output.obj
 0001:000478b0       ?wide_null_string@?$output_processor@_WV?$stream_output_adapter@_W@__crt_stdio_output@@V?$standard_base@_WV?$stream_output_adapter@_W@__crt_stdio_output@@@2@@__crt_stdio_output@@CAPEA_WXZ 00000001800488b0 f i libucrtd:output.obj
 0001:000478b0       ?wide_null_string@?$output_processor@_WV?$string_output_adapter@_W@__crt_stdio_output@@V?$standard_base@_WV?$string_output_adapter@_W@__crt_stdio_output@@@2@@__crt_stdio_output@@CAPEA_WXZ 00000001800488b0 f i libucrtd:output.obj
 0001:000478c0       ?write_character@?$output_adapter_common@_WV?$stream_output_adapter@_W@__crt_stdio_output@@@__crt_stdio_output@@QEBAX_WQEAH@Z 00000001800488c0 f i libucrtd:output.obj
 0001:00047910       ?write_character@?$string_output_adapter@D@__crt_stdio_output@@QEBA_NDQEAH@Z 0000000180048910 f i libucrtd:output.obj
 0001:000479d0       ?write_character@?$string_output_adapter@_W@__crt_stdio_output@@QEBA_N_WQEAH@Z 00000001800489d0 f i libucrtd:output.obj
 0001:00047a90       ?write_character_without_count_update@?$stream_output_adapter@_W@__crt_stdio_output@@QEBA_N_W@Z 0000000180048a90 f i libucrtd:output.obj
 0001:00047b20       ?write_stored_string_tchar@?$output_processor@DV?$string_output_adapter@D@__crt_stdio_output@@V?$format_validation_base@DV?$string_output_adapter@D@__crt_stdio_output@@@2@@__crt_stdio_output@@AEAA_ND@Z 0000000180048b20 f i libucrtd:output.obj
 0001:00047ce0       ?write_stored_string_tchar@?$output_processor@_WV?$stream_output_adapter@_W@__crt_stdio_output@@V?$standard_base@_WV?$stream_output_adapter@_W@__crt_stdio_output@@@2@@__crt_stdio_output@@AEAA_N_W@Z 0000000180048ce0 f i libucrtd:output.obj
 0001:00047e30       ?write_stored_string_tchar@?$output_processor@_WV?$string_output_adapter@_W@__crt_stdio_output@@V?$format_validation_base@_WV?$string_output_adapter@_W@__crt_stdio_output@@@2@@__crt_stdio_output@@AEAA_N_W@Z 0000000180048e30 f i libucrtd:output.obj
 0001:00047e30       ?write_stored_string_tchar@?$output_processor@_WV?$string_output_adapter@_W@__crt_stdio_output@@V?$standard_base@_WV?$string_output_adapter@_W@__crt_stdio_output@@@2@@__crt_stdio_output@@AEAA_N_W@Z 0000000180048e30 f i libucrtd:output.obj
 0001:00047f80       ?write_string@?$stream_output_adapter@_W@__crt_stdio_output@@QEBAXQEB_WHQEAHAEAV__crt_deferred_errno_cache@@@Z 0000000180048f80 f i libucrtd:output.obj
 0001:00048000       ?write_string@?$string_output_adapter@D@__crt_stdio_output@@QEBAXQEBDHQEAHAEAV__crt_deferred_errno_cache@@@Z 0000000180049000 f i libucrtd:output.obj
 0001:00048170       ?write_string@?$string_output_adapter@_W@__crt_stdio_output@@QEBAXQEB_WHQEAHAEAV__crt_deferred_errno_cache@@@Z 0000000180049170 f i libucrtd:output.obj
 0001:000482e0       ?write_string_impl@?$output_adapter_common@_WV?$stream_output_adapter@_W@__crt_stdio_output@@@__crt_stdio_output@@IEBAXQEB_WHQEAHAEAV__crt_deferred_errno_cache@@@Z 00000001800492e0 f i libucrtd:output.obj
 0001:000483c0       __acrt_isleadbyte_l_noupdate 00000001800493c0 f i libucrtd:output.obj
 0001:000483f0       __acrt_locale_get_ctype_array_value 00000001800493f0 f i libucrtd:output.obj
 0001:00048430       __stdio_common_vfwprintf   0000000180049430 f   libucrtd:output.obj
 0001:00048470       __stdio_common_vsnprintf_s 0000000180049470 f   libucrtd:output.obj
 0001:000484d0       __stdio_common_vsnwprintf_s 00000001800494d0 f   libucrtd:output.obj
 0001:00048530       __stdio_common_vsprintf_s  0000000180049530 f   libucrtd:output.obj
 0001:00048580       __stdio_common_vswprintf   0000000180049580 f   libucrtd:output.obj
 0001:000485d0       _ctype_fast_check_internal 00000001800495d0 f i libucrtd:output.obj
 0001:00048600       _isdigit_fast_internal     0000000180049600 f i libucrtd:output.obj
 0001:00048630       _tolower_fast_internal     0000000180049630 f i libucrtd:output.obj
 0001:00048660       abort                      0000000180049660 f   libucrtd:abort.obj
 0001:000494c0       _CrtDbgReport              000000018004a4c0 f   libucrtd:dbgrpt.obj
 0001:00049540       _CrtDbgReportW             000000018004a540 f   libucrtd:dbgrpt.obj
 0001:000495c0       __acrt_MessageWindowA      000000018004a5c0 f   libucrtd:dbgrpt.obj
 0001:00049610       __acrt_MessageWindowW      000000018004a610 f   libucrtd:dbgrpt.obj
 0001:00049660       _snwprintf_s               000000018004a660 f i libucrtd:dbgrpt.obj
 0001:000496d0       _vsnwprintf_s_l            000000018004a6d0 f i libucrtd:dbgrpt.obj
 0001:00049750       wcsncmp                    000000018004a750 f   libucrtd:wcsncmp.obj
 0001:000497e0       ??$initialize_from_array@$$BY00Q6AXPEB_W00I_K@Z@?$dual_state_global@P6AXPEB_W00I_K@Z@__crt_state_management@@QEAAXAEAY00Q6AXPEB_W00I_K@Z@Z 000000018004a7e0 f i libucrtd:invalid_parameter.obj
 0001:00049840       ?value@?$dual_state_global@PEAU__crt_multibyte_data@@@__crt_state_management@@QEAAAEAPEAU__crt_multibyte_data@@XZ 000000018004a840 f i libucrtd:locale_update.obj
 0001:00049840       ?value@?$dual_state_global@PEAU__crt_locale_data@@@__crt_state_management@@QEAAAEAPEAU__crt_locale_data@@XZ 000000018004a840 f i libucrtd:per_thread_data.obj
 0001:00049840       ?value@?$dual_state_global@P6AXH@Z@__crt_state_management@@QEAAAEAP6AXH@ZXZ 000000018004a840 f i libucrtd:signal.obj
 0001:00049840       ?value@?$dual_state_global@PEAE@__crt_state_management@@QEAAAEAPEAEXZ 000000018004a840 f i libucrtd:mbctype.obj
 0001:00049840       ?value@?$dual_state_global@P6AXPEB_W00I_K@Z@__crt_state_management@@QEAAAEAP6AXPEB_W00I_K@ZXZ 000000018004a840 f i libucrtd:invalid_parameter.obj
 0001:00049840       ?value@?$dual_state_global@P6AHPEAU_exception@@@Z@__crt_state_management@@QEAAAEAP6AHPEAU_exception@@@ZXZ 000000018004a840 f i libucrtd:matherr.obj
 0001:00049840       ?value@?$dual_state_global@P6AH_K@Z@__crt_state_management@@QEAAAEAP6AH_K@ZXZ 000000018004a840 f i libucrtd:new_handler.obj
 0001:00049860       __acrt_call_reportfault    000000018004a860 f   libucrtd:invalid_parameter.obj
 0001:00049990       __acrt_initialize_invalid_parameter_handler 000000018004a990 f   libucrtd:invalid_parameter.obj
 0001:000499c0       _invalid_parameter         000000018004a9c0 f   libucrtd:invalid_parameter.obj
 0001:00049ac0       _invalid_parameter_noinfo  000000018004aac0 f   libucrtd:invalid_parameter.obj
 0001:00049af0       _invoke_watson             000000018004aaf0 f   libucrtd:invalid_parameter.obj
 0001:00049b50       iswctype                   000000018004ab50 f   libucrtd:iswctype.obj
 0001:00049be0       _chvalidator_l             000000018004abe0 f   libucrtd:isctype.obj
 0001:00049c90       _isctype_l                 000000018004ac90 f   libucrtd:isctype.obj
 0001:00049ec0       _isleadbyte_fast_internal  000000018004aec0 f i libucrtd:isctype.obj
 0001:00049ef0       __acrt_errno_from_os_error 000000018004aef0 f   libucrtd:errno.obj
 0001:00049f80       __acrt_errno_map_os_error  000000018004af80 f   libucrtd:errno.obj
 0001:00049fb0       __doserrno                 000000018004afb0 f   libucrtd:errno.obj
 0001:00049fe0       _errno                     000000018004afe0 f   libucrtd:errno.obj
 0001:0004a250       ??0__crt_scoped_get_last_error_reset@@QEAA@XZ 000000018004b250 f i libucrtd:per_thread_data.obj
 0001:0004a270       ??1__crt_scoped_get_last_error_reset@@QEAA@XZ 000000018004b270 f i libucrtd:per_thread_data.obj
 0001:0004a670       ?get_current_state_index@__crt_state_management@@YA_KAEBV__crt_scoped_get_last_error_reset@@@Z 000000018004b670 f i libucrtd:per_thread_data.obj
 0001:0004a920       __acrt_freeptd             000000018004b920 f   libucrtd:per_thread_data.obj
 0001:0004a960       __acrt_getptd              000000018004b960 f   libucrtd:per_thread_data.obj
 0001:0004a990       __acrt_getptd_head         000000018004b990 f   libucrtd:per_thread_data.obj
 0001:0004a9c0       __acrt_getptd_noexit       000000018004b9c0 f   libucrtd:per_thread_data.obj
 0001:0004a9d0       __acrt_initialize_ptd      000000018004b9d0 f   libucrtd:per_thread_data.obj
 0001:0004aa10       __acrt_uninitialize_ptd    000000018004ba10 f   libucrtd:per_thread_data.obj
 0001:0004aa40       __acrt_should_sync_with_global_locale 000000018004ba40 f i libucrtd:locale_update.obj
 0001:0004aa80       __acrt_update_locale_info  000000018004ba80 f   libucrtd:locale_update.obj
 0001:0004aad0       __acrt_update_multibyte_info 000000018004bad0 f   libucrtd:locale_update.obj
 0001:0004ac80       __acrt_set_locale_changed  000000018004bc80 f   libucrtd:wsetlocale.obj
 0001:0004ac90       __acrt_uninitialize_locale 000000018004bc90 f   libucrtd:wsetlocale.obj
 0001:0004acc0       __ascii_tolower            000000018004bcc0 f i libucrtd:wsetlocale.obj
 0001:0004ace0       __ascii_towlower           000000018004bce0 f i libucrtd:wsetlocale.obj
 0001:0004ad00       _copysign                  000000018004bd00 f   libucrtd:_copysign.obj
 0001:0004ad90       _decomp                    000000018004bd90 f   libucrtd:util.obj
 0001:0004aee0       _set_exp                   000000018004bee0 f   libucrtd:util.obj
 0001:0004af30       _sptype                    000000018004bf30 f   libucrtd:util.obj
 0001:0004afb0       _errcode                   000000018004bfb0 f   libucrtd:fpexcept.obj
 0001:0004b030       _except2                   000000018004c030 f   libucrtd:fpexcept.obj
 0001:0004b1f0       _handle_exc                000000018004c1f0 f   libucrtd:fpexcept.obj
 0001:0004b650       _handle_qnan2              000000018004c650 f   libucrtd:fpexcept.obj
 0001:0004b680       _raise_exc                 000000018004c680 f   libucrtd:fpexcept.obj
 0001:0004b6e0       _raise_exc_ex              000000018004c6e0 f   libucrtd:fpexcept.obj
 0001:0004bd60       _raise_excf                000000018004cd60 f   libucrtd:fpexcept.obj
 0001:0004bdc0       _set_errno_from_matherr    000000018004cdc0 f   libucrtd:fpexcept.obj
 0001:0004be10       _umatherr                  000000018004ce10 f   libucrtd:fpexcept.obj
 0001:0004bee0       _clrfp                     000000018004cee0 f   libucrtd:fpctrl.obj
 0001:0004bf10       _ctrlfp                    000000018004cf10 f   libucrtd:fpctrl.obj
 0001:0004bfc0       _set_statfp                000000018004cfc0 f   libucrtd:fpctrl.obj
 0001:0004c000       _statfp                    000000018004d000 f   libucrtd:fpctrl.obj
 0001:0004c030       __acrt_initialize_stdio    000000018004d030 f   libucrtd:_file.obj
 0001:0004c220       __acrt_iob_func            000000018004d220 f   libucrtd:_file.obj
 0001:0004c240       __acrt_uninitialize_stdio  000000018004d240 f   libucrtd:_file.obj
 0001:0004c2d0       _lock_file                 000000018004d2d0 f   libucrtd:_file.obj
 0001:0004c310       _unlock_file               000000018004d310 f   libucrtd:_file.obj
 0001:0004c350       ?__acrt_stdio_allocate_stream@@YA?AV__crt_stdio_stream@@XZ 000000018004d350 f   libucrtd:stream.obj
 0001:0004c410       ?__acrt_stdio_free_stream@@YAXV__crt_stdio_stream@@@Z 000000018004d410 f   libucrtd:stream.obj
 0001:0004c4b0       ?deallocate@__crt_stdio_stream@@QEAAXXZ 000000018004d4b0 f i libucrtd:stream.obj
 0001:0004c680       ?lock@__crt_stdio_stream@@QEBAXXZ 000000018004d680 f i libucrtd:stream.obj
 0001:0004c6a0       ?try_allocate@__crt_stdio_stream@@QEAA_NXZ 000000018004d6a0 f i libucrtd:stream.obj
 0001:0004c710       ??$__acrt_stdio_parse_mode@D@@YA?AU__acrt_stdio_stream_mode@@QEBD@Z 000000018004d710 f i libucrtd:openfile.obj
 0001:0004d460       ??$tcsncmp@AEAPEBDAEAY02$$CBD_K@?$__crt_char_traits@D@@SAHAEAPEBDAEAY02$$CBD$$QEA_K@Z 000000018004e460 f i libucrtd:openfile.obj
 0001:0004d4a0       ??$tcsnicmp@AEAPEBDAEAY04$$CBD_K@?$__crt_char_traits@D@@SAHAEAPEBDAEAY04$$CBD$$QEA_K@Z 000000018004e4a0 f i libucrtd:openfile.obj
 0001:0004d4a0       ??$tcsnicmp@AEAPEBDAEAY06$$CBD_K@?$__crt_char_traits@D@@SAHAEAPEBDAEAY06$$CBD$$QEA_K@Z 000000018004e4a0 f i libucrtd:openfile.obj
 0001:0004d4a0       ??$tcsnicmp@AEAPEBDAEAY07$$CBD_K@?$__crt_char_traits@D@@SAHAEAPEBDAEAY07$$CBD$$QEA_K@Z 000000018004e4a0 f i libucrtd:openfile.obj
 0001:0004d4e0       ??$tsopen_s@PEAHAEBQEBDAEBHAEBHH@?$__crt_char_traits@D@@SAH$$QEAPEAHAEBQEBDAEBH2$$QEAH@Z 000000018004e4e0 f i libucrtd:openfile.obj
 0001:0004d530       ?__acrt_stdio_parse_mode_D@@YA_NAEAU__acrt_stdio_stream_mode@@@Z 000000018004e530 f i libucrtd:openfile.obj
 0001:0004d560       ?__acrt_stdio_parse_mode_N@@YA_NAEAU__acrt_stdio_stream_mode@@@Z 000000018004e560 f i libucrtd:openfile.obj
 0001:0004d580       ?__acrt_stdio_parse_mode_R@@YA_NAEAU__acrt_stdio_stream_mode@@AEA_N@Z 000000018004e580 f i libucrtd:openfile.obj
 0001:0004d5c0       ?__acrt_stdio_parse_mode_S@@YA_NAEAU__acrt_stdio_stream_mode@@AEA_N@Z 000000018004e5c0 f i libucrtd:openfile.obj
 0001:0004d600       ?__acrt_stdio_parse_mode_T@@YA_NAEAU__acrt_stdio_stream_mode@@@Z 000000018004e600 f i libucrtd:openfile.obj
 0001:0004d630       ?__acrt_stdio_parse_mode_b@@YA_NAEAU__acrt_stdio_stream_mode@@@Z 000000018004e630 f i libucrtd:openfile.obj
 0001:0004d660       ?__acrt_stdio_parse_mode_c@@YA_NAEAU__acrt_stdio_stream_mode@@AEA_N@Z 000000018004e660 f i libucrtd:openfile.obj
 0001:0004d6a0       ?__acrt_stdio_parse_mode_n@@YA_NAEAU__acrt_stdio_stream_mode@@AEA_N@Z 000000018004e6a0 f i libucrtd:openfile.obj
 0001:0004d6e0       ?__acrt_stdio_parse_mode_plus@@YA_NAEAU__acrt_stdio_stream_mode@@AEA_N@Z 000000018004e6e0 f i libucrtd:openfile.obj
 0001:0004d760       ?__acrt_stdio_parse_mode_t@@YA_NAEAU__acrt_stdio_stream_mode@@@Z 000000018004e760 f i libucrtd:openfile.obj
 0001:0004d790       ?__acrt_stdio_parse_mode_x@@YA_NAEAU__acrt_stdio_stream_mode@@@Z 000000018004e790 f i libucrtd:openfile.obj
 0001:0004d7c0       _openfile                  000000018004e7c0 f   libucrtd:openfile.obj
 0001:0004da80       _close                     000000018004ea80 f   libucrtd:close.obj
 0001:0004dc70       _close_nolock              000000018004ec70 f   libucrtd:close.obj
 0001:0004dce0       _fileno                    000000018004ece0 f   libucrtd:fileno.obj
 0001:0004ddc0       __acrt_stdio_free_buffer_nolock 000000018004edc0 f   libucrtd:_freebuf.obj
 0001:0004e400       __acrt_stdio_flush_nolock  000000018004f400 f   libucrtd:fflush.obj
 0001:0004e510       _fflush_nolock             000000018004f510 f   libucrtd:fflush.obj
 0001:0004e5a0       _flushall                  000000018004f5a0 f   libucrtd:fflush.obj
 0001:0004e5b0       fflush                     000000018004f5b0 f   libucrtd:fflush.obj
 0001:0004eae0       __acrt_stdio_refill_and_read_narrow_nolock 000000018004fae0 f   libucrtd:_filbuf.obj
 0001:0004eeb0       __acrt_initialize_lowio    000000018004feb0 f   libucrtd:ioinit.obj
 0001:0004ef00       __acrt_uninitialize_lowio  000000018004ff00 f   libucrtd:ioinit.obj
 0001:0004fd80       _read                      0000000180050d80 f   libucrtd:read.obj
 0001:000500d0       _read_nolock               00000001800510d0 f   libucrtd:read.obj
 0001:00051290       _lseeki64                  0000000180052290 f   libucrtd:lseek.obj
 0001:000512c0       _lseeki64_nolock           00000001800522c0 f   libucrtd:lseek.obj
 0001:000512f0       __acrt_stdio_allocate_buffer_nolock 00000001800522f0 f   libucrtd:_getbuf.obj
 0001:00051640       __acrt_report_runtime_error 0000000180052640 f   libucrtd:report_runtime_error.obj
 0001:000518c0       _query_app_type            00000001800528c0 f   libucrtd:report_runtime_error.obj
 0001:000524c0       _itoa_s                    00000001800534c0 f   libucrtd:xtoa.obj
 0001:00052520       _itow_s                    0000000180053520 f   libucrtd:xtoa.obj
 0001:00052580       _set_error_mode            0000000180053580 f   libucrtd:set_error_mode.obj
 0001:00052d00       wcscat_s                   0000000180053d00 f   libucrtd:wcscat_s.obj
 0001:00053210       wcscpy_s                   0000000180054210 f   libucrtd:wcscpy_s.obj
 0001:000539d0       wcsncat_s                  00000001800549d0 f   libucrtd:wcsncat_s.obj
 0001:00054d70       ??1?$__crt_simd_cleanup_guard@$00@@QEAA@XZ 0000000180055d70 f i libucrtd:strnlen.obj
 0001:00054d80       ?compare_equals@?$__crt_simd_traits@$00E@@SA?AT__m256i@@T2@0@Z 0000000180055d80 f i libucrtd:strnlen.obj
 0001:00054dc0       ?compare_equals@?$__crt_simd_traits@$00G@@SA?AT__m256i@@T2@0@Z 0000000180055dc0 f i libucrtd:strnlen.obj
 0001:00054e00       ?compare_equals@?$__crt_simd_traits@$0A@E@@SA?AT__m128i@@T2@0@Z 0000000180055e00 f i libucrtd:strnlen.obj
 0001:00054e30       ?compare_equals@?$__crt_simd_traits@$0A@G@@SA?AT__m128i@@T2@0@Z 0000000180055e30 f i libucrtd:strnlen.obj
 0001:00054e60       ?compute_byte_mask@?$__crt_simd_pack_traits@$00@@SAHT__m256i@@@Z 0000000180055e60 f i libucrtd:strnlen.obj
 0001:00054e80       ?compute_byte_mask@?$__crt_simd_pack_traits@$0A@@@SAHT__m128i@@@Z 0000000180055e80 f i libucrtd:strnlen.obj
 0001:00054ea0       ?get_zero_pack@?$__crt_simd_pack_traits@$00@@SA?AT__m256i@@XZ 0000000180055ea0 f i libucrtd:strnlen.obj
 0001:00054ed0       ?get_zero_pack@?$__crt_simd_pack_traits@$0A@@@SA?AT__m128i@@XZ 0000000180055ed0 f i libucrtd:strnlen.obj
 0001:00054ef0       strnlen                    0000000180055ef0 f   libucrtd:strnlen.obj
 0001:00054f20       wcslen                     0000000180055f20 f   libucrtd:strnlen.obj
 0001:00054f40       wcsnlen                    0000000180055f40 f   libucrtd:strnlen.obj
 0001:000555e0       strcat_s                   00000001800565e0 f   libucrtd:strcat_s.obj
 0001:000557b0       ??$__acrt_wcs_to_mbs_cp@U__crt_win32_buffer_no_resizing@@@@YAHQEB_WAEAV?$__crt_win32_buffer@DU__crt_win32_buffer_no_resizing@@@@I@Z 00000001800567b0 f i libucrtd:getmodulefilenamea.obj
 0001:00055800       ??0?$__crt_win32_buffer@DU__crt_win32_buffer_no_resizing@@@@QEAA@QEAD_K@Z 0000000180056800 f i libucrtd:getmodulefilenamea.obj
 0001:00055870       ??1?$__crt_win32_buffer@DU__crt_win32_buffer_no_resizing@@@@QEAA@XZ 0000000180056870 f i libucrtd:getmodulefilenamea.obj
 0001:00055900       ?__acrt_get_utf8_acp_compatibility_codepage@@YAIXZ 0000000180056900 f i libucrtd:getmodulefilenamea.obj
 0001:000559a0       ?_deallocate@?$__crt_win32_buffer@DU__crt_win32_buffer_no_resizing@@@@AEAAXXZ 00000001800569a0 f i libucrtd:getmodulefilenamea.obj
 0001:000559e0       ?allocate@?$__crt_win32_buffer@DU__crt_win32_buffer_no_resizing@@@@QEAAH_K@Z 00000001800569e0 f i libucrtd:getmodulefilenamea.obj
 0001:00055a60       ?allocate@__crt_win32_buffer_no_resizing@@SAHQEAPEAX_KAEBV__crt_win32_buffer_empty_debug_info@@@Z 0000000180056a60 f i libucrtd:getmodulefilenamea.obj
 0001:00055a90       ?capacity@?$__crt_win32_buffer@_WU__crt_win32_buffer_internal_dynamic_resizing@@@@QEBA_KXZ 0000000180056a90 f i libucrtd:argv_wildcards.obj
 0001:00055a90       ?capacity@?$__crt_win32_buffer@DU__crt_win32_buffer_no_resizing@@@@QEBA_KXZ 0000000180056a90 f i libucrtd:getmodulefilenamea.obj
 0001:00055a90       ?capacity@?$__crt_win32_buffer@DU__crt_win32_buffer_internal_dynamic_resizing@@@@QEBA_KXZ 0000000180056a90 f i libucrtd:argv_wildcards.obj
 0001:00055aa0       ?data@?$__crt_win32_buffer@DU__crt_win32_buffer_internal_dynamic_resizing@@@@QEAAPEADXZ 0000000180056aa0 f i libucrtd:argv_wildcards.obj
 0001:00055aa0       ?data@?$__crt_win32_buffer@DU__crt_win32_buffer_no_resizing@@@@QEAAPEADXZ 0000000180056aa0 f i libucrtd:getmodulefilenamea.obj
 0001:00055aa0       ?data@?$__crt_win32_buffer@_WU__crt_win32_buffer_internal_dynamic_resizing@@@@QEAAPEA_WXZ 0000000180056aa0 f i libucrtd:argv_wildcards.obj
 0001:00055ab0       ?deallocate@__crt_win32_buffer_no_resizing@@SAXQEAXAEBV__crt_win32_buffer_empty_debug_info@@@Z 0000000180056ab0 f i libucrtd:getmodulefilenamea.obj
 0001:00055ac0       ?set_to_nullptr@?$__crt_win32_buffer@DU__crt_win32_buffer_no_resizing@@@@QEAAXXZ 0000000180056ac0 f i libucrtd:getmodulefilenamea.obj
 0001:00055b00       ?size@?$__crt_win32_buffer@DU__crt_win32_buffer_internal_dynamic_resizing@@@@QEAAX_K@Z 0000000180056b00 f i libucrtd:argv_wildcards.obj
 0001:00055b00       ?size@?$__crt_win32_buffer@_WU__crt_win32_buffer_internal_dynamic_resizing@@@@QEAAX_K@Z 0000000180056b00 f i libucrtd:argv_wildcards.obj
 0001:00055b00       ?size@?$__crt_win32_buffer@DU__crt_win32_buffer_no_resizing@@@@QEAAX_K@Z 0000000180056b00 f i libucrtd:getmodulefilenamea.obj
 0001:00055b20       ?size@?$__crt_win32_buffer@DU__crt_win32_buffer_no_resizing@@@@QEBA_KXZ 0000000180056b20 f i libucrtd:getmodulefilenamea.obj
 0001:00055b30       __acrt_GetModuleFileNameA  0000000180056b30 f   libucrtd:getmodulefilenamea.obj
 0001:00055d50       ??$message_box@PEAUHWND__@@AEBQEB_WAEBQEB_WAEBI@?$__crt_char_traits@_W@@SAH$$QEAPEAUHWND__@@AEBQEB_W1AEBI@Z 0000000180056d50 f i libucrtd:crtmbox.obj
 0001:00055d50       ??$message_box@$$TAEBQEB_WAEBQEB_WK@?$__crt_char_traits@_W@@SAH$$QEA$$TAEBQEB_W1$$QEAK@Z 0000000180056d50 f i libucrtd:crtmbox.obj
 0001:00055da0       ??$output_debug_string@AEBQEB_W@?$__crt_char_traits@_W@@SAXAEBQEB_W@Z 0000000180056da0 f i libucrtd:crtmbox.obj
 0001:00055dc0       __acrt_show_wide_message_box 0000000180056dc0 f   libucrtd:crtmbox.obj
 0001:00056090       setvbuf                    0000000180057090 f   libucrtd:setvbuf.obj
 0001:00056510       __acrt_get_sigabrt_handler 0000000180057510 f   libucrtd:signal.obj
 0001:00056540       __acrt_initialize_signal_handlers 0000000180057540 f   libucrtd:signal.obj
 0001:000565a0       __fpecode                  00000001800575a0 f   libucrtd:signal.obj
 0001:000565c0       raise                      00000001800575c0 f   libucrtd:signal.obj
 0001:00056a80       __remainder_piby2d2f_forAsm 0000000180057a80 f   libucrtd:remainder_piby2f_forasm.obj
 0001:00056bd0       __remainder_piby2_fma3     0000000180057bd0 f   libucrtd:remainder_piby2_forfma3.obj
 0001:00056dc0       __remainder_piby2_fma3_bdl 0000000180057dc0 f   libucrtd:remainder_piby2_forfma3.obj
 0001:00056e40       _cosf_special              0000000180057e40 f   libucrtd:sincos_special.obj
 0001:00056f80       _sinf_special              0000000180057f80 f   libucrtd:sincos_special.obj
 0001:00056fb0       __acrt_initialize_fma3     0000000180057fb0 f   libucrtd:fma3_available.obj
 0001:00057060       _pow_special               0000000180058060 f   libucrtd:pow_special.obj
 0001:000572e0       __remainder_piby2d2f_forC  00000001800582e0 f   libucrtd:remainder_piby2f_forc.obj
 0001:00057470       __acrt_initialize_locks    0000000180058470 f   libucrtd:locks.obj
 0001:000574e0       __acrt_lock                00000001800584e0 f   libucrtd:locks.obj
 0001:00057510       __acrt_uninitialize_locks  0000000180058510 f   libucrtd:locks.obj
 0001:00057570       __acrt_unlock              0000000180058570 f   libucrtd:locks.obj
 0001:00057880       __acrt_get_developer_information_policy 0000000180058880 f   libucrtd:win_policies.obj
 0001:000578a0       __acrt_get_process_end_policy 00000001800588a0 f   libucrtd:win_policies.obj
 0001:000578b0       __acrt_get_windowing_model_policy 00000001800588b0 f   libucrtd:win_policies.obj
 0001:00057c40       ??$__acrt_mbs_to_wcs_cp@U__crt_win32_buffer_internal_dynamic_resizing@@@@YAHQEBDAEAV?$__crt_win32_buffer@_WU__crt_win32_buffer_internal_dynamic_resizing@@@@I@Z 0000000180058c40 f i libucrtd:argv_wildcards.obj
 0001:00057c90       ??$__acrt_wcs_to_mbs_cp@U__crt_win32_buffer_internal_dynamic_resizing@@@@YAHQEB_WAEAV?$__crt_win32_buffer@DU__crt_win32_buffer_internal_dynamic_resizing@@@@I@Z 0000000180058c90 f i libucrtd:argv_wildcards.obj
 0001:000586e0       ??$tcsncpy_s@PEADAEB_KAEBQEBDAEB_K@?$__crt_char_traits@D@@SAH$$QEAPEADAEB_KAEBQEBD1@Z 00000001800596e0 f i libucrtd:argv_wildcards.obj
 0001:000586e0       ??$tcsncpy_s@PEAD_KAEBQEBDAEB_K@?$__crt_char_traits@D@@SAH$$QEAPEAD$$QEA_KAEBQEBDAEB_K@Z 00000001800596e0 f i libucrtd:argv_wildcards.obj
 0001:000586e0       ??$tcsncpy_s@AEAPEAD_KAEAPEADAEB_K@?$__crt_char_traits@D@@SAHAEAPEAD$$QEA_K0AEB_K@Z 00000001800596e0 f i libucrtd:argv_wildcards.obj
 0001:00058730       ??$tcspbrk@AEAPEADAEAY02$$CBD@?$__crt_char_traits@D@@SAPEADAEAPEADAEAY02$$CBD@Z 0000000180059730 f i libucrtd:argv_wildcards.obj
 0001:00058760       ??0?$__crt_win32_buffer@_WU__crt_win32_buffer_internal_dynamic_resizing@@@@QEAA@XZ 0000000180059760 f i libucrtd:argv_wildcards.obj
 0001:00058760       ??0?$__crt_win32_buffer@DU__crt_win32_buffer_internal_dynamic_resizing@@@@QEAA@XZ 0000000180059760 f i libucrtd:argv_wildcards.obj
 0001:00058800       ??1?$__crt_unique_handle_t@U__crt_findfile_traits@@@@QEAA@XZ 0000000180059800 f i libucrtd:argv_wildcards.obj
 0001:00058820       ??1?$__crt_win32_buffer@DU__crt_win32_buffer_internal_dynamic_resizing@@@@QEAA@XZ 0000000180059820 f i libucrtd:argv_wildcards.obj
 0001:00058820       ??1?$__crt_win32_buffer@_WU__crt_win32_buffer_internal_dynamic_resizing@@@@QEAA@XZ 0000000180059820 f i libucrtd:argv_wildcards.obj
 0001:000589b0       ?_deallocate@?$__crt_win32_buffer@_WU__crt_win32_buffer_internal_dynamic_resizing@@@@AEAAXXZ 00000001800599b0 f i libucrtd:argv_wildcards.obj
 0001:000589b0       ?_deallocate@?$__crt_win32_buffer@DU__crt_win32_buffer_internal_dynamic_resizing@@@@AEAAXXZ 00000001800599b0 f i libucrtd:argv_wildcards.obj
 0001:000589f0       ?allocate@?$__crt_win32_buffer@DU__crt_win32_buffer_internal_dynamic_resizing@@@@QEAAH_K@Z 00000001800599f0 f i libucrtd:argv_wildcards.obj
 0001:00058a70       ?allocate@?$__crt_win32_buffer@_WU__crt_win32_buffer_internal_dynamic_resizing@@@@QEAAH_K@Z 0000000180059a70 f i libucrtd:argv_wildcards.obj
 0001:00058b00       ?allocate@__crt_win32_buffer_internal_dynamic_resizing@@SAHQEAPEAX_KAEBV__crt_win32_buffer_empty_debug_info@@@Z 0000000180059b00 f i libucrtd:argv_wildcards.obj
 0001:00058bd0       ?close@?$__crt_unique_handle_t@U__crt_findfile_traits@@@@QEAAXXZ 0000000180059bd0 f i libucrtd:argv_wildcards.obj
 0001:00058c10       ?close@__crt_findfile_traits@@SA_NPEAX@Z 0000000180059c10 f i libucrtd:argv_wildcards.obj
 0001:00058c50       ?deallocate@__crt_win32_buffer_internal_dynamic_resizing@@SAXQEAXAEBV__crt_win32_buffer_empty_debug_info@@@Z 0000000180059c50 f i libucrtd:argv_wildcards.obj
 0001:00058f30       ?set_to_nullptr@?$__crt_win32_buffer@_WU__crt_win32_buffer_internal_dynamic_resizing@@@@QEAAXXZ 0000000180059f30 f i libucrtd:argv_wildcards.obj
 0001:00058f30       ?set_to_nullptr@?$__crt_win32_buffer@DU__crt_win32_buffer_internal_dynamic_resizing@@@@QEAAXXZ 0000000180059f30 f i libucrtd:argv_wildcards.obj
 0001:00058f90       ?strpbrk@@YAPEADQEADQEBD@Z 0000000180059f90 f i libucrtd:argv_wildcards.obj
 0001:00058fc0       __acrt_expand_narrow_argv_wildcards 0000000180059fc0 f   libucrtd:argv_wildcards.obj
 0001:00059080       ??$initialize_from_array@$$BY10BAA@E@?$dual_state_global@PEAE@__crt_state_management@@QEAAXAEAY10BAA@E@Z 000000018005a080 f i libucrtd:mbctype.obj
 0001:000590f0       ??$initialize_from_array@$$BY10BAB@E@?$dual_state_global@PEAE@__crt_state_management@@QEAAXAEAY10BAB@E@Z 000000018005a0f0 f i libucrtd:mbctype.obj
 0001:00059c60       __acrt_initialize_multibyte 000000018005ac60 f   libucrtd:mbctype.obj
 0001:00059d30       __acrt_update_thread_multibyte_data 000000018005ad30 f   libucrtd:mbctype.obj
 0001:00059d60       _setmbcp_nolock            000000018005ad60 f   libucrtd:mbctype.obj
 0001:0005a2c0       _ismbblead                 000000018005b2c0 f   libucrtd:ismbbyte.obj
 0001:0005a2e0       __acrt_initialize_command_line 000000018005b2e0 f   libucrtd:argv_data.obj
 0001:0005a3b0       __acrt_MultiByteToWideChar 000000018005b3b0 f   libucrtd:multibytetowidechar.obj
 0001:0005a4b0       __acrt_WideCharToMultiByte 000000018005b4b0 f   libucrtd:widechartomultibyte.obj
 0001:0005a5e0       __dcrt_get_narrow_environment_from_os 000000018005b5e0 f   libucrtd:get_environment_from_os.obj
 0001:0005ade0       GetCurrentThreadEffectiveToken 000000018005bde0 f i libucrtd:winapi_thunks.obj
 0001:0005adf0       __acrt_AppPolicyGetProcessTerminationMethodInternal 000000018005bdf0 f   libucrtd:winapi_thunks.obj
 0001:0005ae40       __acrt_AppPolicyGetShowDeveloperDiagnosticInternal 000000018005be40 f   libucrtd:winapi_thunks.obj
 0001:0005ae90       __acrt_AppPolicyGetWindowingModelInternal 000000018005be90 f   libucrtd:winapi_thunks.obj
 0001:0005aee0       __acrt_AreFileApisANSI     000000018005bee0 f   libucrtd:winapi_thunks.obj
 0001:0005af20       __acrt_FlsAlloc            000000018005bf20 f   libucrtd:winapi_thunks.obj
 0001:0005af70       __acrt_FlsFree             000000018005bf70 f   libucrtd:winapi_thunks.obj
 0001:0005afc0       __acrt_FlsGetValue         000000018005bfc0 f   libucrtd:winapi_thunks.obj
 0001:0005b010       __acrt_FlsSetValue         000000018005c010 f   libucrtd:winapi_thunks.obj
 0001:0005b070       __acrt_InitializeCriticalSectionEx 000000018005c070 f   libucrtd:winapi_thunks.obj
 0001:0005b0d0       __acrt_LCMapStringEx       000000018005c0d0 f   libucrtd:winapi_thunks.obj
 0001:0005b1b0       __acrt_LocaleNameToLCID    000000018005c1b0 f   libucrtd:winapi_thunks.obj
 0001:0005b200       __acrt_MessageBoxW         000000018005c200 f   libucrtd:winapi_thunks.obj
 0001:0005b260       __acrt_can_show_message_box 000000018005c260 f   libucrtd:winapi_thunks.obj
 0001:0005b2a0       __acrt_get_parent_window   000000018005c2a0 f   libucrtd:winapi_thunks.obj
 0001:0005b320       __acrt_initialize_winapi_thunks 000000018005c320 f   libucrtd:winapi_thunks.obj
 0001:0005b3a0       __acrt_is_interactive      000000018005c3a0 f   libucrtd:winapi_thunks.obj
 0001:0005b480       __acrt_uninitialize_winapi_thunks 000000018005c480 f   libucrtd:winapi_thunks.obj
 0001:0005b520       __acrt_initialize_heap     000000018005c520 f   libucrtd:heap_handle.obj
 0001:0005b550       __acrt_uninitialize_heap   000000018005c550 f   libucrtd:heap_handle.obj
 0001:0005b570       __acrt_execute_initializers 000000018005c570 f   libucrtd:shared_initialization.obj
 0001:0005b660       __acrt_execute_uninitializers 000000018005c660 f   libucrtd:shared_initialization.obj
 0001:0005b6e0       __acrt_initialize_new_handler 000000018005c6e0 f   libucrtd:new_handler.obj
 0001:0005b700       _callnewh                  000000018005c700 f   libucrtd:new_handler.obj
 0001:0005b750       _query_new_handler         000000018005c750 f   libucrtd:new_handler.obj
 0001:0005b790       __acrt_has_user_matherr    000000018005c790 f   libucrtd:matherr.obj
 0001:0005b7d0       __acrt_initialize_user_matherr 000000018005c7d0 f   libucrtd:matherr.obj
 0001:0005b7f0       __acrt_invoke_user_matherr 000000018005c7f0 f   libucrtd:matherr.obj
 0001:0005b840       ?has_temporary_buffer@__crt_stdio_stream@@QEBA_NXZ 000000018005c840 f i libucrtd:_sftbuf.obj
 0001:0005b860       __acrt_should_use_temporary_buffer 000000018005c860 f   libucrtd:_sftbuf.obj
 0001:0005b8b0       __acrt_stdio_begin_temporary_buffering_nolock 000000018005c8b0 f   libucrtd:_sftbuf.obj
 0001:0005baf0       __acrt_stdio_end_temporary_buffering_nolock 000000018005caf0 f   libucrtd:_sftbuf.obj
 0001:0005bba0       _free_base                 000000018005cba0 f   libucrtd:free_base.obj
 0001:0005bc00       _realloc_base              000000018005cc00 f   libucrtd:realloc_base.obj
 0001:0005bd20       _expand_base               000000018005cd20 f   libucrtd:expand.obj
 0001:0005beb0       ?value@?$dual_state_global@H@__crt_state_management@@QEAAAEAHXZ 000000018005ceb0 f i libucrtd:setmode.obj
 0001:0005beb0       ?value@?$dual_state_global@J@__crt_state_management@@QEAAAEAJXZ 000000018005ceb0 f i libucrtd:new_mode.obj
 0001:0005bed0       _query_new_mode            000000018005ced0 f   libucrtd:new_mode.obj
 0001:0005bef0       _CrtDefaultAllocHook       000000018005cef0 f   libucrtd:debug_heap_hook.obj
 0001:0005bf10       _CrtGetDebugFillThreshold  000000018005cf10 f   libucrtd:debug_fill_threshold.obj
 0001:0005bf20       _mbtowc_l                  000000018005cf20 f   libucrtd:mbtowc.obj
 0001:0005c380       mbtowc                     000000018005d380 f   libucrtd:mbtowc.obj
 0001:0005c3b0       _wctomb_s_l                000000018005d3b0 f   libucrtd:wctomb.obj
 0001:0005c930       wctomb_s                   000000018005d930 f   libucrtd:wctomb.obj
 0001:0005c980       ?__acrt_fp_classify@@YA?AW4__acrt_fp_class@@AEBN@Z 000000018005d980 f i libucrtd:cvt.obj
 0001:0005ca80       ?__acrt_fp_is_negative@@YA_NAEBN@Z 000000018005da80 f i libucrtd:cvt.obj
 0001:0005e440       ?strrchr@@YAPEADQEADH@Z    000000018005f440 f i libucrtd:cvt.obj
 0001:0005e460       __acrt_fp_format           000000018005f460 f   libucrtd:cvt.obj
 0001:0005eb10       _fputwc_nolock             000000018005fb10 f   libucrtd:fputwc.obj
 0001:0005ed80       _fputc_nolock              000000018005fd80 f   libucrtd:fputc.obj
 0001:0005ee30       _get_printf_count_output   000000018005fe30 f   libucrtd:printf_count_output.obj
 0001:0005ee60       _VCrtDbgReportA            000000018005fe60 f   libucrtd:dbgrptt.obj
 0001:0005f840       _VCrtDbgReportW            0000000180060840 f   libucrtd:dbgrptt.obj
 0001:000603c0       _snprintf_s                00000001800613c0 f i libucrtd:dbgrptt.obj
 0001:00060430       _vsnprintf_s               0000000180061430 f i libucrtd:dbgrptt.obj
 0001:00060480       _vsnprintf_s_l             0000000180061480 f i libucrtd:dbgrptt.obj
 0001:00060500       __acrt_GetStringTypeW      0000000180061500 f   libucrtd:getstringtypew.obj
 0001:00060540       __pctype_func              0000000180061540 f   libucrtd:ctype.obj
 0001:00060580       ??1?$__crt_scoped_stack_ptr@_W@@QEAA@XZ 0000000180061580 f i libucrtd:getstringtypea.obj
 0001:000605a0       _MallocaComputeSize        00000001800615a0 f i libucrtd:getstringtypea.obj
 0001:000605e0       _MarkAllocaS               00000001800615e0 f i libucrtd:getstringtypea.obj
 0001:00060610       __acrt_GetStringTypeA      0000000180061610 f   libucrtd:getstringtypea.obj
 0001:00060870       _freea_crt                 0000000180061870 f i libucrtd:getstringtypea.obj
 0001:00060910       __acrt_add_locale_ref      0000000180061910 f   libucrtd:locale_refcounting.obj
 0001:00060a70       __acrt_free_locale         0000000180061a70 f   libucrtd:locale_refcounting.obj
 0001:00060df0       __acrt_locale_add_lc_time_reference 0000000180061df0 f   libucrtd:locale_refcounting.obj
 0001:00060e30       __acrt_locale_free_lc_time_if_unreferenced 0000000180061e30 f   libucrtd:locale_refcounting.obj
 0001:00060e90       __acrt_locale_release_lc_time_reference 0000000180061e90 f   libucrtd:locale_refcounting.obj
 0001:00060ed0       __acrt_release_locale_ref  0000000180061ed0 f   libucrtd:locale_refcounting.obj
 0001:00061040       __acrt_update_thread_locale_data 0000000180062040 f   libucrtd:locale_refcounting.obj
 0001:000610e0       _updatetlocinfoEx_nolock   00000001800620e0 f   libucrtd:locale_refcounting.obj
 0001:00061180       __acrt_locale_free_monetary 0000000180062180 f   libucrtd:initmon.obj
 0001:00061390       __acrt_locale_free_numeric 0000000180062390 f   libucrtd:initnum.obj
 0001:00061530       __acrt_locale_free_time    0000000180062530 f   libucrtd:inittime.obj
 0001:00061d40       wcsncpy_s                  0000000180062d40 f   libucrtd:wcsncpy_s.obj
 0001:00061d90       _get_fpsr                  0000000180062d90 f   libucrtd:fpsr.obj
 0001:00061da0       _set_fpsr                  0000000180062da0 f   libucrtd:fpsr.obj
 0001:00061daa       _fclrf                     0000000180062daa f   libucrtd:fpsr.obj
 0001:00061dbe       _frnd                      0000000180062dbe f   libucrtd:fpsr.obj
 0001:00061de0       _fcloseall                 0000000180062de0 f   libucrtd:closeall.obj
 0001:00061ef0       __ascii_wcsnicmp           0000000180062ef0 f   libucrtd:wcsnicmp.obj
 0001:00061fc0       __ascii_strnicmp           0000000180062fc0 f   libucrtd:strnicmp.obj
 0001:00062090       _strnicmp                  0000000180063090 f   libucrtd:strnicmp.obj
 0001:000622e0       _strnicmp_l                00000001800632e0 f   libucrtd:strnicmp.obj
 0001:00062960       ??$tsopen_nolock@PEAHAEBQEAHAEBQEBDAEBHAEBHAEBHAEBH@?$__crt_char_traits@D@@SAH$$QEAPEAHAEBQEAHAEBQEBDAEBH333@Z 0000000180063960 f i libucrtd:open.obj
 0001:000636b0       _sopen_dispatch            00000001800646b0 f   libucrtd:open.obj
 0001:00063700       _sopen_nolock              0000000180064700 f   libucrtd:open.obj
 0001:000637d0       _sopen_s                   00000001800647d0 f   libucrtd:open.obj
 0001:00063820       _wsopen_nolock             0000000180064820 f   libucrtd:open.obj
 0001:00063f90       __acrt_lowio_create_handle_array 0000000180064f90 f   libucrtd:osfinfo.obj
 0001:00064150       __acrt_lowio_destroy_handle_array 0000000180065150 f   libucrtd:osfinfo.obj
 0001:000641d0       __acrt_lowio_ensure_fh_exists 00000001800651d0 f   libucrtd:osfinfo.obj
 0001:00064330       __acrt_lowio_lock_fh       0000000180065330 f   libucrtd:osfinfo.obj
 0001:00064370       __acrt_lowio_set_os_handle 0000000180065370 f   libucrtd:osfinfo.obj
 0001:00064480       __acrt_lowio_unlock_fh     0000000180065480 f   libucrtd:osfinfo.obj
 0001:000644c0       _alloc_osfhnd              00000001800654c0 f   libucrtd:osfinfo.obj
 0001:000646d0       _free_osfhnd               00000001800656d0 f   libucrtd:osfinfo.obj
 0001:00064800       _get_osfhandle             0000000180065800 f   libucrtd:osfinfo.obj
 0001:00064b70       _commit                    0000000180065b70 f   libucrtd:commit.obj
 0001:00066750       _write                     0000000180067750 f   libucrtd:write.obj
 0001:000669f0       _write_nolock              00000001800679f0 f   libucrtd:write.obj
 0001:00066fc0       _isatty                    0000000180067fc0 f   libucrtd:isatty.obj
 0001:000670d0       __acrt_OutputDebugStringA  00000001800680d0 f   libucrtd:outputdebugstringa.obj
 0001:00067360       _handle_error              0000000180068360 f   libucrtd:libm_error.obj
 0001:000674f0       _handle_errorf             00000001800684f0 f   libucrtd:libm_error.obj
 0001:00067680       _handle_nan                0000000180068680 f   libucrtd:libm_error.obj
 0001:00067840       qsort                      0000000180068840 f   libucrtd:qsort.obj
 0001:000685d0       strncpy_s                  00000001800695d0 f   libucrtd:strncpy_s.obj
 0001:00068740       strpbrk                    0000000180069740 f   libucrtd:strpbrk.obj
 0001:00069030       _mbsdec                    000000018006a030 f   libucrtd:mbsdec.obj
 0001:00069038       _mbsdec_l                  000000018006a038 f   libucrtd:mbsdec.obj
 0001:00069720       __acrt_LCMapStringA        000000018006a720 f   libucrtd:lcmapstringa.obj
 0001:000698b0       __acrt_DownlevelLocaleNameToLCID 000000018006a8b0 f   libucrtd:lcidtoname_downlevel.obj
 0001:00069910       _malloc_base               000000018006a910 f   libucrtd:malloc_base.obj
 0001:000699b0       _isleadbyte_l              000000018006a9b0 f i libucrtd:_wctype.obj
 0001:00069a80       ?__mbrtowc_utf8@__crt_mbstring@@YA_KPEA_WPEBD_KPEAU_Mbstatet@@@Z 000000018006aa80 f   libucrtd:mbrtowc.obj
 0001:00069af0       ?__mbsrtowcs_utf8@__crt_mbstring@@YA_KPEA_WPEAPEBD_KPEAU_Mbstatet@@@Z 000000018006aaf0 f   libucrtd:mbrtowc.obj
 0001:00069df0       ?__c32rtomb_utf8@__crt_mbstring@@YA_KPEAD_UPEAU_Mbstatet@@@Z 000000018006adf0 f   libucrtd:c32rtomb.obj
 0001:0006a070       ?reset_and_return@__crt_mbstring@@YA_K_KPEAU_Mbstatet@@@Z 000000018006b070 f i libucrtd:c32rtomb.obj
 0001:0006a0b0       ?return_illegal_sequence@__crt_mbstring@@YA_KPEAU_Mbstatet@@@Z 000000018006b0b0 f i libucrtd:c32rtomb.obj
 0001:0006a0f0       c32rtomb                   000000018006b0f0 f   libucrtd:c32rtomb.obj
 0001:0006a250       __acrt_fp_strflt_to_string 000000018006b250 f   libucrtd:_fptostr.obj
 0001:0006ad50       ??4big_integer@__crt_strtox@@QEAAAEAU01@AEBU01@@Z 000000018006bd50 f i libucrtd:cfout.obj
 0001:0006ad50       ??0big_integer@__crt_strtox@@QEAA@AEBU01@@Z 000000018006bd50 f i libucrtd:cfout.obj
 0001:0006adb0       ??0big_integer@__crt_strtox@@QEAA@XZ 000000018006bdb0 f i libucrtd:cfout.obj
 0001:0006ae70       ??8__crt_strtox@@YA_NAEBUbig_integer@0@0@Z 000000018006be70 f i libucrtd:cfout.obj
 0001:0006aee0       ??9__crt_strtox@@YA_NAEBUbig_integer@0@0@Z 000000018006bee0 f i libucrtd:cfout.obj
 0001:0006af20       ?add_carry@__crt_strtox@@YAIAEAIII@Z 000000018006bf20 f i libucrtd:cfout.obj
 0001:0006af70       ?add_multiply_carry@__crt_strtox@@YAIAEAIIII@Z 000000018006bf70 f i libucrtd:cfout.obj
 0001:0006afd0       ?bit_scan_reverse@__crt_strtox@@YAII@Z 000000018006bfd0 f i libucrtd:cfout.obj
 0001:0006b010       ?count_sequential_high_zeroes@__crt_strtox@@YAII@Z 000000018006c010 f i libucrtd:cfout.obj
 0001:0006b050       ?divide@__crt_strtox@@YA_KAEAUbig_integer@1@AEBU21@@Z 000000018006c050 f i libucrtd:cfout.obj
 0001:0006ba20       ?is_zero@__crt_strtox@@YA_NAEBUbig_integer@1@@Z 000000018006ca20 f i libucrtd:cfout.obj
 0001:0006ba50       ?make_big_integer@__crt_strtox@@YA?AUbig_integer@1@_K@Z 000000018006ca50 f i libucrtd:cfout.obj
 0001:0006bb20       ?make_big_integer_power_of_two@__crt_strtox@@YA?AUbig_integer@1@I@Z 000000018006cb20 f i libucrtd:cfout.obj
 0001:0006bbf0       ?multiply@__crt_strtox@@YA_NAEAUbig_integer@1@AEBU21@@Z 000000018006cbf0 f i libucrtd:cfout.obj
 0001:0006bf70       ?multiply@__crt_strtox@@YA_NAEAUbig_integer@1@I@Z 000000018006cf70 f i libucrtd:cfout.obj
 0001:0006c090       ?multiply_64_32@__crt_strtox@@YA_K_KI@Z 000000018006d090 f i libucrtd:cfout.obj
 0001:0006c0b0       ?multiply_by_power_of_ten@__crt_strtox@@YA_NAEAUbig_integer@1@I@Z 000000018006d0b0 f i libucrtd:cfout.obj
 0001:0006c260       ?multiply_core@__crt_strtox@@YAIQEAIII@Z 000000018006d260 f i libucrtd:cfout.obj
 0001:0006c2e0       ?shift_left@__crt_strtox@@YA_NAEAUbig_integer@1@I@Z 000000018006d2e0 f i libucrtd:cfout.obj
 0001:0006c5c0       __acrt_fltout              000000018006d5c0 f   libucrtd:cfout.obj
 0001:0006c970       fegetround                 000000018006d970 f   libucrtd:fegetround.obj
 0001:0006d3c0       __acrt_stdio_flush_and_write_narrow_nolock 000000018006e3c0 f   libucrtd:_flsbuf.obj
 0001:0006d3f0       __acrt_stdio_flush_and_write_wide_nolock 000000018006e3f0 f   libucrtd:_flsbuf.obj
 0001:0006da00       _mbstowcs_s_l              000000018006ea00 f   libucrtd:mbstowcs.obj
 0001:0006dfd0       mbstowcs_s                 000000018006efd0 f   libucrtd:mbstowcs.obj
 0001:0006e960       _wcstombs_s_l              000000018006f960 f   libucrtd:wcstombs.obj
 0001:0006eea0       wcstombs_s                 000000018006fea0 f   libucrtd:wcstombs.obj
 0001:0006eef0       _get_fmode                 000000018006fef0 f   libucrtd:setmode.obj
 0001:0006efc0       _setmode_nolock            000000018006ffc0 f   libucrtd:setmode.obj
 0001:0006f280       ??0__crt_seek_guard@@QEAA@H_J@Z 0000000180070280 f i libucrtd:chsize.obj
 0001:0006f300       ??1__crt_seek_guard@@QEAA@XZ 0000000180070300 f i libucrtd:chsize.obj
 0001:0006f330       _chsize_nolock             0000000180070330 f   libucrtd:chsize.obj
 0001:0006f5ac       _putwch_nolock             00000001800705ac f   libucrtd:putwch.obj
 0001:0006f5f0       __strncnt                  00000001800705f0 f   libucrtd:strncnt.obj
 0001:0006f650       ?__mbrtoc32_utf8@__crt_mbstring@@YA_KPEA_UPEBD_KPEAU_Mbstatet@@@Z 0000000180070650 f   libucrtd:mbrtoc32.obj
 0001:0006fa10       log10                      0000000180070a10 f   libucrtd:log10.obj
 0001:0006ffc0       ceil                       0000000180070fc0 f   libucrtd:ceil.obj
 0001:00070190       _controlfp_s               0000000180071190 f   libucrtd:contrlfp.obj
 0001:000702c0       fegetenv                   00000001800712c0 f   libucrtd:fegetenv.obj
 0001:000702f0       fesetenv                   00000001800712f0 f   libucrtd:fesetenv.obj
 0001:00070370       feholdexcept               0000000180071370 f   libucrtd:feholdexcept.obj
 0001:000703e0       ??$__acrt_fenv_shift_bits@W4__acrt_fenv_abstract_status@@@@YA?AW4__acrt_fenv_abstract_status@@W40@0I@Z 00000001800713e0 f i libucrtd:_fenvutils.obj
 0001:000703e0       ??$__acrt_fenv_shift_bits@W4__acrt_fenv_abstract_control@@@@YA?AW4__acrt_fenv_abstract_control@@W40@0I@Z 00000001800713e0 f i libucrtd:_fenvutils.obj
 0001:00070410       ??$__acrt_fenv_translate_bit@W4__acrt_fenv_abstract_control@@W4__acrt_fenv_machine_sse_control@@@@YA?AW4__acrt_fenv_abstract_control@@W4__acrt_fenv_machine_sse_control@@0W40@1@Z 0000000180071410 f i libucrtd:_fenvutils.obj
 0001:00070470       ??$__acrt_fenv_translate_bit@W4__acrt_fenv_machine_sse_status@@W4__acrt_fenv_abstract_status@@@@YA?AW4__acrt_fenv_machine_sse_status@@W4__acrt_fenv_abstract_status@@0W40@1@Z 0000000180071470 f i libucrtd:_fenvutils.obj
 0001:00070470       ??$__acrt_fenv_translate_bit@W4__acrt_fenv_abstract_status@@W4__acrt_fenv_machine_sse_status@@@@YA?AW4__acrt_fenv_abstract_status@@W4__acrt_fenv_machine_sse_status@@0W40@1@Z 0000000180071470 f i libucrtd:_fenvutils.obj
 0001:000704c0       ??$__acrt_fenv_translate_bit@W4__acrt_fenv_machine_sse_control@@W4__acrt_fenv_abstract_control@@@@YA?AW4__acrt_fenv_machine_sse_control@@W4__acrt_fenv_abstract_control@@0W40@1@Z 00000001800714c0 f i libucrtd:_fenvutils.obj
 0001:00070520       ??$__acrt_fenv_unshift_bits@W4__acrt_fenv_abstract_control@@@@YA?AW4__acrt_fenv_abstract_control@@W40@0I@Z 0000000180071520 f i libucrtd:_fenvutils.obj
 0001:00070520       ??$__acrt_fenv_unshift_bits@W4__acrt_fenv_abstract_status@@@@YA?AW4__acrt_fenv_abstract_status@@W40@0I@Z 0000000180071520 f i libucrtd:_fenvutils.obj
 0001:00070a10       ??I@YA?AW4__acrt_fenv_machine_sse_status@@W40@0@Z 0000000180071a10 f i libucrtd:_fenvutils.obj
 0001:00070a10       ??I@YA?AW4__acrt_fenv_abstract_status@@W40@0@Z 0000000180071a10 f i libucrtd:_fenvutils.obj
 0001:00070a10       ??I@YA?AW4__acrt_fenv_abstract_control@@W40@0@Z 0000000180071a10 f i libucrtd:_fenvutils.obj
 0001:00070a30       ??I@YA?AW4__acrt_fenv_machine_sse_control@@W40@0@Z 0000000180071a30 f i libucrtd:_fenvutils.obj
 0001:00070a50       ??U@YA?AW4__acrt_fenv_abstract_status@@W40@0@Z 0000000180071a50 f i libucrtd:_fenvutils.obj
 0001:00070a50       ??U@YA?AW4__acrt_fenv_abstract_control@@W40@0@Z 0000000180071a50 f i libucrtd:_fenvutils.obj
 0001:00070a70       ??U@YA?AW4__acrt_fenv_machine_sse_control@@W40@0@Z 0000000180071a70 f i libucrtd:_fenvutils.obj
 0001:00070a90       ??_5@YAAEAW4__acrt_fenv_abstract_status@@AEAW40@W40@@Z 0000000180071a90 f i libucrtd:_fenvutils.obj
 0001:00070a90       ??_5@YAAEAW4__acrt_fenv_abstract_control@@AEAW40@W40@@Z 0000000180071a90 f i libucrtd:_fenvutils.obj
 0001:00070a90       ??_5@YAAEAW4__acrt_fenv_machine_sse_status@@AEAW40@W40@@Z 0000000180071a90 f i libucrtd:_fenvutils.obj
 0001:00070ac0       ??_5@YAAEAW4__acrt_fenv_machine_sse_control@@AEAW40@W40@@Z 0000000180071ac0 f i libucrtd:_fenvutils.obj
 0001:00070af0       ?__acrt_fenv_shift_abstract_sse_control@@YA?AW4__acrt_fenv_abstract_control@@W41@@Z 0000000180071af0 f i libucrtd:_fenvutils.obj
 0001:00070b40       ?__acrt_fenv_shift_abstract_sse_status@@YA?AW4__acrt_fenv_abstract_status@@W41@@Z 0000000180071b40 f i libucrtd:_fenvutils.obj
 0001:00070b70       ?__acrt_fenv_unshift_abstract_sse_control@@YA?AW4__acrt_fenv_abstract_control@@W41@@Z 0000000180071b70 f i libucrtd:_fenvutils.obj
 0001:00070bc0       ?__acrt_fenv_unshift_abstract_sse_status@@YA?AW4__acrt_fenv_abstract_status@@W41@@Z 0000000180071bc0 f i libucrtd:_fenvutils.obj
 0001:00070e90       __acrt_fenv_get_common_round_control 0000000180071e90 f   libucrtd:_fenvutils.obj
 0001:00070eb0       __acrt_fenv_get_control    0000000180071eb0 f   libucrtd:_fenvutils.obj
 0001:00070ee0       __acrt_fenv_get_status     0000000180071ee0 f   libucrtd:_fenvutils.obj
 0001:00070f10       __acrt_fenv_set_control    0000000180071f10 f   libucrtd:_fenvutils.obj
 0001:00070f30       __acrt_fenv_set_status     0000000180071f30 f   libucrtd:_fenvutils.obj
 0001:00070f50       ?__wcsrtombs_utf8@__crt_mbstring@@YA_KPEADPEAPEB_W_KPEAU_Mbstatet@@@Z 0000000180071f50 f   libucrtd:wcrtomb.obj
 0001:000711c0       __acrt_initialize_fmode    00000001800721c0 f   libucrtd:txtmode.obj
 0001:00071220       __dcrt_lowio_ensure_console_output_initialized 0000000180072220 f   libucrtd:initcon.obj
 0001:00071274       __dcrt_terminate_console_output 0000000180072274 f   libucrtd:initcon.obj
 0001:00071290       __dcrt_write_console       0000000180072290 f   libucrtd:initcon.obj
 0001:00071350       _log10_special             0000000180072350 f   libucrtd:log_special.obj
 0001:000716b0       _clearfp                   00000001800726b0 f   libucrtd:ieee.obj
 0001:000716d0       _control87                 00000001800726d0 f   libucrtd:ieee.obj
 0001:00071960       ?__c16rtomb_utf8@__crt_mbstring@@YA_KPEAD_SPEAU_Mbstatet@@@Z 0000000180072960 f   libucrtd:c16rtomb.obj
 0001:00071b80       _FindPESection             0000000180072b80 f   LIBCMTD:pesect.obj
 0001:00071c30       _IsNonwritableInCurrentImage 0000000180072c30 f   LIBCMTD:pesect.obj
 0001:00071cc0       _ValidateImageBase         0000000180072cc0 f   LIBCMTD:pesect.obj
 0001:00071d40       ??1type_info@@UEAA@XZ      0000000180072d40 f   LIBCMTD:std_type_info_static.obj
 0001:00071d60       ??_Etype_info@@UEAAPEAXI@Z 0000000180072d60 f i LIBCMTD:std_type_info_static.obj
 0001:00071d60       ??_Gtype_info@@UEAAPEAXI@Z 0000000180072d60 f i LIBCMTD:std_type_info_static.obj
 0001:00071da0       ??3@YAXPEAX_K@Z            0000000180072da0 f   LIBCMTD:delete_scalar_size.obj
 0001:00071dc0       __GSHandlerCheck_SEH       0000000180072dc0 f   LIBCMTD:gshandlerseh.obj
 0001:00071e80       __GSHandlerCheck_EH        0000000180072e80 f   LIBCMTD:gshandlereh.obj
 0001:00071f30       ??3@YAXPEAX@Z              0000000180072f30 f   LIBCMTD:delete_scalar.obj
 0001:00071f50       _local_unwind              0000000180072f50 f   libvcruntimed:jmpuwind.obj
 0001:00071f90       memcmp                     0000000180072f90 f   libvcruntimed:memcmp.obj
 0001:00072060       strrchr                    0000000180073060 f   libvcruntimed:strrchr.obj
 0001:00072490       _guard_dispatch_icall_nop  0000000180073490 f   LIBCMTD:guard_dispatch.obj
 0002:00000000       __imp_CompareFileTime      0000000180074000     kernel32:KERNEL32.dll
 0002:00000008       __imp_CreateFileA          0000000180074008     kernel32:KERNEL32.dll
 0002:00000010       __imp_GetFileSizeEx        0000000180074010     kernel32:KERNEL32.dll
 0002:00000018       __imp_GetFileTime          0000000180074018     kernel32:KERNEL32.dll
 0002:00000020       __imp_ReadFile             0000000180074020     kernel32:KERNEL32.dll
 0002:00000028       __imp_OutputDebugStringA   0000000180074028     kernel32:KERNEL32.dll
 0002:00000030       __imp_CloseHandle          0000000180074030     kernel32:KERNEL32.dll
 0002:00000038       __imp_GetLastError         0000000180074038     kernel32:KERNEL32.dll
 0002:00000040       __imp_GetProcAddress       0000000180074040     kernel32:KERNEL32.dll
 0002:00000048       __imp_RtlCaptureContext    0000000180074048     kernel32:KERNEL32.dll
 0002:00000050       __imp_RtlLookupFunctionEntry 0000000180074050     kernel32:KERNEL32.dll
 0002:00000058       __imp_RtlVirtualUnwind     0000000180074058     kernel32:KERNEL32.dll
 0002:00000060       __imp_UnhandledExceptionFilter 0000000180074060     kernel32:KERNEL32.dll
 0002:00000068       __imp_SetUnhandledExceptionFilter 0000000180074068     kernel32:KERNEL32.dll
 0002:00000070       __imp_GetCurrentProcess    0000000180074070     kernel32:KERNEL32.dll
 0002:00000078       __imp_TerminateProcess     0000000180074078     kernel32:KERNEL32.dll
 0002:00000080       __imp_IsProcessorFeaturePresent 0000000180074080     kernel32:KERNEL32.dll
 0002:00000088       __imp_QueryPerformanceCounter 0000000180074088     kernel32:KERNEL32.dll
 0002:00000090       __imp_GetCurrentProcessId  0000000180074090     kernel32:KERNEL32.dll
 0002:00000098       __imp_GetCurrentThreadId   0000000180074098     kernel32:KERNEL32.dll
 0002:000000a0       __imp_GetSystemTimeAsFileTime 00000001800740a0     kernel32:KERNEL32.dll
 0002:000000a8       __imp_InitializeSListHead  00000001800740a8     kernel32:KERNEL32.dll
 0002:000000b0       __imp_IsDebuggerPresent    00000001800740b0     kernel32:KERNEL32.dll
 0002:000000b8       __imp_GetStartupInfoW      00000001800740b8     kernel32:KERNEL32.dll
 0002:000000c0       __imp_GetModuleHandleW     00000001800740c0     kernel32:KERNEL32.dll
 0002:000000c8       __imp_SetEndOfFile         00000001800740c8     kernel32:KERNEL32.dll
 0002:000000d0       __imp_RtlUnwindEx          00000001800740d0     kernel32:KERNEL32.dll
 0002:000000d8       __imp_InterlockedFlushSList 00000001800740d8     kernel32:KERNEL32.dll
 0002:000000e0       __imp_SetLastError         00000001800740e0     kernel32:KERNEL32.dll
 0002:000000e8       __imp_EnterCriticalSection 00000001800740e8     kernel32:KERNEL32.dll
 0002:000000f0       __imp_LeaveCriticalSection 00000001800740f0     kernel32:KERNEL32.dll
 0002:000000f8       __imp_DeleteCriticalSection 00000001800740f8     kernel32:KERNEL32.dll
 0002:00000100       __imp_InitializeCriticalSectionAndSpinCount 0000000180074100     kernel32:KERNEL32.dll
 0002:00000108       __imp_TlsAlloc             0000000180074108     kernel32:KERNEL32.dll
 0002:00000110       __imp_TlsGetValue          0000000180074110     kernel32:KERNEL32.dll
 0002:00000118       __imp_TlsSetValue          0000000180074118     kernel32:KERNEL32.dll
 0002:00000120       __imp_TlsFree              0000000180074120     kernel32:KERNEL32.dll
 0002:00000128       __imp_FreeLibrary          0000000180074128     kernel32:KERNEL32.dll
 0002:00000130       __imp_LoadLibraryExW       0000000180074130     kernel32:KERNEL32.dll
 0002:00000138       __imp_EncodePointer        0000000180074138     kernel32:KERNEL32.dll
 0002:00000140       __imp_RaiseException       0000000180074140     kernel32:KERNEL32.dll
 0002:00000148       __imp_RtlPcToFileHeader    0000000180074148     kernel32:KERNEL32.dll
 0002:00000150       __imp_GetStdHandle         0000000180074150     kernel32:KERNEL32.dll
 0002:00000158       __imp_GetFileType          0000000180074158     kernel32:KERNEL32.dll
 0002:00000160       __imp_GetModuleFileNameW   0000000180074160     kernel32:KERNEL32.dll
 0002:00000168       __imp_GetModuleHandleExW   0000000180074168     kernel32:KERNEL32.dll
 0002:00000170       __imp_WriteConsoleW        0000000180074170     kernel32:KERNEL32.dll
 0002:00000178       __imp_ExitProcess          0000000180074178     kernel32:KERNEL32.dll
 0002:00000180       __imp_HeapAlloc            0000000180074180     kernel32:KERNEL32.dll
 0002:00000188       __imp_HeapSize             0000000180074188     kernel32:KERNEL32.dll
 0002:00000190       __imp_HeapValidate         0000000180074190     kernel32:KERNEL32.dll
 0002:00000198       __imp_GetSystemInfo        0000000180074198     kernel32:KERNEL32.dll
 0002:000001a0       __imp_GetConsoleMode       00000001800741a0     kernel32:KERNEL32.dll
 0002:000001a8       __imp_ReadConsoleW         00000001800741a8     kernel32:KERNEL32.dll
 0002:000001b0       __imp_SetFilePointerEx     00000001800741b0     kernel32:KERNEL32.dll
 0002:000001b8       __imp_WriteFile            00000001800741b8     kernel32:KERNEL32.dll
 0002:000001c0       __imp_OutputDebugStringW   00000001800741c0     kernel32:KERNEL32.dll
 0002:000001c8       __imp_FindClose            00000001800741c8     kernel32:KERNEL32.dll
 0002:000001d0       __imp_FindFirstFileExW     00000001800741d0     kernel32:KERNEL32.dll
 0002:000001d8       __imp_FindNextFileW        00000001800741d8     kernel32:KERNEL32.dll
 0002:000001e0       __imp_IsValidCodePage      00000001800741e0     kernel32:KERNEL32.dll
 0002:000001e8       __imp_GetACP               00000001800741e8     kernel32:KERNEL32.dll
 0002:000001f0       __imp_GetOEMCP             00000001800741f0     kernel32:KERNEL32.dll
 0002:000001f8       __imp_GetCPInfo            00000001800741f8     kernel32:KERNEL32.dll
 0002:00000200       __imp_GetCommandLineA      0000000180074200     kernel32:KERNEL32.dll
 0002:00000208       __imp_GetCommandLineW      0000000180074208     kernel32:KERNEL32.dll
 0002:00000210       __imp_MultiByteToWideChar  0000000180074210     kernel32:KERNEL32.dll
 0002:00000218       __imp_WideCharToMultiByte  0000000180074218     kernel32:KERNEL32.dll
 0002:00000220       __imp_GetEnvironmentStringsW 0000000180074220     kernel32:KERNEL32.dll
 0002:00000228       __imp_FreeEnvironmentStringsW 0000000180074228     kernel32:KERNEL32.dll
 0002:00000230       __imp_LCMapStringW         0000000180074230     kernel32:KERNEL32.dll
 0002:00000238       __imp_GetProcessHeap       0000000180074238     kernel32:KERNEL32.dll
 0002:00000240       __imp_HeapFree             0000000180074240     kernel32:KERNEL32.dll
 0002:00000248       __imp_HeapReAlloc          0000000180074248     kernel32:KERNEL32.dll
 0002:00000250       __imp_HeapQueryInformation 0000000180074250     kernel32:KERNEL32.dll
 0002:00000258       __imp_GetStringTypeW       0000000180074258     kernel32:KERNEL32.dll
 0002:00000260       __imp_CreateFileW          0000000180074260     kernel32:KERNEL32.dll
 0002:00000268       __imp_SetStdHandle         0000000180074268     kernel32:KERNEL32.dll
 0002:00000270       __imp_FlushFileBuffers     0000000180074270     kernel32:KERNEL32.dll
 0002:00000278       __imp_GetConsoleOutputCP   0000000180074278     kernel32:KERNEL32.dll
 0002:00000280       __imp_RtlUnwind            0000000180074280     kernel32:KERNEL32.dll
 0002:00000288       \177KERNEL32_NULL_THUNK_DATA 0000000180074288     kernel32:KERNEL32.dll
 0002:00000290       __guard_check_icall_fptr   0000000180074290     LIBCMTD:guard_support.obj
 0002:00000298       __guard_dispatch_icall_fptr 0000000180074298     LIBCMTD:guard_support.obj
 0002:000002a0       __xc_a                     00000001800742a0     LIBCMTD:initializers.obj
 0002:000002a8       __xc_z                     00000001800742a8     LIBCMTD:initializers.obj
 0002:000002b0       __xi_a                     00000001800742b0     LIBCMTD:initializers.obj
 0002:000002b8       __acrt_stdio_initializer   00000001800742b8     libucrtd:stdio_initializer.obj
 0002:000002c0       __acrt_tran_fma3_initializer 00000001800742c0     libucrtd:fma3_initializer.obj
 0002:000002c8       __acrt_multibyte_initializer 00000001800742c8     libucrtd:multibyte_initializer.obj
 0002:000002d0       __acrt_fmode_initializer   00000001800742d0     libucrtd:fmode_initializer.obj
 0002:000002d8       __xi_z                     00000001800742d8     LIBCMTD:initializers.obj
 0002:000002e0       __xl_a                     00000001800742e0     LIBCMTD:tlssup.obj
 0002:000002e8       __xl_z                     00000001800742e8     LIBCMTD:tlssup.obj
 0002:000002f0       __xp_a                     00000001800742f0     LIBCMTD:initializers.obj
 0002:000002f8       __acrt_locale_terminator   00000001800742f8     libucrtd:locale_initializer.obj
 0002:00000300       __dcrt_console_output_terminator 0000000180074300     libucrtd:console_output_initializer.obj
 0002:00000308       __acrt_stdio_terminator    0000000180074308     libucrtd:stdio_initializer.obj
 0002:00000310       __xp_z                     0000000180074310     LIBCMTD:initializers.obj
 0002:00000318       __xt_a                     0000000180074318     LIBCMTD:initializers.obj
 0002:00000320       __xt_z                     0000000180074320     LIBCMTD:initializers.obj
 0002:000020d0       ??_C@_0BC@CEJOOBCO@Invalid?5Code?5Path@ 00000001800760d0     pixel_art_demo.obj
 0002:000020e4       ??_C@_04GHJNJNPO@main@     00000001800760e4     pixel_art_demo.obj
 0002:000020f0       ??_C@_0DC@DFDLDOOO@D?3?2Code?2Libs?2framework_vulkan?2f@ 00000001800760f0     pixel_art_demo.obj
 0002:00002128       ??_C@_0BG@HBCIDECD@vkGetInstanceProcAddr@ 0000000180076128     pixel_art_demo.obj
 0002:00002140       ??_C@_0BB@EIEAKGGC@vkCreateInstance@ 0000000180076140     pixel_art_demo.obj
 0002:00002158       ??_C@_0CH@DNHGEPME@vkEnumerateInstanceExtensionPro@ 0000000180076158     pixel_art_demo.obj
 0002:00002180       ??_C@_0CD@OBEAIOFF@vkEnumerateInstanceLayerPropert@ 0000000180076180     pixel_art_demo.obj
 0002:000021a8       ??_C@_0BC@CIPIPPNH@vkDestroyInstance@ 00000001800761a8     pixel_art_demo.obj
 0002:000021c0       ??_C@_0BL@DFPDILFK@vkEnumeratePhysicalDevices@ 00000001800761c0     pixel_art_demo.obj
 0002:000021e0       ??_C@_0BO@NNIAOKH@vkGetPhysicalDeviceProperties@ 00000001800761e0     pixel_art_demo.obj
 0002:00002200       ??_C@_0BM@CGKNLAIF@vkGetPhysicalDeviceFeatures@ 0000000180076200     pixel_art_demo.obj
 0002:00002220       ??_C@_0CJ@IDACLAAE@vkGetPhysicalDeviceQueueFamilyP@ 0000000180076220     pixel_art_demo.obj
 0002:00002250       ??_C@_0P@KHGBEFEA@vkCreateDevice@ 0000000180076250     pixel_art_demo.obj
 0002:00002260       ??_C@_0BE@FIFNFHEG@vkGetDeviceProcAddr@ 0000000180076260     pixel_art_demo.obj
 0002:00002278       ??_C@_0CF@HGNCFNIG@vkEnumerateDeviceExtensionPrope@ 0000000180076278     pixel_art_demo.obj
 0002:000022a0       ??_C@_0BE@NMLOINDF@vkDestroySurfaceKHR@ 00000001800762a0     pixel_art_demo.obj
 0002:000022b8       ??_C@_0CF@KCGJHCCP@vkGetPhysicalDeviceSurfaceSuppo@ 00000001800762b8     pixel_art_demo.obj
 0002:000022e0       ??_C@_0CK@LHGCODEN@vkGetPhysicalDeviceSurfaceCapab@ 00000001800762e0     pixel_art_demo.obj
 0002:00002310       ??_C@_0CF@LAEKEDKL@vkGetPhysicalDeviceSurfaceForma@ 0000000180076310     pixel_art_demo.obj
 0002:00002338       ??_C@_0CK@ONBJHPIF@vkGetPhysicalDeviceSurfacePrese@ 0000000180076338     pixel_art_demo.obj
 0002:00002368       ??_C@_0BI@INMBJMIJ@vkCreateWin32SurfaceKHR@ 0000000180076368     pixel_art_demo.obj
 0002:00002380       ??_C@_0CE@DNKEFNG@vkGetPhysicalDeviceMemoryProper@ 0000000180076380     pixel_art_demo.obj
 0002:000023a8       ??_C@_0CE@CEAFLIGF@vkGetPhysicalDeviceFormatProper@ 00000001800763a8     pixel_art_demo.obj
 0002:000023d0       ??_C@_0BB@JLPAGEHI@vkGetDeviceQueue@ 00000001800763d0     pixel_art_demo.obj
 0002:000023e8       ??_C@_0BA@BNDMPHAN@vkDestroyDevice@ 00000001800763e8     pixel_art_demo.obj
 0002:000023f8       ??_C@_0BB@LDOONJCF@vkDeviceWaitIdle@ 00000001800763f8     pixel_art_demo.obj
 0002:00002410       ??_C@_0BA@CKODHPBK@vkQueueWaitIdle@ 0000000180076410     pixel_art_demo.obj
 0002:00002420       ??_C@_0BF@LAOLFHPB@vkCreateSwapchainKHR@ 0000000180076420     pixel_art_demo.obj
 0002:00002438       ??_C@_0BG@JIIELJIO@vkDestroySwapchainKHR@ 0000000180076438     pixel_art_demo.obj
 0002:00002450       ??_C@_0BI@ENKOCHJN@vkGetSwapchainImagesKHR@ 0000000180076450     pixel_art_demo.obj
 0002:00002468       ??_C@_0BG@DJMKCOKI@vkAcquireNextImageKHR@ 0000000180076468     pixel_art_demo.obj
 0002:00002480       ??_C@_0BC@DGDLPOJO@vkQueuePresentKHR@ 0000000180076480     pixel_art_demo.obj
 0002:00002498       ??_C@_0BC@EBAFOOGP@vkCreateSemaphore@ 0000000180076498     pixel_art_demo.obj
 0002:000024b0       ??_C@_0O@IHLADMGD@vkQueueSubmit@ 00000001800764b0     pixel_art_demo.obj
 0002:000024c0       ??_C@_0BE@EKCNHPIE@vkCreateCommandPool@ 00000001800764c0     pixel_art_demo.obj
 0002:000024d8       ??_C@_0BJ@DFIMKCPH@vkAllocateCommandBuffers@ 00000001800764d8     pixel_art_demo.obj
 0002:000024f8       ??_C@_0BF@ELGCKIPI@vkBeginCommandBuffer@ 00000001800764f8     pixel_art_demo.obj
 0002:00002510       ??_C@_0BF@MLKJDNIH@vkCmdPipelineBarrier@ 0000000180076510     pixel_art_demo.obj
 0002:00002528       ??_C@_0BF@KMOJHLNN@vkCmdClearColorImage@ 0000000180076528     pixel_art_demo.obj
 0002:00002540       ??_C@_0BD@LGACMFFB@vkEndCommandBuffer@ 0000000180076540     pixel_art_demo.obj
 0002:00002558       ??_C@_0BC@PHNCHCBG@vkCreateImageView@ 0000000180076558     pixel_art_demo.obj
 0002:00002570       ??_C@_0BD@IHGACEAD@vkCreateRenderPass@ 0000000180076570     pixel_art_demo.obj
 0002:00002588       ??_C@_0BE@KMAPGMMD@vkCreateFramebuffer@ 0000000180076588     pixel_art_demo.obj
 0002:000025a0       ??_C@_0BF@FFAADJEJ@vkCreateShaderModule@ 00000001800765a0     pixel_art_demo.obj
 0002:000025b8       ??_C@_0BH@DEIGKOOG@vkCreatePipelineLayout@ 00000001800765b8     pixel_art_demo.obj
 0002:000025d0       ??_C@_0BK@BKKHOKEM@vkCreateGraphicsPipelines@ 00000001800765d0     pixel_art_demo.obj
 0002:000025f0       ??_C@_0BF@FPIIGCOO@vkCmdBeginRenderPass@ 00000001800765f0     pixel_art_demo.obj
 0002:00002608       ??_C@_0BC@EOGEKKNK@vkCmdBindPipeline@ 0000000180076608     pixel_art_demo.obj
 0002:00002620       ??_C@_09KCCMAAPA@vkCmdDraw@ 0000000180076620     pixel_art_demo.obj
 0002:00002630       ??_C@_0BD@JHGDNNBP@vkCmdEndRenderPass@ 0000000180076630     pixel_art_demo.obj
 0002:00002648       ??_C@_0O@LIBDEIBI@vkCreateFence@ 0000000180076648     pixel_art_demo.obj
 0002:00002658       ??_C@_0P@POOKANBB@vkCreateBuffer@ 0000000180076658     pixel_art_demo.obj
 0002:00002668       ??_C@_0BO@KPEBBPKP@vkGetBufferMemoryRequirements@ 0000000180076668     pixel_art_demo.obj
 0002:00002688       ??_C@_0BB@JJHAPMEH@vkAllocateMemory@ 0000000180076688     pixel_art_demo.obj
 0002:000026a0       ??_C@_0BD@KGCOAEHD@vkBindBufferMemory@ 00000001800766a0     pixel_art_demo.obj
 0002:000026b8       ??_C@_0M@GGCOCEOH@vkMapMemory@ 00000001800766b8     pixel_art_demo.obj
 0002:000026c8       ??_C@_0BK@EAPEOHNL@vkFlushMappedMemoryRanges@ 00000001800766c8     pixel_art_demo.obj
 0002:000026e8       ??_C@_0O@GGHCKANL@vkUnmapMemory@ 00000001800766e8     pixel_art_demo.obj
 0002:000026f8       ??_C@_0BB@KKNBMCNI@vkCmdSetViewport@ 00000001800766f8     pixel_art_demo.obj
 0002:00002710       ??_C@_0BA@PAIBKKDE@vkCmdSetScissor@ 0000000180076710     pixel_art_demo.obj
 0002:00002720       ??_C@_0BH@DIGFIBII@vkCmdBindVertexBuffers@ 0000000180076720     pixel_art_demo.obj
 0002:00002738       ??_C@_0BA@KNKMFLMO@vkWaitForFences@ 0000000180076738     pixel_art_demo.obj
 0002:00002748       ??_C@_0O@DNPNOMFA@vkResetFences@ 0000000180076748     pixel_art_demo.obj
 0002:00002758       ??_C@_0N@CHGOJOGH@vkFreeMemory@ 0000000180076758     pixel_art_demo.obj
 0002:00002768       ??_C@_0BA@EELHLPFM@vkDestroyBuffer@ 0000000180076768     pixel_art_demo.obj
 0002:00002778       ??_C@_0P@DFJHAAOM@vkDestroyFence@ 0000000180076778     pixel_art_demo.obj
 0002:00002788       ??_C@_0BF@MBFJINPL@vkDestroyFramebuffer@ 0000000180076788     pixel_art_demo.obj
 0002:000027a0       ??_C@_0BA@KDIBBLOF@vkCmdCopyBuffer@ 00000001800767a0     pixel_art_demo.obj
 0002:000027b0       ??_C@_0O@CGFPAJIG@vkCreateImage@ 00000001800767b0     pixel_art_demo.obj
 0002:000027c0       ??_C@_0BN@OGDFKDMI@vkGetImageMemoryRequirements@ 00000001800767c0     pixel_art_demo.obj
 0002:000027e0       ??_C@_0BC@PDCNGLMF@vkBindImageMemory@ 00000001800767e0     pixel_art_demo.obj
 0002:000027f8       ??_C@_0BA@LFMBDAHN@vkCreateSampler@ 00000001800767f8     pixel_art_demo.obj
 0002:00002808       ??_C@_0BH@NIDOKPGI@vkCmdCopyBufferToImage@ 0000000180076808     pixel_art_demo.obj
 0002:00002820       ??_C@_0BM@NKHFNKMI@vkCreateDescriptorSetLayout@ 0000000180076820     pixel_art_demo.obj
 0002:00002840       ??_C@_0BH@IOGFOLOM@vkCreateDescriptorPool@ 0000000180076840     pixel_art_demo.obj
 0002:00002858       ??_C@_0BJ@IKIJDGHP@vkAllocateDescriptorSets@ 0000000180076858     pixel_art_demo.obj
 0002:00002878       ??_C@_0BH@NLKENCKJ@vkUpdateDescriptorSets@ 0000000180076878     pixel_art_demo.obj
 0002:00002890       ??_C@_0BI@MGEIFFAB@vkCmdBindDescriptorSets@ 0000000180076890     pixel_art_demo.obj
 0002:000028a8       ??_C@_0BI@GBHAGJMF@vkDestroyDescriptorPool@ 00000001800768a8     pixel_art_demo.obj
 0002:000028c0       ??_C@_0BN@JCPPGHLF@vkDestroyDescriptorSetLayout@ 00000001800768c0     pixel_art_demo.obj
 0002:000028e0       ??_C@_0BB@LNBGFAOC@vkDestroySampler@ 00000001800768e0     pixel_art_demo.obj
 0002:000028f8       ??_C@_0P@KLNLEBHC@vkDestroyImage@ 00000001800768f8     pixel_art_demo.obj
 0002:00002908       ??_C@_0BB@MJKPPB@vkCmdNextSubpass@ 0000000180076908     pixel_art_demo.obj
 0002:00002920       ??_C@_0BF@EGPIEIPD@vkFreeCommandBuffers@ 0000000180076920     pixel_art_demo.obj
 0002:00002938       ??_C@_0BF@OAHPGKCL@vkCmdExecuteCommands@ 0000000180076938     pixel_art_demo.obj
 0002:00002950       ??_C@_0BJ@PGJEOIIP@vkCreateComputePipelines@ 0000000180076950     pixel_art_demo.obj
 0002:00002970       ??_C@_0O@OMKANCAP@vkCmdDispatch@ 0000000180076970     pixel_art_demo.obj
 0002:00002980       ??_C@_0BA@KBGHEJMK@vkCmdFillBuffer@ 0000000180076980     pixel_art_demo.obj
 0002:00002990       ??_C@_0BD@EDDLCHJM@vkCmdPushConstants@ 0000000180076990     pixel_art_demo.obj
 0002:000029a8       ??_C@_0BG@HNGPNHDG@vkDestroyShaderModule@ 00000001800769a8     pixel_art_demo.obj
 0002:000029c0       ??_C@_0BD@MBPGADMM@vkCreateBufferView@ 00000001800769c0     pixel_art_demo.obj
 0002:000029d8       ??_C@_0BF@FOEEMCKJ@vkCmdBindIndexBuffer@ 00000001800769d8     pixel_art_demo.obj
 0002:000029f0       ??_C@_0BB@EJMHFNEG@vkCmdDrawIndexed@ 00000001800769f0     pixel_art_demo.obj
 0002:00002a08       ??_C@_0BD@EMLJINEM@vkDestroyImageView@ 0000000180076a08     pixel_art_demo.obj
 0002:00002a20       ??_C@_0BC@BPIBMICA@vkCreateQueryPool@ 0000000180076a20     pixel_art_demo.obj
 0002:00002a38       ??_C@_0BE@IDGDHNEF@vkCmdResetQueryPool@ 0000000180076a38     pixel_art_demo.obj
 0002:00002a50       ??_C@_0BG@KOBGMNJG@vkGetQueryPoolResults@ 0000000180076a50     pixel_art_demo.obj
 0002:00002a68       ??_C@_0BE@IILBLIHA@vkCmdWriteTimestamp@ 0000000180076a68     pixel_art_demo.obj
 0002:00002a80       ??_C@_0P@IENCOMCD@VK_KHR_surface@ 0000000180076a80     pixel_art_demo.obj
 0002:00002a90       ??_C@_0BF@COCMEDFO@VK_KHR_win32_surface@ 0000000180076a90     pixel_art_demo.obj
 0002:00002aa8       ??_C@_06COGLIGFC@Dragon@   0000000180076aa8     pixel_art_demo.obj
 0002:00002ab0       ??_C@_0BM@LGHMGEMH@VK_LAYER_KHRONOS_validation@ 0000000180076ab0     pixel_art_demo.obj
 0002:00002ad0       ??_C@_0BB@MGNLFLJB@VK_KHR_swapchain@ 0000000180076ad0     pixel_art_demo.obj
 0002:00002b18       __real@00000000            0000000180076b18     pixel_art_demo.obj
 0002:00002b1c       __real@38d1b717            0000000180076b1c     pixel_art_demo.obj
 0002:00002b20       __real@3e800000            0000000180076b20     pixel_art_demo.obj
 0002:00002b24       __real@3f000000            0000000180076b24     pixel_art_demo.obj
 0002:00002b28       __real@3f800000            0000000180076b28     pixel_art_demo.obj
 0002:00002b30       __real@3ff0000000000000    0000000180076b30     pixel_art_demo.obj
 0002:00002b38       __real@40000000            0000000180076b38     pixel_art_demo.obj
 0002:00002b3c       __real@40400000            0000000180076b3c     pixel_art_demo.obj
 0002:00002b40       __real@40c90fdb            0000000180076b40     pixel_art_demo.obj
 0002:00002b44       __real@437f0000            0000000180076b44     pixel_art_demo.obj
 0002:00002b48       __real@477fff00            0000000180076b48     pixel_art_demo.obj
 0002:00002b4c       __real@bf000000            0000000180076b4c     pixel_art_demo.obj
 0002:00002b50       __real@bf800000            0000000180076b50     pixel_art_demo.obj
 0002:00002b60       __xmm@00000200000002000000020000000200 0000000180076b60     pixel_art_demo.obj
 0002:00002b70       __xmm@00080008000800080008000800080008 0000000180076b70     pixel_art_demo.obj
 0002:00002b80       __xmm@00ff00ff00ff00ff00ff00ff00ff00ff 0000000180076b80     pixel_art_demo.obj
 0002:00002b90       __xmm@01010000010100000101000001010000 0000000180076b90     pixel_art_demo.obj
 0002:00002ba0       __xmm@08a914e808a914e808a914e808a914e8 0000000180076ba0     pixel_art_demo.obj
 0002:00002bb0       __xmm@11c8e09e11c8e09e11c8e09e11c8e09e 0000000180076bb0     pixel_art_demo.obj
 0002:00002bc0       __xmm@11c8f9c311c8f9c311c8f9c311c8f9c3 0000000180076bc0     pixel_art_demo.obj
 0002:00002bd0       __xmm@12d0046b12d0046b12d0046b12d0046b 0000000180076bd0     pixel_art_demo.obj
 0002:00002be0       __xmm@166f166f166f166f166f166f166f166f 0000000180076be0     pixel_art_demo.obj
 0002:00002bf0       __xmm@1c5a1c5a1c5a1c5a1c5a1c5a1c5a1c5a 0000000180076bf0     pixel_art_demo.obj
 0002:00002c00       __xmm@80000000800000008000000080000000 0000000180076c00     pixel_art_demo.obj
 0002:00002c10       __xmm@80808080808080808080808080808080 0000000180076c10     pixel_art_demo.obj
 0002:00002c20       __xmm@e09ee565e09ee565e09ee565e09ee565 0000000180076c20     pixel_art_demo.obj
 0002:00002c30       __xmm@e9cf12d0e9cf12d0e9cf12d0e9cf12d0 0000000180076c30     pixel_art_demo.obj
 0002:00002c40       __xmm@eb1a08a9eb1a08a9eb1a08a9eb1a08a9 0000000180076c40     pixel_art_demo.obj
 0002:00002c50       __xmm@f493f493f493f493f493f493f493f493 0000000180076c50     pixel_art_demo.obj
 0002:00002c60       __xmm@f9c31a9df9c31a9df9c31a9df9c31a9d 0000000180076c60     pixel_art_demo.obj
 0002:00002c70       __xmm@fa7efa7efa7efa7efa7efa7efa7efa7e 0000000180076c70     pixel_art_demo.obj
 0002:00002c80       _pDefaultRawDllMain        0000000180076c80     LIBCMTD:dll_dllmain.obj
 0002:00002c80       _pRawDllMain               0000000180076c80     LIBCMTD:dll_dllmain.obj
 0002:00002c98       _pDestructExceptionObject  0000000180076c98     libvcruntimed:ehhelpers.obj
 0002:00002fd8       ??_C@_08EHJDFFNH@__based?$CI@ 0000000180076fd8     libvcruntimed:undname.obj
 0002:00002fe8       ??_C@_07KOLFKCDI@__cdecl@  0000000180076fe8     libvcruntimed:undname.obj
 0002:00002ff0       ??_C@_08GHMPAG@__pascal@   0000000180076ff0     libvcruntimed:undname.obj
 0002:00003000       ??_C@_09IFJBGAPI@__stdcall@ 0000000180077000     libvcruntimed:undname.obj
 0002:00003010       ??_C@_0L@NPHFGOKO@__thiscall@ 0000000180077010     libvcruntimed:undname.obj
 0002:00003020       ??_C@_0L@JMKHOMEK@__fastcall@ 0000000180077020     libvcruntimed:undname.obj
 0002:00003030       ??_C@_0N@BCKKPABJ@__vectorcall@ 0000000180077030     libvcruntimed:undname.obj
 0002:00003040       ??_C@_09HIJEGCPM@__clrcall@ 0000000180077040     libvcruntimed:undname.obj
 0002:0000304c       ??_C@_06GHPCKEAG@__eabi@   000000018007704c     libvcruntimed:undname.obj
 0002:00003058       ??_C@_09IOPIDJLG@__swift_1@ 0000000180077058     libvcruntimed:undname.obj
 0002:00003068       ??_C@_09KFNFGKHF@__swift_2@ 0000000180077068     libvcruntimed:undname.obj
 0002:00003078       ??_C@_07JOMMBBKO@__ptr64@  0000000180077078     libvcruntimed:undname.obj
 0002:00003080       ??_C@_0L@PILCLIHE@__restrict@ 0000000180077080     libvcruntimed:undname.obj
 0002:00003090       ??_C@_0M@GFIIJFMG@__unaligned@ 0000000180077090     libvcruntimed:undname.obj
 0002:000030a0       ??_C@_09DHDLOLLB@restrict?$CI@ 00000001800770a0     libvcruntimed:undname.obj
 0002:000030aa       ??_C@_00CNPNBAHC@@         00000001800770aa     libvcruntimed:undname.obj
 0002:000030ac       ??_C@_04NIHEBCM@?5new@     00000001800770ac     libvcruntimed:undname.obj
 0002:000030b8       ??_C@_07FPCDHGMM@?5delete@ 00000001800770b8     libvcruntimed:undname.obj
 0002:000030c0       ??_C@_01NEMOKFLO@?$DN@     00000001800770c0     libvcruntimed:undname.obj
 0002:000030c4       ??_C@_02GPIOPFAK@?$DO?$DO@ 00000001800770c4     libvcruntimed:undname.obj
 0002:000030c8       ??_C@_02FODMEDOG@?$DM?$DM@ 00000001800770c8     libvcruntimed:undname.obj
 0002:000030cc       ??_C@_01DCLJPIOD@?$CB@     00000001800770cc     libvcruntimed:undname.obj
 0002:000030d0       ??_C@_02EGOFBIJA@?$DN?$DN@ 00000001800770d0     libvcruntimed:undname.obj
 0002:000030d4       ??_C@_02FDNJECIE@?$CB?$DN@ 00000001800770d4     libvcruntimed:undname.obj
 0002:000030d8       ??_C@_02GPECMEKF@?$FL?$FN@ 00000001800770d8     libvcruntimed:undname.obj
 0002:000030e0       ??_C@_08LHJFAFGD@operator@ 00000001800770e0     libvcruntimed:undname.obj
 0002:000030ec       ??_C@_02HBOOOICD@?9?$DO@   00000001800770ec     libvcruntimed:undname.obj
 0002:000030f0       ??_C@_01NBENCBCI@?$CK@     00000001800770f0     libvcruntimed:undname.obj
 0002:000030f4       ??_C@_02ECNGHCIF@?$CL?$CL@ 00000001800770f4     libvcruntimed:undname.obj
 0002:000030f8       ??_C@_02BAABKJLB@?9?9@     00000001800770f8     libvcruntimed:undname.obj
 0002:000030fc       ??_C@_01JOAMLHOP@?9@       00000001800770fc     libvcruntimed:undname.obj
 0002:00003100       ??_C@_01MIFGBAGJ@?$CL@     0000000180077100     libvcruntimed:undname.obj
 0002:00003104       ??_C@_01HNPIGOCE@?$CG@     0000000180077104     libvcruntimed:undname.obj
 0002:00003108       ??_C@_03MNHNFDLC@?9?$DO?$CK@ 0000000180077108     libvcruntimed:undname.obj
 0002:0000310c       ??_C@_01KMDKNFGN@?1@       000000018007710c     libvcruntimed:undname.obj
 0002:00003110       ??_C@_01FGNFDNOH@?$CF@     0000000180077110     libvcruntimed:undname.obj
 0002:00003114       ??_C@_01MNNFJEPP@?$DM@     0000000180077114     libvcruntimed:undname.obj
 0002:00003118       ??_C@_02EHCHHCKH@?$DM?$DN@ 0000000180077118     libvcruntimed:undname.obj
 0002:0000311c       ??_C@_01PPODPGHN@?$DO@     000000018007711c     libvcruntimed:undname.obj
 0002:00003120       ??_C@_02EEKDKGMJ@?$DO?$DN@ 0000000180077120     libvcruntimed:undname.obj
 0002:00003124       ??_C@_01IHBHIGKO@?0@       0000000180077124     libvcruntimed:undname.obj
 0002:00003128       ??_C@_02HCKGKOFO@?$CI?$CJ@ 0000000180077128     libvcruntimed:undname.obj
 0002:0000312c       ??_C@_01PJKLJHI@?$HO@      000000018007712c     libvcruntimed:undname.obj
 0002:00003130       ??_C@_01JKBOJNNK@?$FO@     0000000180077130     libvcruntimed:undname.obj
 0002:00003134       ??_C@_01DNKMNLPK@?$HM@     0000000180077134     libvcruntimed:undname.obj
 0002:00003138       ??_C@_02PPKAJPJL@?$CG?$CG@ 0000000180077138     libvcruntimed:undname.obj
 0002:0000313c       ??_C@_02NONPIBCD@?$HM?$HM@ 000000018007713c     libvcruntimed:undname.obj
 0002:00003140       ??_C@_02FPIMKNGF@?$CK?$DN@ 0000000180077140     libvcruntimed:undname.obj
 0002:00003144       ??_C@_02FOEOMHFC@?$CL?$DN@ 0000000180077144     libvcruntimed:undname.obj
 0002:00003148       ??_C@_02FKMDLLOA@?9?$DN@   0000000180077148     libvcruntimed:undname.obj
 0002:0000314c       ??_C@_02FJEHGPIO@?1?$DN@   000000018007714c     libvcruntimed:undname.obj
 0002:00003150       ??_C@_02FENAOKFI@?$CF?$DN@ 0000000180077150     libvcruntimed:undname.obj
 0002:00003154       ??_C@_03IKFCCPFF@?$DO?$DO?$DN@ 0000000180077154     libvcruntimed:undname.obj
 0002:00003158       ??_C@_03CDNPDDLA@?$DM?$DM?$DN@ 0000000180077158     libvcruntimed:undname.obj
 0002:0000315c       ??_C@_02FGJGFEAB@?$CG?$DN@ 000000018007715c     libvcruntimed:undname.obj
 0002:00003160       ??_C@_02DHLNPPGH@?$HM?$DN@ 0000000180077160     libvcruntimed:undname.obj
 0002:00003164       ??_C@_02MHEGNOJ@?$FO?$DN@  0000000180077164     libvcruntimed:undname.obj
 0002:00003168       ??_C@_09IFPLHPGF@?$GAvftable?8@ 0000000180077168     libvcruntimed:undname.obj
 0002:00003178       ??_C@_09BLBHBJP@?$GAvbtable?8@ 0000000180077178     libvcruntimed:undname.obj
 0002:00003188       ??_C@_07FEEIOKP@?$GAvcall?8@ 0000000180077188     libvcruntimed:undname.obj
 0002:00003190       ??_C@_08LLFFHHDJ@?$GAtypeof?8@ 0000000180077190     libvcruntimed:undname.obj
 0002:000031a0       ??_C@_0BF@KDPPACIK@?$GAlocal?5static?5guard?8@ 00000001800771a0     libvcruntimed:undname.obj
 0002:000031b8       ??_C@_08OBABFOLI@?$GAstring?8@ 00000001800771b8     libvcruntimed:undname.obj
 0002:000031c8       ??_C@_0BD@JDLKDPAB@?$GAvbase?5destructor?8@ 00000001800771c8     libvcruntimed:undname.obj
 0002:000031e0       ??_C@_0BN@DEGPLNFK@?$GAvector?5deleting?5destructor?8@ 00000001800771e0     libvcruntimed:undname.obj
 0002:00003200       ??_C@_0BO@OBMKPJIG@?$GAdefault?5constructor?5closure?8@ 0000000180077200     libvcruntimed:undname.obj
 0002:00003220       ??_C@_0BN@IMDCHIKM@?$GAscalar?5deleting?5destructor?8@ 0000000180077220     libvcruntimed:undname.obj
 0002:00003240       ??_C@_0BO@PFGOCPJJ@?$GAvector?5constructor?5iterator?8@ 0000000180077240     libvcruntimed:undname.obj
 0002:00003260       ??_C@_0BN@LFPFMEDL@?$GAvector?5destructor?5iterator?8@ 0000000180077260     libvcruntimed:undname.obj
 0002:00003280       ??_C@_0CE@IKBNEHA@?$GAvector?5vbase?5constructor?5itera@ 0000000180077280     libvcruntimed:undname.obj
 0002:000032a8       ??_C@_0BL@NILFHHPC@?$GAvirtual?5displacement?5map?8@ 00000001800772a8     libvcruntimed:undname.obj
 0002:000032c8       ??_C@_0CB@JONCMFFK@?$GAeh?5vector?5constructor?5iterator@ 00000001800772c8     libvcruntimed:undname.obj
 0002:000032f0       ??_C@_0CA@GCEOPDGL@?$GAeh?5vector?5destructor?5iterator?8@ 00000001800772f0     libvcruntimed:undname.obj
 0002:00003310       ??_C@_0CH@OOJPLCPH@?$GAeh?5vector?5vbase?5constructor?5it@ 0000000180077310     libvcruntimed:undname.obj
 0002:00003338       ??_C@_0BL@LLKPOHJI@?$GAcopy?5constructor?5closure?8@ 0000000180077338     libvcruntimed:undname.obj
 0002:00003358       ??_C@_0BA@KBCDOMBN@?$GAudt?5returning?8@ 0000000180077358     libvcruntimed:undname.obj
 0002:00003368       ??_C@_03KLGMFNMG@?$GAEH@   0000000180077368     libvcruntimed:undname.obj
 0002:0000336c       ??_C@_05KHLCHHI@?$GARTTI@  000000018007736c     libvcruntimed:undname.obj
 0002:00003378       ??_C@_0BA@KKLDJDLB@?$GAlocal?5vftable?8@ 0000000180077378     libvcruntimed:undname.obj
 0002:00003388       ??_C@_0CE@IIHCMGGL@?$GAlocal?5vftable?5constructor?5clos@ 0000000180077388     libvcruntimed:undname.obj
 0002:000033ac       ??_C@_06FHBGPFGH@?5new?$FL?$FN@ 00000001800773ac     libvcruntimed:undname.obj
 0002:000033b8       ??_C@_09LBNFPBCA@?5delete?$FL?$FN@ 00000001800773b8     libvcruntimed:undname.obj
 0002:000033c8       ??_C@_0P@HJKNJFNN@?$GAomni?5callsig?8@ 00000001800773c8     libvcruntimed:undname.obj
 0002:000033d8       ??_C@_0BL@CNOONJFP@?$GAplacement?5delete?5closure?8@ 00000001800773d8     libvcruntimed:undname.obj
 0002:000033f8       ??_C@_0BN@CKNJLHMB@?$GAplacement?5delete?$FL?$FN?5closure?8@ 00000001800773f8     libvcruntimed:undname.obj
 0002:00003418       ??_C@_0CG@CFDHKGGD@?$GAmanaged?5vector?5constructor?5ite@ 0000000180077418     libvcruntimed:undname.obj
 0002:00003440       ??_C@_0CF@IMGKMJNO@?$GAmanaged?5vector?5destructor?5iter@ 0000000180077440     libvcruntimed:undname.obj
 0002:00003468       ??_C@_0CG@HLDDJMAG@?$GAeh?5vector?5copy?5constructor?5ite@ 0000000180077468     libvcruntimed:undname.obj
 0002:00003490       ??_C@_0CM@FCBBDIGB@?$GAeh?5vector?5vbase?5copy?5construct@ 0000000180077490     libvcruntimed:undname.obj
 0002:000034c0       ??_C@_0BL@CLIPGLGB@?$GAdynamic?5initializer?5for?5?8@ 00000001800774c0     libvcruntimed:undname.obj
 0002:000034e0       ??_C@_0CB@PDBIFEP@?$GAdynamic?5atexit?5destructor?5for?5@ 00000001800774e0     libvcruntimed:undname.obj
 0002:00003508       ??_C@_0CD@CGAJBKEJ@?$GAvector?5copy?5constructor?5iterat@ 0000000180077508     libvcruntimed:undname.obj
 0002:00003530       ??_C@_0CJ@GJELGAMM@?$GAvector?5vbase?5copy?5constructor?5@ 0000000180077530     libvcruntimed:undname.obj
 0002:00003560       ??_C@_0CL@FGIJHLCE@?$GAmanaged?5vector?5copy?5constructo@ 0000000180077560     libvcruntimed:undname.obj
 0002:00003590       ??_C@_0BM@PMGGMLDN@?$GAlocal?5static?5thread?5guard?8@ 0000000180077590     libvcruntimed:undname.obj
 0002:000035b0       ??_C@_0N@BDNMDMOL@operator?5?$CC?$CC?5@ 00000001800775b0     libvcruntimed:undname.obj
 0002:000035c0       ??_C@_0BC@GGEBGALA@operator?5co_await@ 00000001800775c0     libvcruntimed:undname.obj
 0002:000035d8       ??_C@_0BC@DAFEJGAK@?5Type?5Descriptor?8@ 00000001800775d8     libvcruntimed:undname.obj
 0002:000035f0       ??_C@_0BM@LDKODKLH@?5Base?5Class?5Descriptor?5at?5?$CI@ 00000001800775f0     libvcruntimed:undname.obj
 0002:00003610       ??_C@_0BD@LGICGFMM@?5Base?5Class?5Array?8@ 0000000180077610     libvcruntimed:undname.obj
 0002:00003628       ??_C@_0BN@MECKDCOJ@?5Class?5Hierarchy?5Descriptor?8@ 0000000180077628     libvcruntimed:undname.obj
 0002:00003648       ??_C@_0BK@CFCOFLF@?5Complete?5Object?5Locator?8@ 0000000180077648     libvcruntimed:undname.obj
 0002:00003670       ??_C@_0EO@EFANHAJD@d?3?2agent?2_work?21?2s?2src?2vctools?2@ 0000000180077670     libvcruntimed:per_thread_data.obj
 0002:000036d8       ??_C@_1DM@KHCHBNEB@?$AAa?$AAp?$AAi?$AA?9?$AAm?$AAs?$AA?9?$AAw?$AAi?$AAn?$AA?9?$AAc?$AAo?$AAr?$AAe@ 00000001800776d8     libvcruntimed:winapi_downlevel.obj
 0002:00003718       ??_C@_1DK@LPPGFMPP@?$AAa?$AAp?$AAi?$AA?9?$AAm?$AAs?$AA?9?$AAw?$AAi?$AAn?$AA?9?$AAc?$AAo?$AAr?$AAe@ 0000000180077718     libvcruntimed:winapi_downlevel.obj
 0002:00003758       ??_C@_1BC@GDMECMAK@?$AAk?$AAe?$AAr?$AAn?$AAe?$AAl?$AA3?$AA2@ 0000000180077758     libvcruntimed:winapi_downlevel.obj
 0002:00003770       ??_C@_17CNPHIMPH@?$AA?$CF?$AAl?$AAs@ 0000000180077770     libvcruntimed:winapi_downlevel.obj
 0002:00003778       ??_C@_1BA@PFFKHIOG@?$AAa?$AAp?$AAi?$AA?9?$AAm?$AAs?$AA?9@ 0000000180077778     libvcruntimed:winapi_downlevel.obj
 0002:00003788       ??_C@_1BA@IAIFMGEF@?$AAe?$AAx?$AAt?$AA?9?$AAm?$AAs?$AA?9@ 0000000180077788     libvcruntimed:winapi_downlevel.obj
 0002:000037a0       ??_C@_1EM@LBIFGLGH@?$AAc?$AAa?$AAc?$AAh?$AAe?$AAd?$AA_?$AAh?$AAa?$AAn?$AAd?$AAl?$AAe?$AA?5?$AA?$DN@ 00000001800777a0     libvcruntimed:winapi_downlevel.obj
 0002:000037f0       ??_C@_1JO@HGCMALOH@?$AAd?$AA?3?$AA?2?$AAa?$AAg?$AAe?$AAn?$AAt?$AA?2?$AA_?$AAw?$AAo?$AAr?$AAk?$AA?2@ 00000001800777f0     libvcruntimed:winapi_downlevel.obj
 0002:00003890       ??_C@_1DI@MAHEDLDB@?$AAc?$AAa?$AAc?$AAh?$AAe?$AAd?$AA_?$AAh?$AAa?$AAn?$AAd?$AAl?$AAe?$AA?5?$AA?$DN@ 0000000180077890     libvcruntimed:winapi_downlevel.obj
 0002:000038d0       ??_C@_1FC@IBNCGNKL@?$AAc?$AAa?$AAc?$AAh?$AAe?$AAd?$AA_?$AAf?$AAp?$AA?5?$AA?$DN?$AA?$DN?$AA?5?$AAi?$AAn@ 00000001800778d0     libvcruntimed:winapi_downlevel.obj
 0002:00003928       ??_C@_1CI@GDJBAGLP@?$AAc?$AAa?$AAc?$AAh?$AAe?$AAd?$AA_?$AAf?$AAp?$AA?5?$AA?$DN?$AA?$DN?$AA?5?$AAn?$AAe@ 0000000180077928     libvcruntimed:winapi_downlevel.obj
 0002:00003958       ??_C@_08KNHFBNJ@FlsAlloc@  0000000180077958     libvcruntimed:winapi_downlevel.obj
 0002:00003970       ??_C@_07PEJMOBNF@FlsFree@  0000000180077970     libvcruntimed:winapi_downlevel.obj
 0002:00003980       ??_C@_0M@GDNOONDI@FlsGetValue@ 0000000180077980     libvcruntimed:winapi_downlevel.obj
 0002:00003998       ??_C@_0M@JCPCPOEF@FlsSetValue@ 0000000180077998     libvcruntimed:winapi_downlevel.obj
 0002:000039b0       ??_C@_0BM@HCFOFFN@InitializeCriticalSectionEx@ 00000001800779b0     libvcruntimed:winapi_downlevel.obj
 0002:00003a70       ??_7exception@std@@6B@     0000000180077a70     libvcruntimed:frame.obj
 0002:00003a80       ??_C@_0BC@EOODALEL@Unknown?5exception@ 0000000180077a80     libvcruntimed:frame.obj
 0002:00003aa0       ??_7bad_exception@std@@6B@ 0000000180077aa0     libvcruntimed:frame.obj
 0002:00003ab0       ??_C@_0O@DPKOEFFH@bad?5exception@ 0000000180077ab0     libvcruntimed:frame.obj
 0002:00003ac0       ??_C@_1FK@OACNEHHA@?$AAt?$AAo?$AA?9?$AA?$DO?$AA_?$AAW?$AAh?$AAa?$AAt?$AA?5?$AA?$DN?$AA?$DN?$AA?5?$AAn?$AAu@ 0000000180077ac0     libvcruntimed:std_exception.obj
 0002:00003b20       ??_C@_1IM@CGBJDMAM@?$AAd?$AA?3?$AA?2?$AAa?$AAg?$AAe?$AAn?$AAt?$AA?2?$AA_?$AAw?$AAo?$AAr?$AAk?$AA?2@ 0000000180077b20     libvcruntimed:std_exception.obj
 0002:00003bf0       ??_C@_1GE@DPGDJKLM@?$AAm?$AAi?$AAn?$AAk?$AAe?$AAr?$AAn?$AAe?$AAl?$AA?2?$AAc?$AAr?$AAt?$AAs?$AA?2@ 0000000180077bf0     libucrtd:strtox.obj
 0002:00003c60       ??_C@_1EO@MLJCKPIB@?$AAb?$AAa?$AAs?$AAe?$AA?5?$AA?$DN?$AA?$DN?$AA?5?$AA0?$AA?5?$AA?$HM?$AA?$HM?$AA?5?$AA?$CI?$AA2@ 0000000180077c60     libucrtd:strtox.obj
 0002:00003cb0       ??_C@_1DI@BANODKFL@?$AA_?$AA_?$AAc?$AAr?$AAt?$AA_?$AAs?$AAt?$AAr?$AAt?$AAo?$AAx?$AA?3?$AA?3?$AAp@ 0000000180077cb0     libucrtd:strtox.obj
 0002:00003ce8       ??_C@_1CM@GJENOOEJ@?$AAc?$AA?5?$AA?$DN?$AA?$DN?$AA?5?$AA?8?$AA?2?$AA0?$AA?8?$AA?5?$AA?$HM?$AA?$HM?$AA?5?$AA?$CK?$AA_@ 0000000180077ce8     libucrtd:strtox.obj
 0002:00003d20       ??_C@_1HA@CONLANFI@?$AA_?$AA_?$AAc?$AAr?$AAt?$AA_?$AAs?$AAt?$AAr?$AAt?$AAo?$AAx?$AA?3?$AA?3?$AAc@ 0000000180077d20     libucrtd:strtox.obj
 0002:00003d90       ??_C@_1BM@PNEBBBDO@?$AA_?$AAp?$AA?5?$AA?$CB?$AA?$DN?$AA?5?$AAn?$AAu?$AAl?$AAl?$AAp?$AAt?$AAr@ 0000000180077d90     libucrtd:strtox.obj
 0002:00003db0       ??_C@_1HG@FCDBLOEG@?$AA_?$AA_?$AAc?$AAr?$AAt?$AA_?$AAs?$AAt?$AAr?$AAt?$AAo?$AAx?$AA?3?$AA?3?$AAc@ 0000000180077db0     libucrtd:strtox.obj
 0002:00003e30       ??_C@_1GK@MNHIDABG@?$AA_?$AA_?$AAc?$AAr?$AAt?$AA_?$AAs?$AAt?$AAr?$AAt?$AAo?$AAx?$AA?3?$AA?3?$AAc@ 0000000180077e30     libucrtd:strtox.obj
 0002:00003ea0       ??_C@_1HA@MKKIHBHP@?$AA_?$AA_?$AAc?$AAr?$AAt?$AA_?$AAs?$AAt?$AAr?$AAt?$AAo?$AAx?$AA?3?$AA?3?$AAc@ 0000000180077ea0     libucrtd:strtox.obj
 0002:00003f10       __real@0000000000000000    0000000180077f10     libucrtd:ldexp.obj
 0002:00003f18       ??_C@_1CK@LLOEFJJG@?$AAf?$AAi?$AAl?$AAe?$AA_?$AAn?$AAa?$AAm?$AAe?$AA?5?$AA?$CB?$AA?$DN?$AA?5?$AAn?$AAu@ 0000000180077f18     libucrtd:fopen.obj
 0002:00003f50       ??_C@_1FO@JKHHBFCN@?$AAm?$AAi?$AAn?$AAk?$AAe?$AAr?$AAn?$AAe?$AAl?$AA?2?$AAc?$AAr?$AAt?$AAs?$AA?2@ 0000000180077f50     libucrtd:fopen.obj
 0002:00003fb0       ??_C@_1BM@HBDCPLIA@?$AAc?$AAo?$AAm?$AAm?$AAo?$AAn?$AA_?$AAf?$AAs?$AAo?$AAp?$AAe?$AAn@ 0000000180077fb0     libucrtd:fopen.obj
 0002:00003fd0       ??_C@_1CA@HJKPLBCC@?$AAm?$AAo?$AAd?$AAe?$AA?5?$AA?$CB?$AA?$DN?$AA?5?$AAn?$AAu?$AAl?$AAl?$AAp?$AAt?$AAr@ 0000000180077fd0     libucrtd:fopen.obj
 0002:00003ff0       ??_C@_1BG@HEFEIBLN@?$AA?$CK?$AAm?$AAo?$AAd?$AAe?$AA?5?$AA?$CB?$AA?$DN?$AA?5?$AA0@ 0000000180077ff0     libucrtd:fopen.obj
 0002:00004008       ??_C@_1CE@JMFACANE@?$AAr?$AAe?$AAs?$AAu?$AAl?$AAt?$AA?5?$AA?$CB?$AA?$DN?$AA?5?$AAn?$AAu?$AAl?$AAl?$AAp@ 0000000180078008     libucrtd:fopen.obj
 0002:00004030       ??_C@_1BO@JGGJAKB@?$AAc?$AAo?$AAm?$AAm?$AAo?$AAn?$AA_?$AAf?$AAo?$AAp?$AAe?$AAn?$AA_?$AAs@ 0000000180078030     libucrtd:fopen.obj
 0002:00004050       ??_C@_1BO@MHPFFFJJ@?$AAs?$AAt?$AAr?$AAe?$AAa?$AAm?$AA?4?$AAv?$AAa?$AAl?$AAi?$AAd?$AA?$CI?$AA?$CJ@ 0000000180078050     libucrtd:fclose.obj
 0002:00004070       ??_C@_1GA@DKNOMDCL@?$AAm?$AAi?$AAn?$AAk?$AAe?$AAr?$AAn?$AAe?$AAl?$AA?2?$AAc?$AAr?$AAt?$AAs?$AA?2@ 0000000180078070     libucrtd:fclose.obj
 0002:000040d0       ??_C@_1O@EGMJNCOI@?$AAf?$AAc?$AAl?$AAo?$AAs?$AAe@ 00000001800780d0     libucrtd:fclose.obj
 0002:000040e0       ??_C@_1BO@JINCABEC@?$AA_?$AAf?$AAc?$AAl?$AAo?$AAs?$AAe?$AA_?$AAn?$AAo?$AAl?$AAo?$AAc?$AAk@ 00000001800780e0     libucrtd:fclose.obj
 0002:00004100       ??_C@_1DC@OGOLMDEL@?$AAp?$AAu?$AAb?$AAl?$AAi?$AAc?$AA_?$AAs?$AAt?$AAr?$AAe?$AAa?$AAm?$AA?5?$AA?$CB@ 0000000180078100     libucrtd:feoferr.obj
 0002:00004140       ??_C@_1GC@CMLBJHAF@?$AAm?$AAi?$AAn?$AAk?$AAe?$AAr?$AAn?$AAe?$AAl?$AA?2?$AAc?$AAr?$AAt?$AAs?$AA?2@ 0000000180078140     libucrtd:feoferr.obj
 0002:000041a8       ??_C@_19LPGIFIDB@?$AAf?$AAe?$AAo?$AAf@ 00000001800781a8     libucrtd:feoferr.obj
 0002:000041b8       ??_C@_1O@MOPHEPGP@?$AAf?$AAe?$AAr?$AAr?$AAo?$AAr@ 00000001800781b8     libucrtd:feoferr.obj
 0002:000041d0       ??_C@_1BDG@MKBKGHOH@?$AA?$CI?$AA?5?$AA?$CI?$AA_?$AAS?$AAt?$AAr?$AAe?$AAa?$AAm?$AA?4?$AAi?$AAs?$AA_?$AAs@ 00000001800781d0     libucrtd:fgetc.obj
 0002:00004310       ??_C@_1FO@HEEKIEFN@?$AAm?$AAi?$AAn?$AAk?$AAe?$AAr?$AAn?$AAe?$AAl?$AA?2?$AAc?$AAr?$AAt?$AAs?$AA?2@ 0000000180078310     libucrtd:fgetc.obj
 0002:00004370       ??_C@_1BM@ODJEACKA@?$AA_?$AAf?$AAg?$AAe?$AAt?$AAc?$AA_?$AAn?$AAo?$AAl?$AAo?$AAc?$AAk@ 0000000180078370     libucrtd:fgetc.obj
 0002:00004390       ??_C@_1M@FBFFFGJE@?$AAf?$AAg?$AAe?$AAt?$AAc@ 0000000180078390     libucrtd:fgetc.obj
 0002:000043a0       ??_C@_1CE@JLIJLEKO@?$AAs?$AAt?$AAr?$AAe?$AAa?$AAm?$AA?5?$AA?$CB?$AA?$DN?$AA?5?$AAn?$AAu?$AAl?$AAl?$AAp@ 00000001800783a0     libucrtd:fread.obj
 0002:000043d0       ??_C@_1FO@CIJKACCM@?$AAm?$AAi?$AAn?$AAk?$AAe?$AAr?$AAn?$AAe?$AAl?$AA?2?$AAc?$AAr?$AAt?$AAs?$AA?2@ 00000001800783d0     libucrtd:fread.obj
 0002:00004430       ??_C@_1BA@CMLCEIGG@?$AAf?$AAr?$AAe?$AAa?$AAd?$AA_?$AAs@ 0000000180078430     libucrtd:fread.obj
 0002:00004440       ??_C@_1CE@MCCHPLBM@?$AAb?$AAu?$AAf?$AAf?$AAe?$AAr?$AA?5?$AA?$CB?$AA?$DN?$AA?5?$AAn?$AAu?$AAl?$AAl?$AAp@ 0000000180078440     libucrtd:fread.obj
 0002:00004468       ??_C@_1CA@IDPOGFL@?$AA_?$AAf?$AAr?$AAe?$AAa?$AAd?$AA_?$AAn?$AAo?$AAl?$AAo?$AAc?$AAk?$AA_?$AAs@ 0000000180078468     libucrtd:fread.obj
 0002:00004490       ??_C@_1FG@KLKDPCLL@?$AAe?$AAl?$AAe?$AAm?$AAe?$AAn?$AAt?$AA_?$AAc?$AAo?$AAu?$AAn?$AAt?$AA?5?$AA?$DM@ 0000000180078490     libucrtd:fread.obj
 0002:000044f0       ??_C@_1LG@DCNDJCHK@?$AA?$CI?$AA?$CC?$AAI?$AAn?$AAc?$AAo?$AAn?$AAs?$AAi?$AAs?$AAt?$AAe?$AAn?$AAt?$AA?5@ 00000001800784f0     libucrtd:fread.obj
 0002:000045a8       ??_C@_1DA@DKEFLDMG@?$AA?$CI?$AA?$CC?$AAb?$AAu?$AAf?$AAf?$AAe?$AAr?$AA?5?$AAt?$AAo?$AAo?$AA?5?$AAs?$AAm@ 00000001800785a8     libucrtd:fread.obj
 0002:000045e0       ??_C@_1FO@KMPAKEKH@?$AAm?$AAi?$AAn?$AAk?$AAe?$AAr?$AAn?$AAe?$AAl?$AA?2?$AAc?$AAr?$AAt?$AAs?$AA?2@ 00000001800785e0     libucrtd:fseek.obj
 0002:00004640       ??_C@_1BK@HEPGDNON@?$AAc?$AAo?$AAm?$AAm?$AAo?$AAn?$AA_?$AAf?$AAs?$AAe?$AAe?$AAk@ 0000000180078640     libucrtd:fseek.obj
 0002:00004660       ??_C@_1HO@BJGCGJL@?$AAw?$AAh?$AAe?$AAn?$AAc?$AAe?$AA?5?$AA?$DN?$AA?$DN?$AA?5?$AAS?$AAE?$AAE?$AAK?$AA_@ 0000000180078660     libucrtd:fseek.obj
 0002:000046e0       ??_C@_1CO@LBNDLIPC@?$AAs?$AAt?$AAr?$AAe?$AAa?$AAm?$AA?4?$AAp?$AAu?$AAb?$AAl?$AAi?$AAc?$AA_?$AAs@ 00000001800786e0     libucrtd:ftell.obj
 0002:00004710       ??_C@_1FO@JHBALIAM@?$AAm?$AAi?$AAn?$AAk?$AAe?$AAr?$AAn?$AAe?$AAl?$AA?2?$AAc?$AAr?$AAt?$AAs?$AA?2@ 0000000180078710     libucrtd:ftell.obj
 0002:00004770       ??_C@_1CI@MOKEPKDC@?$AAc?$AAo?$AAm?$AAm?$AAo?$AAn?$AA_?$AAf?$AAt?$AAe?$AAl?$AAl?$AA_?$AAn?$AAo@ 0000000180078770     libucrtd:ftell.obj
 0002:000047a0       ??_C@_1GM@EDHJGDLB@?$AA?$CI?$AAb?$AAu?$AAf?$AAf?$AAe?$AAr?$AA_?$AAl?$AAa?$AAs?$AAt?$AA?5?$AA?9?$AA?5@ 00000001800787a0     libucrtd:ftell.obj
 0002:00004810       ??_C@_1BK@CMPCEPOF@?$AAc?$AAo?$AAm?$AAm?$AAo?$AAn?$AA_?$AAf?$AAt?$AAe?$AAl?$AAl@ 0000000180078810     libucrtd:ftell.obj
 0002:00004830       ??_C@_1GA@JPJEOEOF@?$AAm?$AAi?$AAn?$AAk?$AAe?$AAr?$AAn?$AAe?$AAl?$AA?2?$AAc?$AAr?$AAt?$AAs?$AA?2@ 0000000180078830     libucrtd:ungetc.obj
 0002:00004890       ??_C@_1O@JDPLECOK@?$AAu?$AAn?$AAg?$AAe?$AAt?$AAc@ 0000000180078890     libucrtd:ungetc.obj
 0002:000048a0       ??_C@_1BO@OLMLKKEA@?$AA_?$AAu?$AAn?$AAg?$AAe?$AAt?$AAc?$AA_?$AAn?$AAo?$AAl?$AAo?$AAc?$AAk@ 00000001800788a0     libucrtd:ungetc.obj
 0002:000048c0       ??_C@_1FE@LHBLIKM@?$AAA?$AAs?$AAs?$AAe?$AAr?$AAt?$AAi?$AAo?$AAn?$AA?5?$AAf?$AAa?$AAi?$AAl?$AAe@ 00000001800788c0     libucrtd:assert.obj
 0002:00004920       ??_C@_1EK@MBDPDCGA@?$AAM?$AAi?$AAc?$AAr?$AAo?$AAs?$AAo?$AAf?$AAt?$AA?5?$AAV?$AAi?$AAs?$AAu?$AAa@ 0000000180078920     libucrtd:assert.obj
 0002:00004970       ??_C@_0BC@LAIDCHCH@Assertion?5failed?$CB@ 0000000180078970     libucrtd:assert.obj
 0002:00004988       ??_C@_1CE@OJBNHDMO@?$AAA?$AAs?$AAs?$AAe?$AAr?$AAt?$AAi?$AAo?$AAn?$AA?5?$AAf?$AAa?$AAi?$AAl?$AAe@ 0000000180078988     libucrtd:assert.obj
 0002:000049b0       ??_C@_1BE@PHKBBGE@?$AAP?$AAr?$AAo?$AAg?$AAr?$AAa?$AAm?$AA?3?$AA?5@ 00000001800789b0     libucrtd:assert.obj
 0002:000049c8       ??_C@_1O@HEMHKNDC@?$AAF?$AAi?$AAl?$AAe?$AA?3?$AA?5@ 00000001800789c8     libucrtd:assert.obj
 0002:000049d8       ??_C@_1O@KCAFKHJE@?$AAL?$AAi?$AAn?$AAe?$AA?3?$AA?5@ 00000001800789d8     libucrtd:assert.obj
 0002:000049e8       ??_C@_1BK@PEDCIPMA@?$AAE?$AAx?$AAp?$AAr?$AAe?$AAs?$AAs?$AAi?$AAo?$AAn?$AA?3?$AA?5@ 00000001800789e8     libucrtd:assert.obj
 0002:00004a10       ??_C@_1OA@EGMLFBHJ@?$AAF?$AAo?$AAr?$AA?5?$AAi?$AAn?$AAf?$AAo?$AAr?$AAm?$AAa?$AAt?$AAi?$AAo?$AAn@ 0000000180078a10     libucrtd:assert.obj
 0002:00004af0       ??_C@_1HK@POCJMFGK@?$AA?$CI?$AAP?$AAr?$AAe?$AAs?$AAs?$AA?5?$AAR?$AAe?$AAt?$AAr?$AAy?$AA?5?$AAt?$AAo@ 0000000180078af0     libucrtd:assert.obj
 0002:00004b70       ??_C@_17LGKOMLJ@?$AA?4?$AA?4?$AA?4@ 0000000180078b70     libucrtd:assert.obj
 0002:00004b78       ??_C@_01EEMJAFIK@?6@       0000000180078b78     libucrtd:assert.obj
 0002:00004b7c       ??_C@_13LBAGMAIH@?$AA?6@   0000000180078b7c     libucrtd:assert.obj
 0002:00004b80       ??_C@_15IABLJNFO@?$AA?6?$AA?6@ 0000000180078b80     libucrtd:assert.obj
 0002:00004b88       ??_C@_0BH@DNAGHKFM@?$DMprogram?5name?5unknown?$DO@ 0000000180078b88     libucrtd:assert.obj
 0002:00004ba0       ??_C@_1CO@EAEJAADC@?$AA?$DM?$AAp?$AAr?$AAo?$AAg?$AAr?$AAa?$AAm?$AA?5?$AAn?$AAa?$AAm?$AAe?$AA?5?$AAu@ 0000000180078ba0     libucrtd:assert.obj
 0002:00004bd0       ??_C@_1GE@PMLOPPED@?$AAm?$AAi?$AAn?$AAk?$AAe?$AAr?$AAn?$AAe?$AAl?$AA?2?$AAc?$AAr?$AAt?$AAs?$AA?2@ 0000000180078bd0     libucrtd:assert.obj
 0002:00004c40       ??_C@_1FE@LPBNNEBB@?$AAc?$AAo?$AAm?$AAm?$AAo?$AAn?$AA_?$AAa?$AAs?$AAs?$AAe?$AAr?$AAt?$AA_?$AAt@ 0000000180078c40     libucrtd:assert.obj
 0002:00004ca0       ??_C@_1KC@PIMENJIN@?$AAt?$AAr?$AAa?$AAi?$AAt?$AAs?$AA?3?$AA?3?$AAt?$AAc?$AAs?$AAc?$AAp?$AAy?$AA_@ 0000000180078ca0     libucrtd:assert.obj
 0002:00004d50       ??_C@_1KM@HGCBPADM@?$AAt?$AAr?$AAa?$AAi?$AAt?$AAs?$AA?3?$AA?3?$AAt?$AAc?$AAs?$AAc?$AAa?$AAt?$AA_@ 0000000180078d50     libucrtd:assert.obj
 0002:00004e00       ??_C@_1KK@KDENILFB@?$AAt?$AAr?$AAa?$AAi?$AAt?$AAs?$AA?3?$AA?3?$AAt?$AAc?$AAs?$AAc?$AAa?$AAt?$AA_@ 0000000180078e00     libucrtd:assert.obj
 0002:00004eb0       ??_C@_1PE@ECNALGCA@?$AAt?$AAr?$AAa?$AAi?$AAt?$AAs?$AA?3?$AA?3?$AAt?$AAc?$AAs?$AAc?$AAp?$AAy?$AA_@ 0000000180078eb0     libucrtd:assert.obj
 0002:00004fb0       ??_C@_1BCM@OLNPCNDL@?$AAm?$AAe?$AAm?$AAc?$AAp?$AAy?$AA_?$AAs?$AA?$CI?$AA?5?$AAp?$AAc?$AAh?$AAP?$AAr@ 0000000180078fb0     libucrtd:assert.obj
 0002:000050e0       ??_C@_1HM@LGKHMJCC@?$AAt?$AAr?$AAa?$AAi?$AAt?$AAs?$AA?3?$AA?3?$AAt?$AAc?$AAs?$AAc?$AAa?$AAt?$AA_@ 00000001800790e0     libucrtd:assert.obj
 0002:00005160       ??_C@_1JO@KJEGDHLC@?$AAt?$AAr?$AAa?$AAi?$AAt?$AAs?$AA?3?$AA?3?$AAt?$AAc?$AAs?$AAc?$AAa?$AAt?$AA_@ 0000000180079160     libucrtd:assert.obj
 0002:00005200       ??_C@_1KE@NJCNOBGA@?$AAt?$AAr?$AAa?$AAi?$AAt?$AAs?$AA?3?$AA?3?$AAt?$AAc?$AAs?$AAc?$AAa?$AAt?$AA_@ 0000000180079200     libucrtd:assert.obj
 0002:000052b0       ??_C@_1LC@HKLLCKBM@?$AAt?$AAr?$AAa?$AAi?$AAt?$AAs?$AA?3?$AA?3?$AAt?$AAc?$AAs?$AAn?$AAc?$AAa?$AAt@ 00000001800792b0     libucrtd:assert.obj
 0002:00005370       ??_C@_1KI@JBNHIIKF@?$AAt?$AAr?$AAa?$AAi?$AAt?$AAs?$AA?3?$AA?3?$AAt?$AAc?$AAs?$AAc?$AAa?$AAt?$AA_@ 0000000180079370     libucrtd:assert.obj
 0002:00005420       ??_C@_1IK@KKBPPOFO@?$AAt?$AAr?$AAa?$AAi?$AAt?$AAs?$AA?3?$AA?3?$AAt?$AAc?$AAs?$AAc?$AAa?$AAt?$AA_@ 0000000180079420     libucrtd:assert.obj
 0002:000054b0       ??_C@_1LO@BFIEBOKI@?$AAt?$AAr?$AAa?$AAi?$AAt?$AAs?$AA?3?$AA?3?$AAt?$AAc?$AAs?$AAn?$AAc?$AAa?$AAt@ 00000001800794b0     libucrtd:assert.obj
 0002:00005570       ??_C@_1KE@OEANDPDB@?$AAt?$AAr?$AAa?$AAi?$AAt?$AAs?$AA?3?$AA?3?$AAt?$AAc?$AAs?$AAn?$AAc?$AAa?$AAt@ 0000000180079570     libucrtd:assert.obj
 0002:00005620       ??_C@_1LG@LMABGFBP@?$AAt?$AAr?$AAa?$AAi?$AAt?$AAs?$AA?3?$AA?3?$AAt?$AAc?$AAs?$AAc?$AAa?$AAt?$AA_@ 0000000180079620     libucrtd:assert.obj
 0002:000056e0       ??_C@_1IA@JPAKIPAA@?$AAt?$AAr?$AAa?$AAi?$AAt?$AAs?$AA?3?$AA?3?$AAt?$AAc?$AAs?$AAc?$AAa?$AAt?$AA_@ 00000001800796e0     libucrtd:assert.obj
 0002:00005760       ??_C@_1KE@PADDJOL@?$AAt?$AAr?$AAa?$AAi?$AAt?$AAs?$AA?3?$AA?3?$AAt?$AAc?$AAs?$AAc?$AAa?$AAt?$AA_@ 0000000180079760     libucrtd:assert.obj
 0002:00005810       ??_C@_1BAK@NPHNFBPH@?$AAt?$AAr?$AAa?$AAi?$AAt?$AAs?$AA?3?$AA?3?$AAi?$AAt?$AAo?$AAt?$AA_?$AAs?$AA?$CI@ 0000000180079810     libucrtd:assert.obj
 0002:00005920       ??_C@_1LA@JOKMAPHG@?$AAt?$AAr?$AAa?$AAi?$AAt?$AAs?$AA?3?$AA?3?$AAt?$AAc?$AAs?$AAc?$AAa?$AAt?$AA_@ 0000000180079920     libucrtd:assert.obj
 0002:000059d0       ??_C@_1LA@IFFOJJCK@?$AAt?$AAr?$AAa?$AAi?$AAt?$AAs?$AA?3?$AA?3?$AAt?$AAc?$AAs?$AAn?$AAc?$AAa?$AAt@ 00000001800799d0     libucrtd:assert.obj
 0002:00005a80       ??_C@_1KG@MFCBNPOK@?$AAt?$AAr?$AAa?$AAi?$AAt?$AAs?$AA?3?$AA?3?$AAt?$AAc?$AAs?$AAc?$AAa?$AAt?$AA_@ 0000000180079a80     libucrtd:assert.obj
 0002:00005b30       ??_C@_1IC@EDHOAOJ@?$AAt?$AAr?$AAa?$AAi?$AAt?$AAs?$AA?3?$AA?3?$AAt?$AAc?$AAs?$AAc?$AAa?$AAt?$AA_@ 0000000180079b30     libucrtd:assert.obj
 0002:00005bc0       ??_C@_1KE@NALOKOIG@?$AAt?$AAr?$AAa?$AAi?$AAt?$AAs?$AA?3?$AA?3?$AAt?$AAc?$AAs?$AAc?$AAa?$AAt?$AA_@ 0000000180079bc0     libucrtd:assert.obj
 0002:00005c70       ??_C@_1KE@GGOFBC@?$AAt?$AAr?$AAa?$AAi?$AAt?$AAs?$AA?3?$AA?3?$AAt?$AAc?$AAs?$AAc?$AAa?$AAt?$AA_@ 0000000180079c70     libucrtd:assert.obj
 0002:00007320       __acrt_exception_action_table 000000018007b320     libucrtd:exception_filter.obj
 0002:000073e0       __acrt_signal_action_table_count 000000018007b3e0     libucrtd:exception_filter.obj
 0002:000073e8       __acrt_signal_action_first_fpe_index 000000018007b3e8     libucrtd:exception_filter.obj
 0002:000073f0       __acrt_signal_action_fpe_count 000000018007b3f0     libucrtd:exception_filter.obj
 0002:000073f8       ??_C@_1BI@BGOHAHKC@?$AAm?$AAs?$AAc?$AAo?$AAr?$AAe?$AAe?$AA?4?$AAd?$AAl?$AAl@ 000000018007b3f8     libucrtd:exit.obj
 0002:00007410       ??_C@_0P@MIGLKIOC@CorExitProcess@ 000000018007b410     libucrtd:exit.obj
 0002:00007420       ??_C@_0DI@KNDIGDEP@minkernel?2crts?2ucrt?2src?2appcrt?2@ 000000018007b420     libucrtd:argv_parsing.obj
 0002:00007460       ??_C@_1JO@PGBIJBAM@?$AAm?$AAo?$AAd?$AAe?$AA?5?$AA?$DN?$AA?$DN?$AA?5?$AA_?$AAc?$AAr?$AAt?$AA_?$AAa?$AAr@ 000000018007b460     libucrtd:argv_parsing.obj
 0002:00007500       ??_C@_1HA@JMLCANEE@?$AAm?$AAi?$AAn?$AAk?$AAe?$AAr?$AAn?$AAe?$AAl?$AA?2?$AAc?$AAr?$AAt?$AAs?$AA?2@ 000000018007b500     libucrtd:argv_parsing.obj
 0002:00007570       ??_C@_1CM@LHOJELIC@?$AAc?$AAo?$AAm?$AAm?$AAo?$AAn?$AA_?$AAc?$AAo?$AAn?$AAf?$AAi?$AAg?$AAu?$AAr@ 000000018007b570     libucrtd:argv_parsing.obj
 0002:000075a0       ??_C@_0EG@LEHKHOEH@minkernel?2crts?2ucrt?2src?2desktop@ 000000018007b5a0     libucrtd:environment_initialization.obj
 0002:000075f0       ??_C@_1IM@IMOFFPLG@?$AAm?$AAi?$AAn?$AAk?$AAe?$AAr?$AAn?$AAe?$AAl?$AA?2?$AAc?$AAr?$AAt?$AAs?$AA?2@ 000000018007b5f0     libucrtd:environment_initialization.obj
 0002:00007680       ??_C@_1CG@MNNNBNAK@?$AAc?$AAr?$AAe?$AAa?$AAt?$AAe?$AA_?$AAe?$AAn?$AAv?$AAi?$AAr?$AAo?$AAn?$AAm@ 000000018007b680     libucrtd:environment_initialization.obj
 0002:000076b0       ??_C@_1HI@OOPIFFGA@?$AAt?$AAr?$AAa?$AAi?$AAt?$AAs?$AA?3?$AA?3?$AAt?$AAc?$AAs?$AAc?$AAp?$AAy?$AA_@ 000000018007b6b0     libucrtd:environment_initialization.obj
 0002:00007878       ??_C@_04HJMOFLDF@Free@     000000018007b878     libucrtd:debug_heap.obj
 0002:00007880       ??_C@_06EFAGIKOH@Normal@   000000018007b880     libucrtd:debug_heap.obj
 0002:00007888       ??_C@_03OGPFLFLO@CRT@      000000018007b888     libucrtd:debug_heap.obj
 0002:0000788c       ??_C@_06KMEJCCGM@Ignore@   000000018007b88c     libucrtd:debug_heap.obj
 0002:00007894       ??_C@_06PJIGMIJB@Client@   000000018007b894     libucrtd:debug_heap.obj
 0002:000078a0       ??_C@_1CE@LJFEPPMP@?$AA_?$AAC?$AAr?$AAt?$AAC?$AAh?$AAe?$AAc?$AAk?$AAM?$AAe?$AAm?$AAo?$AAr?$AAy@ 000000018007b8a0     libucrtd:debug_heap.obj
 0002:000078d0       ??_C@_1GG@OCLHPJPK@?$AAm?$AAi?$AAn?$AAk?$AAe?$AAr?$AAn?$AAe?$AAl?$AA?2?$AAc?$AAr?$AAt?$AAs?$AA?2@ 000000018007b8d0     libucrtd:debug_heap.obj
 0002:00007938       ??_C@_0DF@BBEGIFEK@Client?5hook?5allocation?5failure?5@ 000000018007b938     libucrtd:debug_heap.obj
 0002:00007970       ??_C@_0CB@CCLOLAHO@Client?5hook?5allocation?5failure?4@ 000000018007b970     libucrtd:debug_heap.obj
 0002:00007994       ??_C@_02DKCKIIND@?$CFs@    000000018007b994     libucrtd:debug_heap.obj
 0002:00007998       ??_C@_0DC@JEMAGEKG@Error?3?5memory?5allocation?3?5bad?5m@ 000000018007b998     libucrtd:debug_heap.obj
 0002:000079d0       ??_C@_0DI@KKJPDPGM@Client?5hook?5re?9allocation?5failu@ 000000018007b9d0     libucrtd:debug_heap.obj
 0002:00007a08       ??_C@_0CE@DOFMDOL@Client?5hook?5re?9allocation?5failu@ 000000018007ba08     libucrtd:debug_heap.obj
 0002:00007a30       ??_C@_0FA@EFEIGJKG@Error?3?5memory?5allocation?3?5bad?5m@ 000000018007ba30     libucrtd:debug_heap.obj
 0002:00007a80       ??_C@_0EM@LGFLMAGJ@The?5Block?5at?50x?$CFp?5was?5allocated@ 000000018007ba80     libucrtd:debug_heap.obj
 0002:00007ad0       ??_C@_1DM@DEDLGNML@?$AA_?$AAC?$AAr?$AAt?$AAI?$AAs?$AAV?$AAa?$AAl?$AAi?$AAd?$AAH?$AAe?$AAa?$AAp@ 000000018007bad0     libucrtd:debug_heap.obj
 0002:00007b10       ??_C@_1PC@MCGKJLN@?$AAo?$AAl?$AAd?$AA_?$AAh?$AAe?$AAa?$AAd?$AA?9?$AA?$DO?$AA_?$AAl?$AAi?$AAn?$AAe@ 000000018007bb10     libucrtd:debug_heap.obj
 0002:00007c08       ??_C@_0DA@HFBKENN@Error?3?5possible?5heap?5corruption@ 000000018007bc08     libucrtd:debug_heap.obj
 0002:00007c40       ??_C@_1JM@MCMEPJEP@?$AAr?$AAe?$AAa?$AAl?$AAl?$AAo?$AAc?$AAa?$AAt?$AAi?$AAo?$AAn?$AA_?$AAi?$AAs@ 000000018007bc40     libucrtd:debug_heap.obj
 0002:00007ce0       ??_C@_1DM@LNOPKAIJ@?$AA_?$AA_?$AAa?$AAc?$AAr?$AAt?$AA_?$AAl?$AAa?$AAs?$AAt?$AA_?$AAb?$AAl?$AAo@ 000000018007bce0     libucrtd:debug_heap.obj
 0002:00007d20       ??_C@_1DO@HABCJBHO@?$AA_?$AA_?$AAa?$AAc?$AAr?$AAt?$AA_?$AAf?$AAi?$AAr?$AAs?$AAt?$AA_?$AAb?$AAl@ 000000018007bd20     libucrtd:debug_heap.obj
 0002:00007d60       ??_C@_1CC@CKEAHJPH@?$AAb?$AAl?$AAo?$AAc?$AAk?$AA?5?$AA?$CB?$AA?$DN?$AA?5?$AAn?$AAu?$AAl?$AAl?$AAp?$AAt@ 000000018007bd60     libucrtd:debug_heap.obj
 0002:00007d90       ??_C@_0EJ@HEIBCIMJ@The?5Block?5at?50x?$CFp?5was?5allocated@ 000000018007bd90     libucrtd:debug_heap.obj
 0002:00007de0       ??_C@_0BL@KEIPLFAC@Client?5hook?5free?5failure?4?6@ 000000018007bde0     libucrtd:debug_heap.obj
 0002:00007e00       ??_C@_1FA@KDNEBILF@?$AAi?$AAs?$AA_?$AAb?$AAl?$AAo?$AAc?$AAk?$AA_?$AAt?$AAy?$AAp?$AAe?$AA_?$AAv@ 000000018007be00     libucrtd:debug_heap.obj
 0002:00007e50       ??_C@_0KI@JGFOHMEB@HEAP?5CORRUPTION?5DETECTED?3?5befor@ 000000018007be50     libucrtd:debug_heap.obj
 0002:00007f00       ??_C@_0IK@PJCGLBOB@HEAP?5CORRUPTION?5DETECTED?3?5befor@ 000000018007bf00     libucrtd:debug_heap.obj
 0002:00007f90       ??_C@_0KE@MBMNHHHN@HEAP?5CORRUPTION?5DETECTED?3?5after@ 000000018007bf90     libucrtd:debug_heap.obj
 0002:00008040       ??_C@_0IG@LEMBDCJK@HEAP?5CORRUPTION?5DETECTED?3?5after@ 000000018007c040     libucrtd:debug_heap.obj
 0002:000080d0       ??_C@_1OK@GFEOEJAF@?$AAh?$AAe?$AAa?$AAd?$AAe?$AAr?$AA?9?$AA?$DO?$AA_?$AAl?$AAi?$AAn?$AAe?$AA_?$AAn@ 000000018007c0d0     libucrtd:debug_heap.obj
 0002:000081c0       ??_C@_1ME@GFALMLNA@?$AAh?$AAe?$AAa?$AAd?$AAe?$AAr?$AA?9?$AA?$DO?$AA_?$AAb?$AAl?$AAo?$AAc?$AAk?$AA_@ 000000018007c1c0     libucrtd:debug_heap.obj
 0002:00008288       ??_C@_1DI@ILNOPEPI@?$AA_?$AA_?$AAa?$AAc?$AAr?$AAt?$AA_?$AAl?$AAa?$AAs?$AAt?$AA_?$AAb?$AAl?$AAo@ 000000018007c288     libucrtd:debug_heap.obj
 0002:000082c0       ??_C@_1DK@KEHFGDIJ@?$AA_?$AA_?$AAa?$AAc?$AAr?$AAt?$AA_?$AAf?$AAi?$AAr?$AAs?$AAt?$AA_?$AAb?$AAl@ 000000018007c2c0     libucrtd:debug_heap.obj
 0002:00008300       ??_C@_1BG@MBKOGDLD@?$AA_?$AAm?$AAs?$AAi?$AAz?$AAe?$AA_?$AAd?$AAb?$AAg@ 000000018007c300     libucrtd:debug_heap.obj
 0002:00008318       ??_C@_07OHKEFPKJ@DAMAGED@  000000018007c318     libucrtd:debug_heap.obj
 0002:00008320       ??_C@_0KA@IHNJJKPL@HEAP?5CORRUPTION?5DETECTED?3?5on?5to@ 000000018007c320     libucrtd:debug_heap.obj
 0002:000083c0       ??_C@_0IC@BBJIOOJH@HEAP?5CORRUPTION?5DETECTED?3?5on?5to@ 000000018007c3c0     libucrtd:debug_heap.obj
 0002:00008450       ??_C@_0EG@DGJMPDBH@?$CFhs?5located?5at?50x?$CFp?5is?5?$CFIu?5byte@ 000000018007c450     libucrtd:debug_heap.obj
 0002:00008498       ??_C@_0CI@JMLBEDHJ@?$CFhs?5located?5at?50x?$CFp?5is?5?$CFIu?5byte@ 000000018007c498     libucrtd:debug_heap.obj
 0002:000084c0       ??_C@_0EG@GPFHANHO@Cycle?5in?5block?5list?5detected?5wh@ 000000018007c4c0     libucrtd:debug_heap.obj
 0002:00008508       ??_C@_0BJ@ELMAOCAJ@Heap?5validation?5failed?4?6@ 000000018007c508     libucrtd:debug_heap.obj
 0002:00008530       ??_C@_1IE@BBIFDGEB@?$AAn?$AAe?$AAw?$AA_?$AAb?$AAi?$AAt?$AAs?$AA?5?$AA?$DN?$AA?$DN?$AA?5?$AA_?$AAC?$AAR@ 000000018007c530     libucrtd:debug_heap.obj
 0002:000085b8       ??_C@_1BO@GJFDNMNF@?$AA_?$AAC?$AAr?$AAt?$AAS?$AAe?$AAt?$AAD?$AAb?$AAg?$AAF?$AAl?$AAa?$AAg@ 000000018007c5b8     libucrtd:debug_heap.obj
 0002:000085d8       ??_C@_1CC@BBKMONGA@?$AAs?$AAt?$AAa?$AAt?$AAe?$AA?5?$AA?$CB?$AA?$DN?$AA?5?$AAn?$AAu?$AAl?$AAl?$AAp?$AAt@ 000000018007c5d8     libucrtd:debug_heap.obj
 0002:00008600       ??_C@_1CE@NJJKELF@?$AA_?$AAC?$AAr?$AAt?$AAM?$AAe?$AAm?$AAC?$AAh?$AAe?$AAc?$AAk?$AAp?$AAo?$AAi@ 000000018007c600     libucrtd:debug_heap.obj
 0002:00008628       ??_C@_0DP@LEFMFBOD@Bad?5memory?5block?5found?5at?50x?$CFp?4@ 000000018007c628     libucrtd:debug_heap.obj
 0002:00008668       ??_C@_0CB@EAAIGELO@Bad?5memory?5block?5found?5at?50x?$CFp?4@ 000000018007c668     libucrtd:debug_heap.obj
 0002:0000868c       ??_C@_05MKKEDADM@?$CF?42X?5@ 000000018007c68c     libucrtd:debug_heap.obj
 0002:00008698       ??_C@_1CC@DIJAHFFJ@?$AAp?$AAr?$AAi?$AAn?$AAt?$AA_?$AAb?$AAl?$AAo?$AAc?$AAk?$AA_?$AAd?$AAa?$AAt@ 000000018007c698     libucrtd:debug_heap.obj
 0002:000086c0       ??_C@_1BI@KALLJECN@?$AA?$CI?$AA?$CK?$AA_?$AAe?$AAr?$AAr?$AAn?$AAo?$AA?$CI?$AA?$CJ?$AA?$CJ@ 000000018007c6c0     libucrtd:debug_heap.obj
 0002:000086d8       ??_C@_0BA@HJBKCELP@?5Data?3?5?$DM?$CFs?$DO?5?$CFs?6@ 000000018007c6d8     libucrtd:debug_heap.obj
 0002:000086e8       ??_C@_0BE@KCIPKCIA@Dumping?5objects?5?9?$DO?6@ 000000018007c6e8     libucrtd:debug_heap.obj
 0002:00008700       ??_C@_0BE@OIEFNFL@?$CDFile?5Error?$CD?$CI?$CFd?$CJ?5?3?5@ 000000018007c700     libucrtd:debug_heap.obj
 0002:00008718       ??_C@_0L@JMEFFCCJ@?$CFhs?$CI?$CFd?$CJ?5?3?5@ 000000018007c718     libucrtd:debug_heap.obj
 0002:00008724       ??_C@_06PKLGBFGM@?$HL?$CFld?$HN?5@ 000000018007c724     libucrtd:debug_heap.obj
 0002:00008730       ??_C@_0DD@GHNAAKBB@client?5block?5at?50x?$CFp?0?5subtype?5?$CF@ 000000018007c730     libucrtd:debug_heap.obj
 0002:00008768       ??_C@_0CH@FAGDDGPN@normal?5block?5at?50x?$CFp?0?5?$CFIu?5bytes@ 000000018007c768     libucrtd:debug_heap.obj
 0002:00008790       ??_C@_0DA@MDLBNIBM@crt?5block?5at?50x?$CFp?0?5subtype?5?$CFx?0?5@ 000000018007c790     libucrtd:debug_heap.obj
 0002:000087c0       ??_C@_0BH@GFGKJDCO@Object?5dump?5complete?4?6@ 000000018007c7c0     libucrtd:debug_heap.obj
 0002:000087d8       ??_C@_0BI@JBFPOEJA@Detected?5memory?5leaks?$CB?6@ 000000018007c7d8     libucrtd:debug_heap.obj
 0002:000087f0       ??_C@_1GI@BBAEIKL@?$AA?$CI?$AA?$CI?$AAd?$AAe?$AAs?$AAt?$AAi?$AAn?$AAa?$AAt?$AAi?$AAo?$AAn?$AA?$CJ?$AA?$CJ@ 000000018007c7f0     libucrtd:strcpy_s.obj
 0002:00008860       ??_C@_1HI@PBJPCEBC@?$AAm?$AAi?$AAn?$AAk?$AAe?$AAr?$AAn?$AAe?$AAl?$AA?2?$AAc?$AAr?$AAt?$AAs?$AA?2@ 000000018007c860     libucrtd:strcpy_s.obj
 0002:000088d8       ??_C@_1CA@FHIAGDFH@?$AAc?$AAo?$AAm?$AAm?$AAo?$AAn?$AA_?$AAt?$AAc?$AAs?$AAc?$AAp?$AAy?$AA_?$AAs@ 000000018007c8d8     libucrtd:strcpy_s.obj
 0002:000088f8       ??_C@_1CK@EIOKGPJL@?$AA?$CI?$AA?$CI?$AA?$CI?$AAs?$AAo?$AAu?$AAr?$AAc?$AAe?$AA?$CJ?$AA?$CJ?$AA?$CJ?$AA?5?$AA?$CB?$AA?$DN@ 000000018007c8f8     libucrtd:strcpy_s.obj
 0002:00008928       ??_C@_1CI@HCPHDDLE@?$AAB?$AAu?$AAf?$AAf?$AAe?$AAr?$AA?5?$AAi?$AAs?$AA?5?$AAt?$AAo?$AAo?$AA?5?$AAs@ 000000018007c928     libucrtd:strcpy_s.obj
 0002:00008950       ??_C@_1DM@MADKGDLO@?$AA?$CI?$AAL?$AA?$CC?$AAB?$AAu?$AAf?$AAf?$AAe?$AAr?$AA?5?$AAi?$AAs?$AA?5?$AAt?$AAo@ 000000018007c950     libucrtd:strcpy_s.obj
 0002:00008990       ?standard_lookup_table_spectre@__crt_stdio_output@@3V?$spectre_mitigated_lookup_table@Ustate_transition_pair@__crt_stdio_output@@$0IA@@1@B 000000018007c990     libucrtd:output.obj
 0002:00008d90       ?format_validation_lookup_table_spectre@__crt_stdio_output@@3V?$spectre_mitigated_lookup_table@Ustate_transition_pair@__crt_stdio_output@@$0IA@@1@B 000000018007cd90     libucrtd:output.obj
 0002:00009190       ??_C@_1GC@LCDLABEA@?$AAm?$AAi?$AAn?$AAk?$AAe?$AAr?$AAn?$AAe?$AAl?$AA?2?$AAc?$AAr?$AAt?$AAs?$AA?2@ 000000018007d190     libucrtd:output.obj
 0002:00009200       ??_C@_1GA@MOBAPGIO@?$AAm?$AAi?$AAn?$AAk?$AAe?$AAr?$AAn?$AAe?$AAl?$AA?2?$AAc?$AAr?$AAt?$AAs?$AA?2@ 000000018007d200     libucrtd:output.obj
 0002:00009260       ??_C@_1CA@GELIJBMC@?$AAc?$AAo?$AAm?$AAm?$AAo?$AAn?$AA_?$AAv?$AAf?$AAp?$AAr?$AAi?$AAn?$AAt?$AAf@ 000000018007d260     libucrtd:output.obj
 0002:00009280       ??_C@_1CE@EAKLPBKK@?$AAf?$AAo?$AAr?$AAm?$AAa?$AAt?$AA?5?$AA?$CB?$AA?$DN?$AA?5?$AAn?$AAu?$AAl?$AAl?$AAp@ 000000018007d280     libucrtd:output.obj
 0002:000092a8       ??_C@_1CA@PIMGHCEK@?$AAc?$AAo?$AAm?$AAm?$AAo?$AAn?$AA_?$AAv?$AAs?$AAp?$AAr?$AAi?$AAn?$AAt?$AAf@ 000000018007d2a8     libucrtd:output.obj
 0002:000092d0       ??_C@_1EO@EGEEFEFM@?$AAb?$AAu?$AAf?$AAf?$AAe?$AAr?$AA_?$AAc?$AAo?$AAu?$AAn?$AAt?$AA?5?$AA?$DN?$AA?$DN@ 000000018007d2d0     libucrtd:output.obj
 0002:00009320       ??_C@_1CE@JEILLNB@?$AAc?$AAo?$AAm?$AAm?$AAo?$AAn?$AA_?$AAv?$AAs?$AAp?$AAr?$AAi?$AAn?$AAt?$AAf@ 000000018007d320     libucrtd:output.obj
 0002:00009350       ??_C@_1EM@OAFHAOLH@?$AAb?$AAu?$AAf?$AAf?$AAe?$AAr?$AA?5?$AA?$CB?$AA?$DN?$AA?5?$AAn?$AAu?$AAl?$AAl?$AAp@ 000000018007d350     libucrtd:output.obj
 0002:000093a0       ??_C@_1DA@HPBFKMEB@?$AA?$CI?$AA?$CC?$AAB?$AAu?$AAf?$AAf?$AAe?$AAr?$AA?5?$AAt?$AAo?$AAo?$AA?5?$AAs?$AAm@ 000000018007d3a0     libucrtd:output.obj
 0002:000093d0       ??_C@_1CG@LHFJHFBB@?$AAc?$AAo?$AAm?$AAm?$AAo?$AAn?$AA_?$AAv?$AAs?$AAn?$AAp?$AAr?$AAi?$AAn?$AAt@ 000000018007d3d0     libucrtd:output.obj
 0002:000093f8       ??_C@_1CM@JOIJBMEM@?$AA_?$AAf?$AAo?$AAr?$AAm?$AAa?$AAt?$AA_?$AAi?$AAt?$AA?5?$AA?$CB?$AA?$DN?$AA?5?$AAn@ 000000018007d3f8     libucrtd:output.obj
 0002:00009430       ??_C@_1HA@DMAAKIJP@?$AAm?$AAi?$AAn?$AAk?$AAe?$AAr?$AAn?$AAe?$AAl?$AA?2?$AAc?$AAr?$AAt?$AAs?$AA?2@ 000000018007d430     libucrtd:output.obj
 0002:000094a0       ??_C@_1EE@DMAIGNBG@?$AA?$CI?$AA?$CC?$AAI?$AAn?$AAc?$AAo?$AAr?$AAr?$AAe?$AAc?$AAt?$AA?5?$AAf?$AAo?$AAr@ 000000018007d4a0     libucrtd:output.obj
 0002:000094f0       ??_C@_1BLI@IKDKMDHI@?$AA_?$AA_?$AAc?$AAr?$AAt?$AA_?$AAs?$AAt?$AAd?$AAi?$AAo?$AA_?$AAo?$AAu?$AAt@ 000000018007d4f0     libucrtd:output.obj
 0002:000096b0       ??_C@_1BLI@EEAAPJD@?$AA_?$AA_?$AAc?$AAr?$AAt?$AA_?$AAs?$AAt?$AAd?$AAi?$AAo?$AA_?$AAo?$AAu?$AAt@ 000000018007d6b0     libucrtd:output.obj
 0002:00009870       ??_C@_1FG@OBJBDPAC@?$AA?$CI?$AA?$CC?$AAN?$AA?5?$AAl?$AAe?$AAn?$AAg?$AAt?$AAh?$AA?5?$AAm?$AAo?$AAd?$AAi@ 000000018007d870     libucrtd:output.obj
 0002:000098d0       ??_C@_1EC@GJPNJDCN@?$AA_?$AAl?$AAe?$AAn?$AAg?$AAt?$AAh?$AA?5?$AA?$DN?$AA?$DN?$AA?5?$AAl?$AAe?$AAn?$AAg@ 000000018007d8d0     libucrtd:output.obj
 0002:00009918       ??_C@_1DG@CEJKFDMO@?$AAs?$AAt?$AAa?$AAt?$AAe?$AA_?$AAc?$AAa?$AAs?$AAe?$AA_?$AAn?$AAo?$AAr?$AAm@ 000000018007d918     libucrtd:output.obj
 0002:00009950       ??_C@_1BMI@KBPJOJJI@?$AA_?$AA_?$AAc?$AAr?$AAt?$AA_?$AAs?$AAt?$AAd?$AAi?$AAo?$AA_?$AAo?$AAu?$AAt@ 000000018007d950     libucrtd:output.obj
 0002:00009b20       ??_C@_1BMM@PGHHMNDM@?$AA_?$AA_?$AAc?$AAr?$AAt?$AA_?$AAs?$AAt?$AAd?$AAi?$AAo?$AA_?$AAo?$AAu?$AAt@ 000000018007db20     libucrtd:output.obj
 0002:00009cf0       ??_C@_1CI@DDKMNCPP@?$AA_?$AAc?$AAo?$AAn?$AAt?$AAe?$AAx?$AAt?$AA?5?$AA?$CB?$AA?$DN?$AA?5?$AAn?$AAu?$AAl@ 000000018007dcf0     libucrtd:output.obj
 0002:00009d20       ??_C@_1HK@IIPGOADH@?$AA_?$AA_?$AAc?$AAr?$AAt?$AA_?$AAs?$AAt?$AAd?$AAi?$AAo?$AA_?$AAo?$AAu?$AAt@ 000000018007dd20     libucrtd:output.obj
 0002:00009da0       ??_C@_1HE@IACOMEJF@?$AA_?$AA_?$AAc?$AAr?$AAt?$AA_?$AAs?$AAt?$AAd?$AAi?$AAo?$AA_?$AAo?$AAu?$AAt@ 000000018007dda0     libucrtd:output.obj
 0002:00009e20       ??_C@_1GC@BNMHNGKM@?$AA_?$AAs?$AAt?$AAa?$AAt?$AAe?$AA?5?$AA?$DN?$AA?$DN?$AA?5?$AAs?$AAt?$AAa?$AAt?$AAe@ 000000018007de20     libucrtd:output.obj
 0002:00009e90       ??_C@_1BMI@DNMDMAAN@?$AA_?$AA_?$AAc?$AAr?$AAt?$AA_?$AAs?$AAt?$AAd?$AAi?$AAo?$AA_?$AAo?$AAu?$AAt@ 000000018007de90     libucrtd:output.obj
 0002:0000a060       ??_C@_1BMM@JHGFKAND@?$AA_?$AA_?$AAc?$AAr?$AAt?$AA_?$AAs?$AAt?$AAd?$AAi?$AAo?$AA_?$AAo?$AAu?$AAt@ 000000018007e060     libucrtd:output.obj
 0002:0000a230       ??_C@_1CA@ONEGMNAN@?$AA_?$AAs?$AAt?$AAr?$AAe?$AAa?$AAm?$AA?4?$AAv?$AAa?$AAl?$AAi?$AAd?$AA?$CI?$AA?$CJ@ 000000018007e230     libucrtd:output.obj
 0002:0000a250       ??_C@_1HK@MPBCDOK@?$AA_?$AA_?$AAc?$AAr?$AAt?$AA_?$AAs?$AAt?$AAd?$AAi?$AAo?$AA_?$AAo?$AAu?$AAt@ 000000018007e250     libucrtd:output.obj
 0002:0000a2d0       ??_C@_1BEC@NDOOKIMC@?$AA_?$AA_?$AAc?$AAr?$AAt?$AA_?$AAs?$AAt?$AAd?$AAi?$AAo?$AA_?$AAo?$AAu?$AAt@ 000000018007e2d0     libucrtd:output.obj
 0002:0000a420       ??_C@_1EK@PNGFDECN@?$AA?$CI?$AA?$CC?$AA?8?$AAn?$AA?8?$AA?5?$AAf?$AAo?$AAr?$AAm?$AAa?$AAt?$AA?5?$AAs?$AAp@ 000000018007e420     libucrtd:output.obj
 0002:0000a470       ??_C@_1EO@GHKFGFKL@?$AA?$CI?$AA?$CC?$AAI?$AAn?$AAv?$AAa?$AAl?$AAi?$AAd?$AA?5?$AAi?$AAn?$AAt?$AAe?$AAg@ 000000018007e470     libucrtd:output.obj
 0002:0000a4c0       ??_C@_1BDG@KOLEFKPF@?$AA_?$AA_?$AAc?$AAr?$AAt?$AA_?$AAs?$AAt?$AAd?$AAi?$AAo?$AA_?$AAo?$AAu?$AAt@ 000000018007e4c0     libucrtd:output.obj
 0002:0000a600       ??_C@_1BMA@IHIBOLMD@?$AA_?$AA_?$AAc?$AAr?$AAt?$AA_?$AAs?$AAt?$AAd?$AAi?$AAo?$AA_?$AAo?$AAu?$AAt@ 000000018007e600     libucrtd:output.obj
 0002:0000a7c0       ??_C@_1BMA@PGOJAHFP@?$AA_?$AA_?$AAc?$AAr?$AAt?$AA_?$AAs?$AAt?$AAd?$AAi?$AAo?$AA_?$AAo?$AAu?$AAt@ 000000018007e7c0     libucrtd:output.obj
 0002:0000a980       ??_C@_1O@CEDCILHN@?$AA?$CI?$AAn?$AAu?$AAl?$AAl?$AA?$CJ@ 000000018007e980     libucrtd:output.obj
 0002:0000a990       ??_C@_06OJHGLDPL@?$CInull?$CJ@ 000000018007e990     libucrtd:output.obj
 0002:0000a998       ??_C@_1CK@LGDCECDH@?$AA_?$AAf?$AAo?$AAr?$AAm?$AAa?$AAt?$AA_?$AAc?$AAh?$AAa?$AAr?$AA?5?$AA?$CB?$AA?$DN@ 000000018007e998     libucrtd:output.obj
 0002:0000a9d0       ??_C@_1BMM@MBMBCJIF@?$AA_?$AA_?$AAc?$AAr?$AAt?$AA_?$AAs?$AAt?$AAd?$AAi?$AAo?$AA_?$AAo?$AAu?$AAt@ 000000018007e9d0     libucrtd:output.obj
 0002:0000aba0       ??_C@_1BMM@KANDEEGK@?$AA_?$AA_?$AAc?$AAr?$AAt?$AA_?$AAs?$AAt?$AAd?$AAi?$AAo?$AA_?$AAo?$AAu?$AAt@ 000000018007eba0     libucrtd:output.obj
 0002:0000ad70       ??_C@_0DI@KIFBHMNO@minkernel?2crts?2ucrt?2inc?2corecrt@ 000000018007ed70     libucrtd:output.obj
 0002:0000adb0       ??_C@_1BMK@JGIBNIA@?$AA_?$AA_?$AAc?$AAr?$AAt?$AA_?$AAs?$AAt?$AAd?$AAi?$AAo?$AA_?$AAo?$AAu?$AAt@ 000000018007edb0     libucrtd:output.obj
 0002:0000af80       ??_C@_1BLC@INKIGOCN@?$AA_?$AA_?$AAc?$AAr?$AAt?$AA_?$AAs?$AAt?$AAd?$AAi?$AAo?$AA_?$AAo?$AAu?$AAt@ 000000018007ef80     libucrtd:output.obj
 0002:0000b140       ??_C@_1BNK@KHNJGCCP@?$AA_?$AA_?$AAc?$AAr?$AAt?$AA_?$AAs?$AAt?$AAd?$AAi?$AAo?$AA_?$AAo?$AAu?$AAt@ 000000018007f140     libucrtd:output.obj
 0002:0000b320       ??_C@_1BNO@OHFFMOOJ@?$AA_?$AA_?$AAc?$AAr?$AAt?$AA_?$AAs?$AAt?$AAd?$AAi?$AAo?$AA_?$AAo?$AAu?$AAt@ 000000018007f320     libucrtd:output.obj
 0002:0000b500       ??_C@_1BMC@FAGJFBLI@?$AA_?$AA_?$AAc?$AAr?$AAt?$AA_?$AAs?$AAt?$AAd?$AAi?$AAo?$AA_?$AAo?$AAu?$AAt@ 000000018007f500     libucrtd:output.obj
 0002:0000b6d0       ??_C@_1BMG@CGPDIFDK@?$AA_?$AA_?$AAc?$AAr?$AAt?$AA_?$AAs?$AAt?$AAd?$AAi?$AAo?$AA_?$AAo?$AAu?$AAt@ 000000018007f6d0     libucrtd:output.obj
 0002:0000b8a0       ??_C@_1BNC@OHPDPPJK@?$AA_?$AA_?$AAc?$AAr?$AAt?$AA_?$AAs?$AAt?$AAd?$AAi?$AAo?$AA_?$AAo?$AAu?$AAt@ 000000018007f8a0     libucrtd:output.obj
 0002:0000ba80       ??_C@_1BLK@FOLFMPJH@?$AA_?$AA_?$AAc?$AAr?$AAt?$AA_?$AAs?$AAt?$AAd?$AAi?$AAo?$AA_?$AAo?$AAu?$AAt@ 000000018007fa80     libucrtd:output.obj
 0002:0000bc40       ??_C@_1BNO@NAODCKFA@?$AA_?$AA_?$AAc?$AAr?$AAt?$AA_?$AAs?$AAt?$AAd?$AAi?$AAo?$AA_?$AAo?$AAu?$AAt@ 000000018007fc40     libucrtd:output.obj
 0002:0000be20       ??_C@_1BMG@BBEFGBID@?$AA_?$AA_?$AAc?$AAr?$AAt?$AA_?$AAs?$AAt?$AAd?$AAi?$AAo?$AA_?$AAo?$AAu?$AAt@ 000000018007fe20     libucrtd:output.obj
 0002:0000bff0       ??_C@_1BNC@JPKLPOHO@?$AA_?$AA_?$AAc?$AAr?$AAt?$AA_?$AAs?$AAt?$AAd?$AAi?$AAo?$AA_?$AAo?$AAu?$AAt@ 000000018007fff0     libucrtd:output.obj
 0002:0000c1c8       ??_C@_1DA@LLLMNMKI@?$AAa?$AAb?$AAo?$AAr?$AAt?$AA?$CI?$AA?$CJ?$AA?5?$AAh?$AAa?$AAs?$AA?5?$AAb?$AAe?$AAe@ 00000001800801c8     libucrtd:abort.obj
 0002:0000c210       ??_C@_1BA@GLMCNLEM@?$AAW?$AAa?$AAr?$AAn?$AAi?$AAn?$AAg@ 0000000180080210     libucrtd:dbgrpt.obj
 0002:0000c220       ??_C@_1M@ILHOPKA@?$AAE?$AAr?$AAr?$AAo?$AAr@ 0000000180080220     libucrtd:dbgrpt.obj
 0002:0000c230       ??_C@_1CC@CGHMNGDG@?$AAA?$AAs?$AAs?$AAe?$AAr?$AAt?$AAi?$AAo?$AAn?$AA?5?$AAF?$AAa?$AAi?$AAl?$AAe@ 0000000180080230     libucrtd:dbgrpt.obj
 0002:0000c260       ??_C@_1OG@PMPPFHAF@?$AA?6?$AA?6?$AAF?$AAo?$AAr?$AA?5?$AAi?$AAn?$AAf?$AAo?$AAr?$AAm?$AAa?$AAt?$AAi@ 0000000180080260     libucrtd:dbgrpt.obj
 0002:0000c350       ??_C@_1MG@LJLILFFD@?$AAD?$AAe?$AAb?$AAu?$AAg?$AA?5?$AA?$CF?$AAl?$AAs?$AA?$CB?$AA?6?$AA?6?$AAP?$AAr?$AAo@ 0000000180080350     libucrtd:dbgrpt.obj
 0002:0000c420       ??_C@_1MG@OODCADGL@?$AAD?$AAe?$AAb?$AAu?$AAg?$AA?5?$AA?$CF?$AAl?$AAs?$AA?$CB?$AA?6?$AA?6?$AAP?$AAr?$AAo@ 0000000180080420     libucrtd:dbgrpt.obj
 0002:0000c4f0       ??_C@_1FO@GMJDLAJD@?$AAm?$AAi?$AAn?$AAk?$AAe?$AAr?$AAn?$AAe?$AAl?$AA?2?$AAc?$AAr?$AAt?$AAs?$AA?2@ 00000001800804f0     libucrtd:dbgrpt.obj
 0002:0000c550       ??_C@_1CM@EHMOGBJJ@?$AAc?$AAo?$AAm?$AAm?$AAo?$AAn?$AA_?$AAm?$AAe?$AAs?$AAs?$AAa?$AAg?$AAe?$AA_@ 0000000180080550     libucrtd:dbgrpt.obj
 0002:0000c57c       ??_C@_11LOCGONAA@@         000000018008057c     libucrtd:dbgrpt.obj
 0002:0000c580       ??_C@_1BA@GLLGCPCK@?$AA?6?$AAL?$AAi?$AAn?$AAe?$AA?3?$AA?5@ 0000000180080580     libucrtd:dbgrpt.obj
 0002:0000c590       ??_C@_1BA@LNHECFIM@?$AA?6?$AAF?$AAi?$AAl?$AAe?$AA?3?$AA?5@ 0000000180080590     libucrtd:dbgrpt.obj
 0002:0000c5a0       ??_C@_1BE@CGCJKGHI@?$AA?6?$AAM?$AAo?$AAd?$AAu?$AAl?$AAe?$AA?3?$AA?5@ 00000001800805a0     libucrtd:dbgrpt.obj
 0002:0000c5c0       ??_C@_1JM@IBOIJEOO@?$AAw?$AAc?$AAs?$AAc?$AAp?$AAy?$AA_?$AAs?$AA?$CI?$AAm?$AAe?$AAs?$AAs?$AAa?$AAg@ 00000001800805c0     libucrtd:dbgrpt.obj
 0002:0000c660       ??_C@_1FG@BBOLDHGF@?$AA_?$AAC?$AAr?$AAt?$AAD?$AAb?$AAg?$AAR?$AAe?$AAp?$AAo?$AAr?$AAt?$AA?3?$AA?5@ 0000000180080660     libucrtd:dbgrpt.obj
 0002:0000c6c0       ??_C@_1CI@JELMFMDH@?$AAc?$AA?5?$AA?$DO?$AA?$DN?$AA?5?$AA?9?$AA1?$AA?5?$AA?$CG?$AA?$CG?$AA?5?$AAc?$AA?5?$AA?$DM?$AA?$DN@ 00000001800806c0     libucrtd:isctype.obj
 0002:0000c6f0       ??_C@_1GG@KPBGDFHJ@?$AAm?$AAi?$AAn?$AAk?$AAe?$AAr?$AAn?$AAe?$AAl?$AA?2?$AAc?$AAr?$AAt?$AAs?$AA?2@ 00000001800806f0     libucrtd:isctype.obj
 0002:0000c8c8       ??_C@_0DM@DKIFNNOL@minkernel?2crts?2ucrt?2src?2appcrt?2@ 00000001800808c8     libucrtd:per_thread_data.obj
 0002:0000c910       __lc_time_c                0000000180080910     libucrtd:nlsdata.obj
 0002:0000cbd0       ??_C@_03KOEHGMDN@Sun@      0000000180080bd0     libucrtd:nlsdata.obj
 0002:0000cbd4       ??_C@_03PDAGKDH@Mon@       0000000180080bd4     libucrtd:nlsdata.obj
 0002:0000cbd8       ??_C@_03NAGEINEP@Tue@      0000000180080bd8     libucrtd:nlsdata.obj
 0002:0000cbdc       ??_C@_03MHOMLAJA@Wed@      0000000180080bdc     libucrtd:nlsdata.obj
 0002:0000cbe0       ??_C@_03IOFIKPDN@Thu@      0000000180080be0     libucrtd:nlsdata.obj
 0002:0000cbe4       ??_C@_03IDIOELNC@Fri@      0000000180080be4     libucrtd:nlsdata.obj
 0002:0000cbe8       ??_C@_03FEFJNEK@Sat@       0000000180080be8     libucrtd:nlsdata.obj
 0002:0000cbec       ??_C@_06OOPIFAJ@Sunday@    0000000180080bec     libucrtd:nlsdata.obj
 0002:0000cbf4       ??_C@_06JLEDEDGH@Monday@   0000000180080bf4     libucrtd:nlsdata.obj
 0002:0000cc00       ??_C@_07BAAGCFCM@Tuesday@  0000000180080c00     libucrtd:nlsdata.obj
 0002:0000cc08       ??_C@_09DLIGFAKA@Wednesday@ 0000000180080c08     libucrtd:nlsdata.obj
 0002:0000cc18       ??_C@_08HACCIKIA@Thursday@ 0000000180080c18     libucrtd:nlsdata.obj
 0002:0000cc24       ??_C@_06JECMNKMI@Friday@   0000000180080c24     libucrtd:nlsdata.obj
 0002:0000cc30       ??_C@_08INBOOONO@Saturday@ 0000000180080c30     libucrtd:nlsdata.obj
 0002:0000cc3c       ??_C@_03JIHJHPIE@Jan@      0000000180080c3c     libucrtd:nlsdata.obj
 0002:0000cc40       ??_C@_03HJBDCHOM@Feb@      0000000180080c40     libucrtd:nlsdata.obj
 0002:0000cc44       ??_C@_03ODNJBKGA@Mar@      0000000180080c44     libucrtd:nlsdata.obj
 0002:0000cc48       ??_C@_03LEOLGMJP@Apr@      0000000180080c48     libucrtd:nlsdata.obj
 0002:0000cc4c       ??_C@_03CNMDKL@May@        0000000180080c4c     libucrtd:nlsdata.obj
 0002:0000cc50       ??_C@_03IDFGHECI@Jun@      0000000180080c50     libucrtd:nlsdata.obj
 0002:0000cc54       ??_C@_03LBGABGKK@Jul@      0000000180080c54     libucrtd:nlsdata.obj
 0002:0000cc58       ??_C@_03IFJFEIGA@Aug@      0000000180080c58     libucrtd:nlsdata.obj
 0002:0000cc5c       ??_C@_03GGCAPAJC@Sep@      0000000180080c5c     libucrtd:nlsdata.obj
 0002:0000cc60       ??_C@_03BMAOKBAD@Oct@      0000000180080c60     libucrtd:nlsdata.obj
 0002:0000cc64       ??_C@_03JPJOFNIA@Nov@      0000000180080c64     libucrtd:nlsdata.obj
 0002:0000cc68       ??_C@_03MKABNOCG@Dec@      0000000180080c68     libucrtd:nlsdata.obj
 0002:0000cc70       ??_C@_07CGJPFGJA@January@  0000000180080c70     libucrtd:nlsdata.obj
 0002:0000cc78       ??_C@_08GNJGEPFN@February@ 0000000180080c78     libucrtd:nlsdata.obj
 0002:0000cc84       ??_C@_05HPCKOFNC@March@    0000000180080c84     libucrtd:nlsdata.obj
 0002:0000cc8c       ??_C@_05DMJDNLEJ@April@    0000000180080c8c     libucrtd:nlsdata.obj
 0002:0000cc94       ??_C@_04CNLMGBGM@June@     0000000180080c94     libucrtd:nlsdata.obj
 0002:0000cc9c       ??_C@_04MIEPOIFP@July@     0000000180080c9c     libucrtd:nlsdata.obj
 0002:0000cca4       ??_C@_06LBBHFDDG@August@   0000000180080ca4     libucrtd:nlsdata.obj
 0002:0000ccb0       ??_C@_09BHHEALKD@September@ 0000000180080cb0     libucrtd:nlsdata.obj
 0002:0000ccc0       ??_C@_07JJNFCEND@October@  0000000180080cc0     libucrtd:nlsdata.obj
 0002:0000ccc8       ??_C@_08HCHEGEOA@November@ 0000000180080cc8     libucrtd:nlsdata.obj
 0002:0000ccd8       ??_C@_08EDHMEBNP@December@ 0000000180080cd8     libucrtd:nlsdata.obj
 0002:0000cce4       ??_C@_02DEDBPAFC@AM@       0000000180080ce4     libucrtd:nlsdata.obj
 0002:0000cce8       ??_C@_02CJNFDJBF@PM@       0000000180080ce8     libucrtd:nlsdata.obj
 0002:0000ccf0       ??_C@_08BPBNCDIB@MM?1dd?1yy@ 0000000180080cf0     libucrtd:nlsdata.obj
 0002:0000cd00       ??_C@_0BE@CKGJFCPC@dddd?0?5MMMM?5dd?0?5yyyy@ 0000000180080d00     libucrtd:nlsdata.obj
 0002:0000cd18       ??_C@_08JCCMCCIL@HH?3mm?3ss@ 0000000180080d18     libucrtd:nlsdata.obj
 0002:0000cd28       ??_C@_17MBGCMIPB@?$AAS?$AAu?$AAn@ 0000000180080d28     libucrtd:nlsdata.obj
 0002:0000cd30       ??_C@_17KBOMKBF@?$AAM?$AAo?$AAn@ 0000000180080d30     libucrtd:nlsdata.obj
 0002:0000cd38       ??_C@_17BMKGEGOJ@?$AAT?$AAu?$AAe@ 0000000180080d38     libucrtd:nlsdata.obj
 0002:0000cd40       ??_C@_17CJEDCEPE@?$AAW?$AAe?$AAd@ 0000000180080d40     libucrtd:nlsdata.obj
 0002:0000cd48       ??_C@_17PDPHAADD@?$AAT?$AAh?$AAu@ 0000000180080d48     libucrtd:nlsdata.obj
 0002:0000cd50       ??_C@_17HFOLPPLP@?$AAF?$AAr?$AAi@ 0000000180080d50     libucrtd:nlsdata.obj
 0002:0000cd58       ??_C@_17GGIBDPIH@?$AAS?$AAa?$AAt@ 0000000180080d58     libucrtd:nlsdata.obj
 0002:0000cd60       ??_C@_1O@IHNHDHPB@?$AAS?$AAu?$AAn?$AAd?$AAa?$AAy@ 0000000180080d60     libucrtd:nlsdata.obj
 0002:0000cd70       ??_C@_1O@MMNBFLIA@?$AAM?$AAo?$AAn?$AAd?$AAa?$AAy@ 0000000180080d70     libucrtd:nlsdata.obj
 0002:0000cd80       ??_C@_1BA@ENFBFFEK@?$AAT?$AAu?$AAe?$AAs?$AAd?$AAa?$AAy@ 0000000180080d80     libucrtd:nlsdata.obj
 0002:0000cd90       ??_C@_1BE@EBOGMDOH@?$AAW?$AAe?$AAd?$AAn?$AAe?$AAs?$AAd?$AAa?$AAy@ 0000000180080d90     libucrtd:nlsdata.obj
 0002:0000cda8       ??_C@_1BC@HHMNLIHE@?$AAT?$AAh?$AAu?$AAr?$AAs?$AAd?$AAa?$AAy@ 0000000180080da8     libucrtd:nlsdata.obj
 0002:0000cdc0       ??_C@_1O@PDICJHAG@?$AAF?$AAr?$AAi?$AAd?$AAa?$AAy@ 0000000180080dc0     libucrtd:nlsdata.obj
 0002:0000cdd0       ??_C@_1BC@ENMNNPAJ@?$AAS?$AAa?$AAt?$AAu?$AAr?$AAd?$AAa?$AAy@ 0000000180080dd0     libucrtd:nlsdata.obj
 0002:0000cde8       ??_C@_17DKNBKCHM@?$AAJ?$AAa?$AAn@ 0000000180080de8     libucrtd:nlsdata.obj
 0002:0000cdf0       ??_C@_17LMDJEKJN@?$AAF?$AAe?$AAb@ 0000000180080df0     libucrtd:nlsdata.obj
 0002:0000cdf8       ??_C@_17CKNLEDEC@?$AAM?$AAa?$AAr@ 0000000180080df8     libucrtd:nlsdata.obj
 0002:0000ce00       ??_C@_17LFPOIHDD@?$AAA?$AAp?$AAr@ 0000000180080e00     libucrtd:nlsdata.obj
 0002:0000ce08       ??_C@_17PNNKMEED@?$AAM?$AAa?$AAy@ 0000000180080e08     libucrtd:nlsdata.obj
 0002:0000ce10       ??_C@_17KCJGOCPB@?$AAJ?$AAu?$AAn@ 0000000180080e10     libucrtd:nlsdata.obj
 0002:0000ce18       ??_C@_17IJPCKHK@?$AAJ?$AAu?$AAl@ 0000000180080e18     libucrtd:nlsdata.obj
 0002:0000ce20       ??_C@_17ICPELBCN@?$AAA?$AAu?$AAg@ 0000000180080e20     libucrtd:nlsdata.obj
 0002:0000ce28       ??_C@_17HCHCOKMG@?$AAS?$AAe?$AAp@ 0000000180080e28     libucrtd:nlsdata.obj
 0002:0000ce30       ??_C@_17FNLKOI@?$AAO?$AAc?$AAt@ 0000000180080e30     libucrtd:nlsdata.obj
 0002:0000ce38       ??_C@_17BBDMLCIG@?$AAN?$AAo?$AAv@ 0000000180080e38     libucrtd:nlsdata.obj
 0002:0000ce40       ??_C@_17EGKACKIF@?$AAD?$AAe?$AAc@ 0000000180080e40     libucrtd:nlsdata.obj
 0002:0000ce48       ??_C@_1BA@EFMEIEBA@?$AAJ?$AAa?$AAn?$AAu?$AAa?$AAr?$AAy@ 0000000180080e48     libucrtd:nlsdata.obj
 0002:0000ce58       ??_C@_1BC@JGDDFFAM@?$AAF?$AAe?$AAb?$AAr?$AAu?$AAa?$AAr?$AAy@ 0000000180080e58     libucrtd:nlsdata.obj
 0002:0000ce70       ??_C@_1M@IKEENEDF@?$AAM?$AAa?$AAr?$AAc?$AAh@ 0000000180080e70     libucrtd:nlsdata.obj
 0002:0000ce80       ??_C@_1M@GJNLMHFD@?$AAA?$AAp?$AAr?$AAi?$AAl@ 0000000180080e80     libucrtd:nlsdata.obj
 0002:0000ce90       ??_C@_19EPFLPGAP@?$AAJ?$AAu?$AAn?$AAe@ 0000000180080e90     libucrtd:nlsdata.obj
 0002:0000cea0       ??_C@_19BIFMLPCD@?$AAJ?$AAu?$AAl?$AAy@ 0000000180080ea0     libucrtd:nlsdata.obj
 0002:0000ceb0       ??_C@_1O@PAHLKOAC@?$AAA?$AAu?$AAg?$AAu?$AAs?$AAt@ 0000000180080eb0     libucrtd:nlsdata.obj
 0002:0000cec0       ??_C@_1BE@DKAAMBJL@?$AAS?$AAe?$AAp?$AAt?$AAe?$AAm?$AAb?$AAe?$AAr@ 0000000180080ec0     libucrtd:nlsdata.obj
 0002:0000ced8       ??_C@_1BA@EPANDLNG@?$AAO?$AAc?$AAt?$AAo?$AAb?$AAe?$AAr@ 0000000180080ed8     libucrtd:nlsdata.obj
 0002:0000cee8       ??_C@_1BC@BGLIFPF@?$AAN?$AAo?$AAv?$AAe?$AAm?$AAb?$AAe?$AAr@ 0000000180080ee8     libucrtd:nlsdata.obj
 0002:0000cf00       ??_C@_1BC@FEMKIFH@?$AAD?$AAe?$AAc?$AAe?$AAm?$AAb?$AAe?$AAr@ 0000000180080f00     libucrtd:nlsdata.obj
 0002:0000cf14       ??_C@_15ODEHAHHF@?$AAA?$AAM@ 0000000180080f14     libucrtd:nlsdata.obj
 0002:0000cf1c       ??_C@_15CLMNNGEL@?$AAP?$AAM@ 0000000180080f1c     libucrtd:nlsdata.obj
 0002:0000cf28       ??_C@_1BC@IEBCMHCM@?$AAM?$AAM?$AA?1?$AAd?$AAd?$AA?1?$AAy?$AAy@ 0000000180080f28     libucrtd:nlsdata.obj
 0002:0000cf40       ??_C@_1CI@KNAKOEBC@?$AAd?$AAd?$AAd?$AAd?$AA?0?$AA?5?$AAM?$AAM?$AAM?$AAM?$AA?5?$AAd?$AAd?$AA?0?$AA?5@ 0000000180080f40     libucrtd:nlsdata.obj
 0002:0000cf68       ??_C@_1BC@GDGBMEMK@?$AAH?$AAH?$AA?3?$AAm?$AAm?$AA?3?$AAs?$AAs@ 0000000180080f68     libucrtd:nlsdata.obj
 0002:0000cf80       ??_C@_1M@BMHNFIME@?$AAe?$AAn?$AA?9?$AAU?$AAS@ 0000000180080f80     libucrtd:nlsdata.obj
 0002:0000cf90       _d_inf                     0000000180080f90     libucrtd:util.obj
 0002:0000cf98       _d_max                     0000000180080f98     libucrtd:util.obj
 0002:0000d170       ??_C@_03KHJOGHMM@exp@      0000000180081170     libucrtd:fpexcept.obj
 0002:0000d174       ??_C@_03JGHBODFD@pow@      0000000180081174     libucrtd:fpexcept.obj
 0002:0000d178       ??_C@_03MGHMBJCF@log@      0000000180081178     libucrtd:fpexcept.obj
 0002:0000d17c       ??_C@_05HGHHAHAP@log10@    000000018008117c     libucrtd:fpexcept.obj
 0002:0000d184       ??_C@_04COOMCNPB@sinh@     0000000180081184     libucrtd:fpexcept.obj
 0002:0000d18c       ??_C@_04HPJJNFIM@cosh@     000000018008118c     libucrtd:fpexcept.obj
 0002:0000d194       ??_C@_04FJHINJAO@tanh@     0000000180081194     libucrtd:fpexcept.obj
 0002:0000d19c       ??_C@_04FIHNOPOL@asin@     000000018008119c     libucrtd:fpexcept.obj
 0002:0000d1a4       ??_C@_04PDIFKINK@acos@     00000001800811a4     libucrtd:fpexcept.obj
 0002:0000d1ac       ??_C@_04MLLJIGOK@atan@     00000001800811ac     libucrtd:fpexcept.obj
 0002:0000d1b4       ??_C@_05KNGEOGJB@atan2@    00000001800811b4     libucrtd:fpexcept.obj
 0002:0000d1bc       ??_C@_04EIAKFFMI@sqrt@     00000001800811bc     libucrtd:fpexcept.obj
 0002:0000d1c4       ??_C@_03BLEJJJBH@sin@      00000001800811c4     libucrtd:fpexcept.obj
 0002:0000d1c8       ??_C@_03LALBNOCG@cos@      00000001800811c8     libucrtd:fpexcept.obj
 0002:0000d1cc       ??_C@_03IIINPABG@tan@      00000001800811cc     libucrtd:fpexcept.obj
 0002:0000d1d0       ??_C@_04GFPJNGEK@ceil@     00000001800811d0     libucrtd:fpexcept.obj
 0002:0000d1d8       ??_C@_05PBJFFIGL@floor@    00000001800811d8     libucrtd:fpexcept.obj
 0002:0000d1e0       ??_C@_04ODHECPBC@fabs@     00000001800811e0     libucrtd:fpexcept.obj
 0002:0000d1e8       ??_C@_04EHEDPDJG@modf@     00000001800811e8     libucrtd:fpexcept.obj
 0002:0000d1f0       ??_C@_05CEJMAHNP@ldexp@    00000001800811f0     libucrtd:fpexcept.obj
 0002:0000d1f8       ??_C@_05KBKMEMPO@_cabs@    00000001800811f8     libucrtd:fpexcept.obj
 0002:0000d200       ??_C@_06MEIMCGCF@_hypot@   0000000180081200     libucrtd:fpexcept.obj
 0002:0000d208       ??_C@_04KEPJIHGP@fmod@     0000000180081208     libucrtd:fpexcept.obj
 0002:0000d210       ??_C@_05GKKHEGJL@frexp@    0000000180081210     libucrtd:fpexcept.obj
 0002:0000d218       ??_C@_03MJLDFKDL@_y0@      0000000180081218     libucrtd:fpexcept.obj
 0002:0000d21c       ??_C@_03NAKIGLHK@_y1@      000000018008121c     libucrtd:fpexcept.obj
 0002:0000d220       ??_C@_03ONILCKOB@_yn@      0000000180081220     libucrtd:fpexcept.obj
 0002:0000d224       ??_C@_05JGDBENOH@_logb@    0000000180081224     libucrtd:fpexcept.obj
 0002:0000d230       ??_C@_0L@KDOEJCKC@_nextafter@ 0000000180081230     libucrtd:fpexcept.obj
 0002:0000d240       __xmm@80000000000000008000000000000000 0000000180081240     libucrtd:fpexcept.obj
 0002:0000d250       ??_C@_0CP@GDJHIDC@minkernel?2crts?2ucrt?2src?2appcrt?2@ 0000000180081250     libucrtd:_file.obj
 0002:0000d280       ??_C@_0DA@OGKFKCBE@minkernel?2crts?2ucrt?2src?2appcrt?2@ 0000000180081280     libucrtd:stream.obj
 0002:0000d2b0       ??_C@_1GE@HEEFEAFI@?$AAm?$AAi?$AAn?$AAk?$AAe?$AAr?$AAn?$AAe?$AAl?$AA?2?$AAc?$AAr?$AAt?$AAs?$AA?2@ 00000001800812b0     libucrtd:openfile.obj
 0002:0000d314       ?ccs@?1???$__acrt_stdio_parse_mode@D@@YA?AU__acrt_stdio_stream_mode@@QEBD@Z@4QBDB 0000000180081314     libucrtd:openfile.obj
 0002:0000d318       ?utf8_encoding@?1???$__acrt_stdio_parse_mode@D@@YA?AU__acrt_stdio_stream_mode@@QEBD@Z@4QBDB 0000000180081318     libucrtd:openfile.obj
 0002:0000d320       ?utf16_encoding@?1???$__acrt_stdio_parse_mode@D@@YA?AU__acrt_stdio_stream_mode@@QEBD@Z@4QBDB 0000000180081320     libucrtd:openfile.obj
 0002:0000d328       ?unicode_encoding@?1???$__acrt_stdio_parse_mode@D@@YA?AU__acrt_stdio_stream_mode@@QEBD@Z@4QBDB 0000000180081328     libucrtd:openfile.obj
 0002:0000d330       ??_C@_1DM@FOFGGBBM@?$AA?$CI?$AA?$CC?$AAI?$AAn?$AAv?$AAa?$AAl?$AAi?$AAd?$AA?5?$AAf?$AAi?$AAl?$AAe?$AA?5@ 0000000180081330     libucrtd:openfile.obj
 0002:0000d370       ??_C@_1DA@KPIHAHGC@?$AA_?$AA_?$AAa?$AAc?$AAr?$AAt?$AA_?$AAs?$AAt?$AAd?$AAi?$AAo?$AA_?$AAp?$AAa@ 0000000180081370     libucrtd:openfile.obj
 0002:0000d3a0       ??_C@_1BI@PDNFEGCG@?$AA?$CK?$AAi?$AAt?$AA?5?$AA?$DN?$AA?$DN?$AA?5?$AA?8?$AA?2?$AA0?$AA?8@ 00000001800813a0     libucrtd:openfile.obj
 0002:0000d3c0       ??_C@_1JE@ECKHFIFP@?$AA?$CI?$AA?$CC?$AAI?$AAn?$AAv?$AAa?$AAl?$AAi?$AAd?$AA?5?$AAf?$AAi?$AAl?$AAe?$AA?5@ 00000001800813c0     libucrtd:close.obj
 0002:0000d460       ??_C@_1FO@IPDGALOE@?$AAm?$AAi?$AAn?$AAk?$AAe?$AAr?$AAn?$AAe?$AAl?$AA?2?$AAc?$AAr?$AAt?$AAs?$AA?2@ 0000000180081460     libucrtd:close.obj
 0002:0000d4c0       ??_C@_1FO@LPCLHKGE@?$AA?$CI?$AAf?$AAh?$AA?5?$AA?$DO?$AA?$DN?$AA?5?$AA0?$AA?5?$AA?$CG?$AA?$CG?$AA?5?$AA?$CI?$AAu?$AAn@ 00000001800814c0     libucrtd:close.obj
 0002:0000d520       ??_C@_1O@EDEJGJBM@?$AA_?$AAc?$AAl?$AAo?$AAs?$AAe@ 0000000180081520     libucrtd:close.obj
 0002:0000d530       ??_C@_1CM@OKGMMMDH@?$AA?$CI?$AA_?$AAo?$AAs?$AAf?$AAi?$AAl?$AAe?$AA?$CI?$AAf?$AAh?$AA?$CJ?$AA?5?$AA?$CG?$AA?5@ 0000000180081530     libucrtd:close.obj
 0002:0000d560       ??_C@_1GA@KCAHHNGP@?$AAm?$AAi?$AAn?$AAk?$AAe?$AAr?$AAn?$AAe?$AAl?$AA?2?$AAc?$AAr?$AAt?$AAs?$AA?2@ 0000000180081560     libucrtd:fileno.obj
 0002:0000d5c0       ??_C@_1BA@JGHIEKKM@?$AA_?$AAf?$AAi?$AAl?$AAe?$AAn?$AAo@ 00000001800815c0     libucrtd:fileno.obj
 0002:0000d5d0       ??_C@_1GE@GPOPIOIG@?$AAm?$AAi?$AAn?$AAk?$AAe?$AAr?$AAn?$AAe?$AAl?$AA?2?$AAc?$AAr?$AAt?$AAs?$AA?2@ 00000001800815d0     libucrtd:_freebuf.obj
 0002:0000d640       ??_C@_1GC@MGNADOPH@?$AAm?$AAi?$AAn?$AAk?$AAe?$AAr?$AAn?$AAe?$AAl?$AA?2?$AAc?$AAr?$AAt?$AAs?$AA?2@ 0000000180081640     libucrtd:_filbuf.obj
 0002:0000d6a8       ??_C@_1DM@MPDNIFLF@?$AAc?$AAo?$AAm?$AAm?$AAo?$AAn?$AA_?$AAr?$AAe?$AAf?$AAi?$AAl?$AAl?$AA_?$AAa@ 00000001800816a8     libucrtd:_filbuf.obj
 0002:0000d6f0       ??_C@_1FK@MGHFJLAL@?$AAf?$AAh?$AA?5?$AA?$DO?$AA?$DN?$AA?5?$AA0?$AA?5?$AA?$CG?$AA?$CG?$AA?5?$AA?$CI?$AAu?$AAn?$AAs@ 00000001800816f0     libucrtd:read.obj
 0002:0000d750       ??_C@_1FM@PHKGHLIO@?$AAm?$AAi?$AAn?$AAk?$AAe?$AAr?$AAn?$AAe?$AAl?$AA?2?$AAc?$AAr?$AAt?$AAs?$AA?2@ 0000000180081750     libucrtd:read.obj
 0002:0000d7b0       ??_C@_1M@NHJOLLDM@?$AA_?$AAr?$AAe?$AAa?$AAd@ 00000001800817b0     libucrtd:read.obj
 0002:0000d7c0       ??_C@_1CI@ILOIOBLM@?$AA_?$AAo?$AAs?$AAf?$AAi?$AAl?$AAe?$AA?$CI?$AAf?$AAh?$AA?$CJ?$AA?5?$AA?$CG?$AA?5?$AAF@ 00000001800817c0     libucrtd:read.obj
 0002:0000d7e8       ??_C@_1CO@OPEPDLLF@?$AAb?$AAu?$AAf?$AAf?$AAe?$AAr?$AA_?$AAs?$AAi?$AAz?$AAe?$AA?5?$AA?$DM?$AA?$DN?$AA?5@ 00000001800817e8     libucrtd:read.obj
 0002:0000d818       ??_C@_1BK@JJBHNDKJ@?$AA_?$AAr?$AAe?$AAa?$AAd?$AA_?$AAn?$AAo?$AAl?$AAo?$AAc?$AAk@ 0000000180081818     libucrtd:read.obj
 0002:0000d838       ??_C@_1DM@JEAHBMKI@?$AAr?$AAe?$AAs?$AAu?$AAl?$AAt?$AA_?$AAb?$AAu?$AAf?$AAf?$AAe?$AAr?$AA_?$AAs@ 0000000180081838     libucrtd:read.obj
 0002:0000d878       ??_C@_1DC@MGKAFPFD@?$AAr?$AAe?$AAs?$AAu?$AAl?$AAt?$AA_?$AAb?$AAu?$AAf?$AAf?$AAe?$AAr?$AA?5?$AA?$CB@ 0000000180081878     libucrtd:read.obj
 0002:0000d8b0       ??_C@_1DI@CDGOMPDO@?$AAr?$AAe?$AAs?$AAu?$AAl?$AAt?$AA_?$AAb?$AAu?$AAf?$AAf?$AAe?$AAr?$AA_?$AAs@ 00000001800818b0     libucrtd:read.obj
 0002:0000d8e8       ??_C@_0CO@JFNFJHLC@minkernel?2crts?2ucrt?2src?2appcrt?2@ 00000001800818e8     libucrtd:read.obj
 0002:0000d918       ??_C@_1DM@HGBOAKPP@?$AA?$CI?$AAr?$AAe?$AAs?$AAu?$AAl?$AAt?$AA_?$AAb?$AAu?$AAf?$AAf?$AAe?$AAr?$AA_@ 0000000180081918     libucrtd:read.obj
 0002:0000d960       ??_C@_1FO@KIIHJNFN@?$AAm?$AAi?$AAn?$AAk?$AAe?$AAr?$AAn?$AAe?$AAl?$AA?2?$AAc?$AAr?$AAt?$AAs?$AA?2@ 0000000180081960     libucrtd:lseek.obj
 0002:0000d9c0       ??_C@_1BK@JOMBNFIM@?$AAc?$AAo?$AAm?$AAm?$AAo?$AAn?$AA_?$AAl?$AAs?$AAe?$AAe?$AAk@ 00000001800819c0     libucrtd:lseek.obj
 0002:0000d9e0       ??_C@_1DM@LMLOLGJ@?$AA?$CI?$AA?$CC?$AAI?$AAn?$AAv?$AAa?$AAl?$AAi?$AAd?$AA?5?$AAf?$AAi?$AAl?$AAe?$AA?5@ 00000001800819e0     libucrtd:lseek.obj
 0002:0000da20       ??_C@_1GC@DLDMJFMI@?$AAm?$AAi?$AAn?$AAk?$AAe?$AAr?$AAn?$AAe?$AAl?$AA?2?$AAc?$AAr?$AAt?$AAs?$AA?2@ 0000000180081a20     libucrtd:_getbuf.obj
 0002:0000da88       ??_C@_0DB@LKJPMJPL@minkernel?2crts?2ucrt?2src?2appcrt?2@ 0000000180081a88     libucrtd:_getbuf.obj
 0002:0000dac0       ??_C@_1IC@DCNEKBE@?$AAm?$AAi?$AAn?$AAk?$AAe?$AAr?$AAn?$AAe?$AAl?$AA?2?$AAc?$AAr?$AAt?$AAs?$AA?2@ 0000000180081ac0     libucrtd:report_runtime_error.obj
 0002:0000db48       ??_C@_1DI@BLFJHKKP@?$AA_?$AA_?$AAa?$AAc?$AAr?$AAt?$AA_?$AAr?$AAe?$AAp?$AAo?$AAr?$AAt?$AA_?$AAr@ 0000000180081b48     libucrtd:report_runtime_error.obj
 0002:0000db80       ??_C@_1LE@MHPGJGKE@?$AAw?$AAc?$AAs?$AAc?$AAp?$AAy?$AA_?$AAs?$AA?$CI?$AAo?$AAu?$AAt?$AAm?$AAs?$AAg@ 0000000180081b80     libucrtd:report_runtime_error.obj
 0002:0000dc38       ??_C@_1DE@JNGNBFGO@?$AAR?$AAu?$AAn?$AAt?$AAi?$AAm?$AAe?$AA?5?$AAE?$AAr?$AAr?$AAo?$AAr?$AA?$CB?$AA?6@ 0000000180081c38     libucrtd:report_runtime_error.obj
 0002:0000dc70       ??_C@_1HK@FJJNAABO@?$AAw?$AAc?$AAs?$AAc?$AAp?$AAy?$AA_?$AAs?$AA?$CI?$AAp?$AAr?$AAo?$AAg?$AAn?$AAa@ 0000000180081c70     libucrtd:report_runtime_error.obj
 0002:0000dcf0       ??_C@_1HI@FLHKGEBE@?$AAw?$AAc?$AAs?$AAn?$AAc?$AAp?$AAy?$AA_?$AAs?$AA?$CI?$AAp?$AAc?$AAh?$AA?0?$AA?5@ 0000000180081cf0     libucrtd:report_runtime_error.obj
 0002:0000dd70       ??_C@_1IG@MNNKBLBI@?$AAw?$AAc?$AAs?$AAc?$AAa?$AAt?$AA_?$AAs?$AA?$CI?$AAo?$AAu?$AAt?$AAm?$AAs?$AAg@ 0000000180081d70     libucrtd:report_runtime_error.obj
 0002:0000de00       ??_C@_1IG@DFBBBDAN@?$AAw?$AAc?$AAs?$AAc?$AAa?$AAt?$AA_?$AAs?$AA?$CI?$AAo?$AAu?$AAt?$AAm?$AAs?$AAg@ 0000000180081e00     libucrtd:report_runtime_error.obj
 0002:0000de90       ??_C@_1GA@HBEFGMHK@?$AAm?$AAi?$AAn?$AAk?$AAe?$AAr?$AAn?$AAe?$AAl?$AA?2?$AAc?$AAr?$AAt?$AAs?$AA?2@ 0000000180081e90     libucrtd:xtoa.obj
 0002:0000def0       ??_C@_1BM@HMPEMLNP@?$AAc?$AAo?$AAm?$AAm?$AAo?$AAn?$AA_?$AAx?$AAt?$AAo?$AAx?$AA_?$AAs@ 0000000180081ef0     libucrtd:xtoa.obj
 0002:0000df10       ??_C@_1CC@ONIJBMJF@?$AAb?$AAu?$AAf?$AAf?$AAe?$AAr?$AA_?$AAc?$AAo?$AAu?$AAn?$AAt?$AA?5?$AA?$DO?$AA?5@ 0000000180081f10     libucrtd:xtoa.obj
 0002:0000df40       ??_C@_1HA@JFIOFNKD@?$AAb?$AAu?$AAf?$AAf?$AAe?$AAr?$AA_?$AAc?$AAo?$AAu?$AAn?$AAt?$AA?5?$AA?$DO?$AA?5@ 0000000180081f40     libucrtd:xtoa.obj
 0002:0000dfb0       ??_C@_1DE@PCJGDBBD@?$AA2?$AA?5?$AA?$DM?$AA?$DN?$AA?5?$AAr?$AAa?$AAd?$AAi?$AAx?$AA?5?$AA?$CG?$AA?$CG?$AA?5?$AAr@ 0000000180081fb0     libucrtd:xtoa.obj
 0002:0000dfe8       ??_C@_1CM@LONILNIJ@?$AAl?$AAe?$AAn?$AAg?$AAt?$AAh?$AA?5?$AA?$DM?$AA?5?$AAb?$AAu?$AAf?$AAf?$AAe?$AAr@ 0000000180081fe8     libucrtd:xtoa.obj
 0002:0000e018       ??_C@_1BI@OLPLFKOE@?$AAc?$AAo?$AAm?$AAm?$AAo?$AAn?$AA_?$AAx?$AAt?$AAo?$AAx@ 0000000180082018     libucrtd:xtoa.obj
 0002:0000e030       ??_C@_1DE@BCNCAIK@?$AA?$CI?$AA?$CC?$AAI?$AAn?$AAv?$AAa?$AAl?$AAi?$AAd?$AA?5?$AAe?$AAr?$AAr?$AAo?$AAr@ 0000000180082030     libucrtd:set_error_mode.obj
 0002:0000e070       ??_C@_1GO@EBFPMMIJ@?$AAm?$AAi?$AAn?$AAk?$AAe?$AAr?$AAn?$AAe?$AAl?$AA?2?$AAc?$AAr?$AAt?$AAs?$AA?2@ 0000000180082070     libucrtd:set_error_mode.obj
 0002:0000e0e0       ??_C@_1CA@LFDHAMEM@?$AA_?$AAs?$AAe?$AAt?$AA_?$AAe?$AAr?$AAr?$AAo?$AAr?$AA_?$AAm?$AAo?$AAd?$AAe@ 00000001800820e0     libucrtd:set_error_mode.obj
 0002:0000e100       ??_C@_1CA@EOJJMFA@?$AAc?$AAo?$AAm?$AAm?$AAo?$AAn?$AA_?$AAt?$AAc?$AAs?$AAc?$AAa?$AAt?$AA_?$AAs@ 0000000180082100     libucrtd:wcscat_s.obj
 0002:0000e120       ??_C@_1DM@FHLMIEG@?$AAS?$AAt?$AAr?$AAi?$AAn?$AAg?$AA?5?$AAi?$AAs?$AA?5?$AAn?$AAo?$AAt?$AA?5?$AAn@ 0000000180082120     libucrtd:wcscat_s.obj
 0002:0000e160       ??_C@_1FA@MJKDNFFB@?$AA?$CI?$AAL?$AA?$CC?$AAS?$AAt?$AAr?$AAi?$AAn?$AAg?$AA?5?$AAi?$AAs?$AA?5?$AAn?$AAo@ 0000000180082160     libucrtd:wcscat_s.obj
 0002:0000e1b0       ??_C@_1CC@HELMJGIF@?$AAc?$AAo?$AAm?$AAm?$AAo?$AAn?$AA_?$AAt?$AAc?$AAs?$AAn?$AAc?$AAa?$AAt?$AA_@ 00000001800821b0     libucrtd:wcsncat_s.obj
 0002:0000e200       ??_C@_0DB@BJFCCEBD@minkernel?2crts?2ucrt?2src?2appcrt?2@ 0000000180082200     libucrtd:setvbuf.obj
 0002:0000e240       ??_C@_1GC@NAMEPLDD@?$AAm?$AAi?$AAn?$AAk?$AAe?$AAr?$AAn?$AAe?$AAl?$AA?2?$AAc?$AAr?$AAt?$AAs?$AA?2@ 0000000180082240     libucrtd:setvbuf.obj
 0002:0000e2a8       ??_C@_1BA@OGODIODK@?$AAs?$AAe?$AAt?$AAv?$AAb?$AAu?$AAf@ 00000001800822a8     libucrtd:setvbuf.obj
 0002:0000e2c0       ??_C@_1GG@CBGCKJPC@?$AAt?$AAy?$AAp?$AAe?$AA?5?$AA?$DN?$AA?$DN?$AA?5?$AA_?$AAI?$AAO?$AAN?$AAB?$AAF?$AA?5@ 00000001800822c0     libucrtd:setvbuf.obj
 0002:0000e330       ??_C@_1HK@PBPJKDDM@?$AA2?$AA?5?$AA?$DM?$AA?$DN?$AA?5?$AAb?$AAu?$AAf?$AAf?$AAe?$AAr?$AA_?$AAs?$AAi?$AAz@ 0000000180082330     libucrtd:setvbuf.obj
 0002:0000e3b0       ??_C@_1DA@NBILLKNO@?$AAl?$AAo?$AAc?$AAa?$AAl?$AA_?$AAa?$AAc?$AAt?$AAi?$AAo?$AAn?$AA?5?$AA?$CB?$AA?$DN@ 00000001800823b0     libucrtd:signal.obj
 0002:0000e3e0       ??_C@_1FO@CCGDPEKE@?$AAm?$AAi?$AAn?$AAk?$AAe?$AAr?$AAn?$AAe?$AAl?$AA?2?$AAc?$AAr?$AAt?$AAs?$AA?2@ 00000001800823e0     libucrtd:signal.obj
 0002:0000e440       ??_C@_1M@DMJEIKHL@?$AAr?$AAa?$AAi?$AAs?$AAe@ 0000000180082440     libucrtd:signal.obj
 0002:0000e450       ??_C@_1DO@MLNEDKGB@?$AA?$CI?$AA?$CC?$AAI?$AAn?$AAv?$AAa?$AAl?$AAi?$AAd?$AA?5?$AAs?$AAi?$AAg?$AAn?$AAa@ 0000000180082450     libucrtd:signal.obj
 0002:0000e600       ??_C@_04LAGPAAHP@sinf@     0000000180082600     libucrtd:sincos_special.obj
 0002:0000e608       ??_C@_04OBBKPIAC@cosf@     0000000180082608     libucrtd:sincos_special.obj
 0002:0000e610       __Lcosfarray               0000000180082610     libucrtd:lsincosf_array.obj
 0002:0000e640       __Lsinfarray               0000000180082640     libucrtd:lsincosf_array.obj
 0002:0000e660       __log_256_lead             0000000180082660     libucrtd:log_256_lead_tail_table.obj
 0002:0000ee70       __log_256_tail             0000000180082e70     libucrtd:log_256_lead_tail_table.obj
 0002:0000f680       __two_to_jby64_head_table  0000000180083680     libucrtd:two_to_jby64_head_tail_table.obj
 0002:0000f880       __two_to_jby64_tail_table  0000000180083880     libucrtd:two_to_jby64_head_tail_table.obj
 0002:0000fa80       __L_2_by_pi_bits           0000000180083a80     libucrtd:l2_by_pi_bits.obj
 0002:0000fbd0       ??_C@_1FO@NMANMHOD@?$AAc?$AAa?$AAc?$AAh?$AAe?$AAd?$AA_?$AAs?$AAt?$AAa?$AAt?$AAe?$AA?5?$AA?$DN?$AA?$DN@ 0000000180083bd0     libucrtd:win_policies.obj
 0002:0000fc30       ??_C@_1HC@GHLNKBJK@?$AAm?$AAi?$AAn?$AAk?$AAe?$AAr?$AAn?$AAe?$AAl?$AA?2?$AAc?$AAr?$AAt?$AAs?$AA?2@ 0000000180083c30     libucrtd:win_policies.obj
 0002:0000fcd0       ??_C@_0DI@DNFGFCIK@minkernel?2crts?2ucrt?2inc?2corecrt@ 0000000180083cd0     libucrtd:argv_wildcards.obj
 0002:0000fd10       ??_C@_1HE@CEMHPOHH@?$AAm?$AAi?$AAn?$AAk?$AAe?$AAr?$AAn?$AAe?$AAl?$AA?2?$AAc?$AAr?$AAt?$AAs?$AA?2@ 0000000180083d10     libucrtd:argv_wildcards.obj
 0002:0000fd88       ??_C@_1DK@IBFFOJGB@?$AAc?$AAo?$AAm?$AAm?$AAo?$AAn?$AA_?$AAe?$AAx?$AAp?$AAa?$AAn?$AAd?$AA_?$AAa@ 0000000180083d88     libucrtd:argv_wildcards.obj
 0002:0000fdd0       ??_C@_1MC@FLPKOFON@?$AAt?$AAr?$AAa?$AAi?$AAt?$AAs?$AA?3?$AA?3?$AAt?$AAc?$AAs?$AAn?$AAc?$AAp?$AAy@ 0000000180083dd0     libucrtd:argv_wildcards.obj
 0002:0000fe98       ??_C@_0DK@FPFMIIJB@minkernel?2crts?2ucrt?2src?2appcrt?2@ 0000000180083e98     libucrtd:argv_wildcards.obj
 0002:0000fee0       ??_C@_1EA@KOCCBLAD@?$AAc?$AAo?$AAp?$AAy?$AA_?$AAa?$AAn?$AAd?$AA_?$AAa?$AAd?$AAd?$AA_?$AAa?$AAr@ 0000000180083ee0     libucrtd:argv_wildcards.obj
 0002:0000ff20       ??_C@_1KM@GDJIGAGL@?$AAt?$AAr?$AAa?$AAi?$AAt?$AAs?$AA?3?$AA?3?$AAt?$AAc?$AAs?$AAn?$AAc?$AAp?$AAy@ 0000000180083f20     libucrtd:argv_wildcards.obj
 0002:0000ffd0       ??_C@_1PI@FGFLAGCC@?$AAt?$AAr?$AAa?$AAi?$AAt?$AAs?$AA?3?$AA?3?$AAt?$AAc?$AAs?$AAn?$AAc?$AAp?$AAy@ 0000000180083fd0     libucrtd:argv_wildcards.obj
 0002:000100e8       ??_C@_1M@HPNHIDJI@?$AAj?$AAa?$AA?9?$AAJ?$AAP@ 00000001800840e8     libucrtd:mbctype.obj
 0002:000100f8       ??_C@_1M@BIBDDEMK@?$AAz?$AAh?$AA?9?$AAC?$AAN@ 00000001800840f8     libucrtd:mbctype.obj
 0002:00010108       ??_C@_1M@JLOOOEGK@?$AAk?$AAo?$AA?9?$AAK?$AAR@ 0000000180084108     libucrtd:mbctype.obj
 0002:00010118       ??_C@_1M@CLNBBOPM@?$AAz?$AAh?$AA?9?$AAT?$AAW@ 0000000180084118     libucrtd:mbctype.obj
 0002:00010128       ??_C@_0DE@HGDKNBFD@minkernel?2crts?2ucrt?2src?2appcrt?2@ 0000000180084128     libucrtd:mbctype.obj
 0002:00010160       ??_C@_0ED@BLPEHJAI@minkernel?2crts?2ucrt?2src?2desktop@ 0000000180084160     libucrtd:get_environment_from_os.obj
 0002:00010250       ??_C@_1EA@JGEFHKEI@?$AAa?$AAp?$AAi?$AA?9?$AAm?$AAs?$AA?9?$AAw?$AAi?$AAn?$AA?9?$AAc?$AAo?$AAr?$AAe@ 0000000180084250     libucrtd:winapi_thunks.obj
 0002:00010290       ??_C@_1DI@IJCEHOCB@?$AAa?$AAp?$AAi?$AA?9?$AAm?$AAs?$AA?9?$AAw?$AAi?$AAn?$AA?9?$AAc?$AAo?$AAr?$AAe@ 0000000180084290     libucrtd:winapi_thunks.obj
 0002:000102d0       ??_C@_1EI@MPIAOHOC@?$AAa?$AAp?$AAi?$AA?9?$AAm?$AAs?$AA?9?$AAw?$AAi?$AAn?$AA?9?$AAc?$AAo?$AAr?$AAe@ 00000001800842d0     libucrtd:winapi_thunks.obj
 0002:00010320       ??_C@_1FK@FPHCKFIE@?$AAa?$AAp?$AAi?$AA?9?$AAm?$AAs?$AA?9?$AAw?$AAi?$AAn?$AA?9?$AAc?$AAo?$AAr?$AAe@ 0000000180084320     libucrtd:winapi_thunks.obj
 0002:00010380       ??_C@_1EM@DILCGIIO@?$AAa?$AAp?$AAi?$AA?9?$AAm?$AAs?$AA?9?$AAw?$AAi?$AAn?$AA?9?$AAc?$AAo?$AAr?$AAe@ 0000000180084380     libucrtd:winapi_thunks.obj
 0002:000103d0       ??_C@_1DM@LNCGDDPN@?$AAa?$AAp?$AAi?$AA?9?$AAm?$AAs?$AA?9?$AAw?$AAi?$AAn?$AA?9?$AAc?$AAo?$AAr?$AAe@ 00000001800843d0     libucrtd:winapi_thunks.obj
 0002:00010410       ??_C@_1DO@FPAPJEMD@?$AAa?$AAp?$AAi?$AA?9?$AAm?$AAs?$AA?9?$AAw?$AAi?$AAn?$AA?9?$AAc?$AAo?$AAr?$AAe@ 0000000180084410     libucrtd:winapi_thunks.obj
 0002:00010450       ??_C@_1DK@NDHNAHIO@?$AAa?$AAp?$AAi?$AA?9?$AAm?$AAs?$AA?9?$AAw?$AAi?$AAn?$AA?9?$AAc?$AAo?$AAr?$AAe@ 0000000180084450     libucrtd:winapi_thunks.obj
 0002:00010490       ??_C@_1DM@KGHDGBCM@?$AAa?$AAp?$AAi?$AA?9?$AAm?$AAs?$AA?9?$AAw?$AAi?$AAn?$AA?9?$AAc?$AAo?$AAr?$AAe@ 0000000180084490     libucrtd:winapi_thunks.obj
 0002:000104d0       ??_C@_1EO@IJIOEFOH@?$AAa?$AAp?$AAi?$AA?9?$AAm?$AAs?$AA?9?$AAw?$AAi?$AAn?$AA?9?$AAr?$AAt?$AAc?$AAo@ 00000001800844d0     libucrtd:winapi_thunks.obj
 0002:00010520       ??_C@_1FG@HHGEKANL@?$AAa?$AAp?$AAi?$AA?9?$AAm?$AAs?$AA?9?$AAw?$AAi?$AAn?$AA?9?$AAs?$AAe?$AAc?$AAu@ 0000000180084520     libucrtd:winapi_thunks.obj
 0002:00010580       ??_C@_1EG@DBIOJECG@?$AAe?$AAx?$AAt?$AA?9?$AAm?$AAs?$AA?9?$AAw?$AAi?$AAn?$AA?9?$AAn?$AAt?$AAu?$AAs@ 0000000180084580     libucrtd:winapi_thunks.obj
 0002:000105d0       ??_C@_1EO@FIHMJCLF@?$AAe?$AAx?$AAt?$AA?9?$AAm?$AAs?$AA?9?$AAw?$AAi?$AAn?$AA?9?$AAn?$AAt?$AAu?$AAs@ 00000001800845d0     libucrtd:winapi_thunks.obj
 0002:00010620       ??_C@_1BC@DNHGCMLG@?$AAa?$AAd?$AAv?$AAa?$AAp?$AAi?$AA3?$AA2@ 0000000180084620     libucrtd:winapi_thunks.obj
 0002:00010638       ??_C@_1M@OAIMIKLP@?$AAn?$AAt?$AAd?$AAl?$AAl@ 0000000180084638     libucrtd:winapi_thunks.obj
 0002:00010650       ??_C@_1EG@DPGNFKGC@?$AAa?$AAp?$AAi?$AA?9?$AAm?$AAs?$AA?9?$AAw?$AAi?$AAn?$AA?9?$AAa?$AAp?$AAp?$AAm@ 0000000180084650     libucrtd:winapi_thunks.obj
 0002:00010698       ??_C@_1O@BCCLBEOE@?$AAu?$AAs?$AAe?$AAr?$AA3?$AA2@ 0000000180084698     libucrtd:winapi_thunks.obj
 0002:000106b0       ??_C@_1HE@OILMBOBA@?$AAm?$AAi?$AAn?$AAk?$AAe?$AAr?$AAn?$AAe?$AAl?$AA?2?$AAc?$AAr?$AAt?$AAs?$AA?2@ 00000001800846b0     libucrtd:winapi_thunks.obj
 0002:00010728       ??_C@_0BA@FHFNEAED@AreFileApisANSI@ 0000000180084728     libucrtd:winapi_thunks.obj
 0002:00010760       ??_C@_0BA@HNOPNCHB@GetActiveWindow@ 0000000180084760     libucrtd:winapi_thunks.obj
 0002:00010778       ??_C@_0BD@HHGDFDBJ@GetLastActivePopup@ 0000000180084778     libucrtd:winapi_thunks.obj
 0002:00010798       ??_C@_0BI@DFKBFLJE@GetProcessWindowStation@ 0000000180084798     libucrtd:winapi_thunks.obj
 0002:000107b8       ??_C@_0BK@DEKFELLI@GetUserObjectInformationW@ 00000001800847b8     libucrtd:winapi_thunks.obj
 0002:000107e8       ??_C@_0O@KKBNKAPF@LCMapStringEx@ 00000001800847e8     libucrtd:winapi_thunks.obj
 0002:00010800       ??_C@_0BB@HBDEELFH@LocaleNameToLCID@ 0000000180084800     libucrtd:winapi_thunks.obj
 0002:00010820       ??_C@_0M@CHKKJDAI@MessageBoxA@ 0000000180084820     libucrtd:winapi_thunks.obj
 0002:00010838       ??_C@_0M@DLDCCGNP@MessageBoxW@ 0000000180084838     libucrtd:winapi_thunks.obj
 0002:00010848       ??_C@_0CF@OJOFEIGO@AppPolicyGetProcessTerminationM@ 0000000180084848     libucrtd:winapi_thunks.obj
 0002:00010878       ??_C@_0CE@OICFMIKE@AppPolicyGetShowDeveloperDiagno@ 0000000180084878     libucrtd:winapi_thunks.obj
 0002:000108a0       ??_C@_0BL@ODDJNEDA@AppPolicyGetWindowingModel@ 00000001800848a0     libucrtd:winapi_thunks.obj
 0002:000108c0       ??_C@_1GC@GBMDABED@?$AAm?$AAi?$AAn?$AAk?$AAe?$AAr?$AAn?$AAe?$AAl?$AA?2?$AAc?$AAr?$AAt?$AAs?$AA?2@ 00000001800848c0     libucrtd:_sftbuf.obj
 0002:00010928       ??_C@_0DB@EPIHMFLB@minkernel?2crts?2ucrt?2src?2appcrt?2@ 0000000180084928     libucrtd:_sftbuf.obj
 0002:00010960       ??_C@_1FO@GEKPJHID@?$AAm?$AAi?$AAn?$AAk?$AAe?$AAr?$AAn?$AAe?$AAl?$AA?2?$AAc?$AAr?$AAt?$AAs?$AA?2@ 0000000180084960     libucrtd:expand.obj
 0002:000109c0       ??_C@_1BK@JMCGJOCC@?$AA_?$AAe?$AAx?$AAp?$AAa?$AAn?$AAd?$AA_?$AAb?$AAa?$AAs?$AAe@ 00000001800849c0     libucrtd:expand.obj
 0002:000109e0       ??_C@_1BBC@DECGKMGJ@?$AA_?$AAl?$AAo?$AAc?$AA_?$AAu?$AAp?$AAd?$AAa?$AAt?$AAe?$AA?4?$AAG?$AAe?$AAt@ 00000001800849e0     libucrtd:mbtowc.obj
 0002:00010b00       ??_C@_1GE@CGIHMDEJ@?$AAm?$AAi?$AAn?$AAk?$AAe?$AAr?$AAn?$AAe?$AAl?$AA?2?$AAc?$AAr?$AAt?$AAs?$AA?2@ 0000000180084b00     libucrtd:mbtowc.obj
 0002:00010b70       ??_C@_1HA@KNBGJAIN@?$AAU?$AAT?$AAF?$AA?9?$AA8?$AA?5?$AAi?$AAs?$AAn?$AA?8?$AAt?$AA?5?$AAs?$AAu?$AAp@ 0000000180084b70     libucrtd:mbtowc.obj
 0002:00010be0       ??_C@_1BBA@EIIJPPL@?$AA_?$AAl?$AAo?$AAc?$AA_?$AAu?$AAp?$AAd?$AAa?$AAt?$AAe?$AA?4?$AAG?$AAe?$AAt@ 0000000180084be0     libucrtd:mbtowc.obj
 0002:00010cf0       ??_C@_1IE@CDCHDACI@?$AA_?$AAl?$AAo?$AAc?$AA_?$AAu?$AAp?$AAd?$AAa?$AAt?$AAe?$AA?4?$AAG?$AAe?$AAt@ 0000000180084cf0     libucrtd:mbtowc.obj
 0002:00010d78       ??_C@_1DK@NBNOAGKB@?$AAd?$AAe?$AAs?$AAt?$AAi?$AAn?$AAa?$AAt?$AAi?$AAo?$AAn?$AA_?$AAc?$AAo?$AAu@ 0000000180084d78     libucrtd:wctomb.obj
 0002:00010dc0       ??_C@_1GE@FCCEPHFG@?$AAm?$AAi?$AAn?$AAk?$AAe?$AAr?$AAn?$AAe?$AAl?$AA?2?$AAc?$AAr?$AAt?$AAs?$AA?2@ 0000000180084dc0     libucrtd:wctomb.obj
 0002:00010e28       ??_C@_1BI@IEADNOHF@?$AA_?$AAw?$AAc?$AAt?$AAo?$AAm?$AAb?$AA_?$AAs?$AA_?$AAl@ 0000000180084e28     libucrtd:wctomb.obj
 0002:00010e40       ??_C@_1CM@ENFEGCNE@?$AAd?$AAe?$AAs?$AAt?$AAi?$AAn?$AAa?$AAt?$AAi?$AAo?$AAn?$AA_?$AAc?$AAo?$AAu@ 0000000180084e40     libucrtd:wctomb.obj
 0002:00010f20       ??_C@_03OEIAHPBN@INF@      0000000180084f20     libucrtd:cvt.obj
 0002:00010f24       ??_C@_03OJHLLCGB@inf@      0000000180084f24     libucrtd:cvt.obj
 0002:00010f28       ??_C@_03LKNCIKJB@NAN@      0000000180084f28     libucrtd:cvt.obj
 0002:00010f2c       ??_C@_03LHCJEHON@nan@      0000000180084f2c     libucrtd:cvt.obj
 0002:00010f30       ??_C@_09OFJJIMPC@NAN?$CISNAN?$CJ@ 0000000180084f30     libucrtd:cvt.obj
 0002:00010f40       ??_C@_09IPFBKMDL@nan?$CIsnan?$CJ@ 0000000180084f40     libucrtd:cvt.obj
 0002:00010f50       ??_C@_08IKHNHAJ@NAN?$CIIND?$CJ@ 0000000180084f50     libucrtd:cvt.obj
 0002:00010f60       ??_C@_08OFCDMILK@nan?$CIind?$CJ@ 0000000180084f60     libucrtd:cvt.obj
 0002:00010f70       ??_C@_1FO@GKAKAPLI@?$AAm?$AAi?$AAn?$AAk?$AAe?$AAr?$AAn?$AAe?$AAl?$AA?2?$AAc?$AAr?$AAt?$AAs?$AA?2@ 0000000180084f70     libucrtd:cvt.obj
 0002:00010fd0       ??_C@_1DE@EHGIGIDK@?$AAf?$AAp?$AA_?$AAf?$AAo?$AAr?$AAm?$AAa?$AAt?$AA_?$AAn?$AAa?$AAn?$AA_?$AAo@ 0000000180084fd0     libucrtd:cvt.obj
 0002:00011010       ??_C@_1LI@PCMLJPCO@?$AAs?$AAt?$AAr?$AAc?$AAp?$AAy?$AA_?$AAs?$AA?$CI?$AA?5?$AAr?$AAe?$AAs?$AAu?$AAl@ 0000000180085010     libucrtd:cvt.obj
 0002:000110d0       ??_C@_1KO@LJHOFBCD@?$AAr?$AAe?$AAs?$AAu?$AAl?$AAt?$AA_?$AAb?$AAu?$AAf?$AAf?$AAe?$AAr?$AA_?$AAc@ 00000001800850d0     libucrtd:cvt.obj
 0002:00011180       ??_C@_1CK@BOLHOMFO@?$AAf?$AAp?$AA_?$AAf?$AAo?$AAr?$AAm?$AAa?$AAt?$AA_?$AAe?$AA_?$AAi?$AAn?$AAt@ 0000000180085180     libucrtd:cvt.obj
 0002:000111b0       ??_C@_1BBE@LHDOMEDC@?$AAs?$AAt?$AAr?$AAc?$AAp?$AAy?$AA_?$AAs?$AA?$CI?$AA?5?$AAp?$AA?0?$AA?5?$AAr?$AAe@ 00000001800851b0     libucrtd:cvt.obj
 0002:000112c4       ??_C@_05KLBDPFGC@e?$CL000@ 00000001800852c4     libucrtd:cvt.obj
 0002:000112d0       ??_C@_1IC@FILKPBAB@?$AAr?$AAe?$AAs?$AAu?$AAl?$AAt?$AA_?$AAb?$AAu?$AAf?$AAf?$AAe?$AAr?$AA_?$AAc@ 00000001800852d0     libucrtd:cvt.obj
 0002:00011358       ??_C@_1BI@PNBDLNBB@?$AAf?$AAp?$AA_?$AAf?$AAo?$AAr?$AAm?$AAa?$AAt?$AA_?$AAa@ 0000000180085358     libucrtd:cvt.obj
 0002:00011370       ??_C@_1CC@LDAHJAKK@?$AA_?$AA_?$AAa?$AAc?$AAr?$AAt?$AA_?$AAf?$AAp?$AA_?$AAf?$AAo?$AAr?$AAm?$AAa@ 0000000180085370     libucrtd:cvt.obj
 0002:00011398       ??_C@_1DA@NMLJJOCO@?$AAr?$AAe?$AAs?$AAu?$AAl?$AAt?$AA_?$AAb?$AAu?$AAf?$AAf?$AAe?$AAr?$AA_?$AAc@ 0000000180085398     libucrtd:cvt.obj
 0002:000113c8       ??_C@_1DE@MNOPBCOK@?$AAs?$AAc?$AAr?$AAa?$AAt?$AAc?$AAh?$AA_?$AAb?$AAu?$AAf?$AAf?$AAe?$AAr?$AA?5@ 00000001800853c8     libucrtd:cvt.obj
 0002:00011400       ??_C@_1DC@CKBKNFKH@?$AAs?$AAc?$AAr?$AAa?$AAt?$AAc?$AAh?$AA_?$AAb?$AAu?$AAf?$AAf?$AAe?$AAr?$AA_@ 0000000180085400     libucrtd:cvt.obj
 0002:00011440       ??_C@_1EI@JAHBOGIM@?$AA?$CI?$AA?$CC?$AAU?$AAn?$AAs?$AAu?$AAp?$AAp?$AAo?$AAr?$AAt?$AAe?$AAd?$AA?5?$AAf@ 0000000180085440     libucrtd:cvt.obj
 0002:00011490       ??_C@_1GA@LFAOKOOP@?$AAm?$AAi?$AAn?$AAk?$AAe?$AAr?$AAn?$AAe?$AAl?$AA?2?$AAc?$AAr?$AAt?$AAs?$AA?2@ 0000000180085490     libucrtd:dbgrptt.obj
 0002:000114f0       ??_C@_1CA@KHJHLKA@?$AA_?$AAV?$AAC?$AAr?$AAt?$AAD?$AAb?$AAg?$AAR?$AAe?$AAp?$AAo?$AAr?$AAt?$AAA@ 00000001800854f0     libucrtd:dbgrptt.obj
 0002:00011510       ??_C@_1FA@JPHJBHEM@?$AA_?$AAi?$AAt?$AAo?$AAa?$AA_?$AAs?$AA?$CI?$AAn?$AAL?$AAi?$AAn?$AAe?$AA?0?$AA?5@ 0000000180085510     libucrtd:dbgrptt.obj
 0002:00011560       ??_C@_0CG@BNGLOCEO@Second?5Chance?5Assertion?5Failed?3@ 0000000180085560     libucrtd:dbgrptt.obj
 0002:00011588       ??_C@_0P@DFJNDPOP@?$DMfile?5unknown?$DO@ 0000000180085588     libucrtd:dbgrptt.obj
 0002:00011598       ??_C@_07BHGABMGB@?0?5Line?5@ 0000000180085598     libucrtd:dbgrptt.obj
 0002:000115a0       ??_C@_1JI@GAALPGBM@?$AAs?$AAt?$AAr?$AAc?$AAp?$AAy?$AA_?$AAs?$AA?$CI?$AAs?$AAz?$AAU?$AAs?$AAe?$AAr@ 00000001800855a0     libucrtd:dbgrptt.obj
 0002:00011638       ??_C@_0CL@EACFGMNB@_CrtDbgReport?3?5String?5too?5long?5@ 0000000180085638     libucrtd:dbgrptt.obj
 0002:00011670       ??_C@_1KK@GIGAEDMO@?$AAs?$AAt?$AAr?$AAc?$AAp?$AAy?$AA_?$AAs?$AA?$CI?$AAs?$AAz?$AAL?$AAi?$AAn?$AAe@ 0000000180085670     libucrtd:dbgrptt.obj
 0002:00011720       ??_C@_0BD@CAENFOHP@Assertion?5failed?3?5@ 0000000180085720     libucrtd:dbgrptt.obj
 0002:00011740       ??_C@_1FK@NPGBPOFO@?$AAs?$AAt?$AAr?$AAc?$AAa?$AAt?$AA_?$AAs?$AA?$CI?$AAs?$AAz?$AAL?$AAi?$AAn?$AAe@ 0000000180085740     libucrtd:dbgrptt.obj
 0002:000117a0       ??_C@_1EI@CACDLAFK@?$AAs?$AAt?$AAr?$AAc?$AAa?$AAt?$AA_?$AAs?$AA?$CI?$AAs?$AAz?$AAL?$AAi?$AAn?$AAe@ 00000001800857a0     libucrtd:dbgrptt.obj
 0002:000117e8       ??_C@_01LIIJDEN@?$AN@      00000001800857e8     libucrtd:dbgrptt.obj
 0002:000117f0       ??_C@_1EI@LDHJEDO@?$AAs?$AAt?$AAr?$AAc?$AAa?$AAt?$AA_?$AAs?$AA?$CI?$AAs?$AAz?$AAL?$AAi?$AAn?$AAe@ 00000001800857f0     libucrtd:dbgrptt.obj
 0002:00011838       ??_C@_0M@IPILFDFN@?$CFs?$CI?$CFd?$CJ?5?3?5?$CFs@ 0000000180085838     libucrtd:dbgrptt.obj
 0002:00011850       ??_C@_1JG@CPKCIOEE@?$AAs?$AAt?$AAr?$AAc?$AAp?$AAy?$AA_?$AAs?$AA?$CI?$AAs?$AAz?$AAO?$AAu?$AAt?$AAM@ 0000000180085850     libucrtd:dbgrptt.obj
 0002:000118f0       ??_C@_1FI@IBIOIHEG@?$AAs?$AAt?$AAr?$AAc?$AAp?$AAy?$AA_?$AAs?$AA?$CI?$AAs?$AAz?$AAO?$AAu?$AAt?$AAM@ 00000001800858f0     libucrtd:dbgrptt.obj
 0002:00011950       ??_C@_1IM@OOKIFKOH@?$AAe?$AA?5?$AA?$DN?$AA?5?$AAm?$AAb?$AAs?$AAt?$AAo?$AAw?$AAc?$AAs?$AA_?$AAs?$AA?$CI@ 0000000180085950     libucrtd:dbgrptt.obj
 0002:000119e0       ??_C@_1MC@IGEECMDB@?$AAw?$AAc?$AAs?$AAc?$AAp?$AAy?$AA_?$AAs?$AA?$CI?$AAs?$AAz?$AAO?$AAu?$AAt?$AAM@ 00000001800859e0     libucrtd:dbgrptt.obj
 0002:00011ab0       ??_C@_1HO@PJOFIKFE@?$AA_?$AAC?$AAr?$AAt?$AAD?$AAb?$AAg?$AAR?$AAe?$AAp?$AAo?$AAr?$AAt?$AA?3?$AA?5@ 0000000180085ab0     libucrtd:dbgrptt.obj
 0002:00011b30       ??_C@_1CA@HPALHDOD@?$AA_?$AAV?$AAC?$AAr?$AAt?$AAD?$AAb?$AAg?$AAR?$AAe?$AAp?$AAo?$AAr?$AAt?$AAW@ 0000000180085b30     libucrtd:dbgrptt.obj
 0002:00011b50       ??_C@_1FA@CNLLOMHI@?$AA_?$AAi?$AAt?$AAo?$AAw?$AA_?$AAs?$AA?$CI?$AAn?$AAL?$AAi?$AAn?$AAe?$AA?0?$AA?5@ 0000000180085b50     libucrtd:dbgrptt.obj
 0002:00011ba0       ??_C@_1EM@MJFLEDMB@?$AAS?$AAe?$AAc?$AAo?$AAn?$AAd?$AA?5?$AAC?$AAh?$AAa?$AAn?$AAc?$AAe?$AA?5?$AAA@ 0000000180085ba0     libucrtd:dbgrptt.obj
 0002:00011bf0       ??_C@_1BO@OCHMLCAG@?$AA?$DM?$AAf?$AAi?$AAl?$AAe?$AA?5?$AAu?$AAn?$AAk?$AAn?$AAo?$AAw?$AAn?$AA?$DO@ 0000000180085bf0     libucrtd:dbgrptt.obj
 0002:00011c10       ??_C@_1BA@ELMMDCFC@?$AA?0?$AA?5?$AAL?$AAi?$AAn?$AAe?$AA?5@ 0000000180085c10     libucrtd:dbgrptt.obj
 0002:00011c20       ??_C@_1JK@KHFABAEO@?$AAw?$AAc?$AAs?$AAc?$AAp?$AAy?$AA_?$AAs?$AA?$CI?$AAs?$AAz?$AAU?$AAs?$AAe?$AAr@ 0000000180085c20     libucrtd:dbgrptt.obj
 0002:00011cc0       ??_C@_1KO@DGAHENCH@?$AAw?$AAc?$AAs?$AAc?$AAp?$AAy?$AA_?$AAs?$AA?$CI?$AAs?$AAz?$AAL?$AAi?$AAn?$AAe@ 0000000180085cc0     libucrtd:dbgrptt.obj
 0002:00011d70       ??_C@_1CG@FFFGGODN@?$AAA?$AAs?$AAs?$AAe?$AAr?$AAt?$AAi?$AAo?$AAn?$AA?5?$AAf?$AAa?$AAi?$AAl?$AAe@ 0000000180085d70     libucrtd:dbgrptt.obj
 0002:00011da0       ??_C@_1FK@HPADHBBD@?$AAw?$AAc?$AAs?$AAc?$AAa?$AAt?$AA_?$AAs?$AA?$CI?$AAs?$AAz?$AAL?$AAi?$AAn?$AAe@ 0000000180085da0     libucrtd:dbgrptt.obj
 0002:00011e00       ??_C@_1EK@NMDFGHMF@?$AAw?$AAc?$AAs?$AAc?$AAa?$AAt?$AA_?$AAs?$AA?$CI?$AAs?$AAz?$AAL?$AAi?$AAn?$AAe@ 0000000180085e00     libucrtd:dbgrptt.obj
 0002:00011e4c       ??_C@_13CMNBPIDO@?$AA?$AN@ 0000000180085e4c     libucrtd:dbgrptt.obj
 0002:00011e50       ??_C@_1EK@PHCBEDKB@?$AAw?$AAc?$AAs?$AAc?$AAa?$AAt?$AA_?$AAs?$AA?$CI?$AAs?$AAz?$AAL?$AAi?$AAn?$AAe@ 0000000180085e50     libucrtd:dbgrptt.obj
 0002:00011ea0       ??_C@_1BM@GIBPMLNL@?$AA?$CF?$AAl?$AAs?$AA?$CI?$AA?$CF?$AAd?$AA?$CJ?$AA?5?$AA?3?$AA?5?$AA?$CF?$AAl?$AAs@ 0000000180085ea0     libucrtd:dbgrptt.obj
 0002:00011ec0       ??_C@_1JI@EACPGHID@?$AAw?$AAc?$AAs?$AAc?$AAp?$AAy?$AA_?$AAs?$AA?$CI?$AAs?$AAz?$AAO?$AAu?$AAt?$AAM@ 0000000180085ec0     libucrtd:dbgrptt.obj
 0002:00011f60       ??_C@_1FI@DBAIJPJE@?$AAw?$AAc?$AAs?$AAc?$AAp?$AAy?$AA_?$AAs?$AA?$CI?$AAs?$AAz?$AAO?$AAu?$AAt?$AAM@ 0000000180085f60     libucrtd:dbgrptt.obj
 0002:00011fc0       ??_C@_1IK@LEBMBAP@?$AAw?$AAc?$AAs?$AAt?$AAo?$AAm?$AAb?$AAs?$AA_?$AAs?$AA?$CI?$AAn?$AAu?$AAl?$AAl@ 0000000180085fc0     libucrtd:dbgrptt.obj
 0002:00012050       ??_C@_1MA@LBAMNNOB@?$AAs?$AAt?$AAr?$AAc?$AAp?$AAy?$AA_?$AAs?$AA?$CI?$AAs?$AAz?$AAO?$AAu?$AAt?$AAM@ 0000000180086050     libucrtd:dbgrptt.obj
 0002:00012110       ??_C@_0DP@GNPEPHJD@_CrtDbgReport?3?5String?5too?5long?5@ 0000000180086110     libucrtd:dbgrptt.obj
 0002:00012150       ??_C@_1IE@CPGKIAGP@?$AAw?$AAc?$AAs?$AAt?$AAo?$AAm?$AAb?$AAs?$AA_?$AAs?$AA?$CI?$AA?$CG?$AAr?$AAe?$AAt@ 0000000180086150     libucrtd:dbgrptt.obj
 0002:000121e0       __newctype                 00000001800861e0     libucrtd:ctype.obj
 0002:000124e0       __newclmap                 00000001800864e0     libucrtd:ctype.obj
 0002:00012660       __newcumap                 0000000180086660     libucrtd:ctype.obj
 0002:000127e0       _wctype                    00000001800867e0     libucrtd:ctype.obj
 0002:000129f0       ??_C@_1FE@KNPCCODH@?$AA?$CI?$AA?$CC?$AAC?$AAo?$AAr?$AAr?$AAu?$AAp?$AAt?$AAe?$AAd?$AA?5?$AAp?$AAo?$AAi@ 00000001800869f0     libucrtd:getstringtypea.obj
 0002:00012a50       ??_C@_1EM@GPJLADAA@?$AAV?$AAC?$AAC?$AAR?$AAT?$AA?2?$AAv?$AAc?$AAr?$AAu?$AAn?$AAt?$AAi?$AAm?$AAe@ 0000000180086a50     libucrtd:getstringtypea.obj
 0002:00012aa0       ??_C@_0DJ@HCPJODDK@minkernel?2crts?2ucrt?2src?2appcrt?2@ 0000000180086aa0     libucrtd:getstringtypea.obj
 0002:00012ae0       ??_C@_1BKC@NBNHJIDM@?$AA?$CI?$AAp?$AAt?$AAl?$AAo?$AAc?$AAi?$AA?9?$AA?$DO?$AAl?$AAc?$AA_?$AAc?$AAa?$AAt@ 0000000180086ae0     libucrtd:locale_refcounting.obj
 0002:00012c90       ??_C@_1HK@HCNMEOLA@?$AAm?$AAi?$AAn?$AAk?$AAe?$AAr?$AAn?$AAe?$AAl?$AA?2?$AAc?$AAr?$AAt?$AAs?$AA?2@ 0000000180086c90     libucrtd:locale_refcounting.obj
 0002:00012d10       ??_C@_1CC@CHNFGJIC@?$AAc?$AAo?$AAm?$AAm?$AAo?$AAn?$AA_?$AAt?$AAc?$AAs?$AAn?$AAc?$AAp?$AAy?$AA_@ 0000000180086d10     libucrtd:wcsncpy_s.obj
 0002:00012d34       ??_C@_15PJPFLCCM@?$AAu?$AAk@ 0000000180086d34     libucrtd:get_qualified_locale.obj
 0002:00012d50       ??_C@_1BO@JGGHCINF@?$AAl?$AAh?$AAs?$AA?5?$AA?$CB?$AA?$DN?$AA?5?$AAn?$AAu?$AAl?$AAl?$AAp?$AAt?$AAr@ 0000000180086d50     libucrtd:wcsnicmp.obj
 0002:00012d70       ??_C@_1BO@FHLPEAOG@?$AAr?$AAh?$AAs?$AA?5?$AA?$CB?$AA?$DN?$AA?5?$AAn?$AAu?$AAl?$AAl?$AAp?$AAt?$AAr@ 0000000180086d70     libucrtd:wcsnicmp.obj
 0002:00012d90       ??_C@_1GG@FIFJEMIA@?$AAm?$AAi?$AAn?$AAk?$AAe?$AAr?$AAn?$AAe?$AAl?$AA?2?$AAc?$AAr?$AAt?$AAs?$AA?2@ 0000000180086d90     libucrtd:strnicmp.obj
 0002:00012df8       ??_C@_1BI@BJLEPLEF@?$AA_?$AAs?$AAt?$AAr?$AAn?$AAi?$AAc?$AAm?$AAp?$AA_?$AAl@ 0000000180086df8     libucrtd:strnicmp.obj
 0002:00012e10       ??_C@_1CC@JLPHKJPH@?$AAc?$AAo?$AAu?$AAn?$AAt?$AA?5?$AA?$DM?$AA?$DN?$AA?5?$AAI?$AAN?$AAT?$AA_?$AAM?$AAA@ 0000000180086e10     libucrtd:strnicmp.obj
 0002:00012e38       ??_C@_1BE@BHJDFFNA@?$AA_?$AAs?$AAt?$AAr?$AAn?$AAi?$AAc?$AAm?$AAp@ 0000000180086e38     libucrtd:strnicmp.obj
 0002:00012e50       ??_C@_1DC@MDAAFACM@?$AA?$CI?$AA?$CC?$AAI?$AAn?$AAv?$AAa?$AAl?$AAi?$AAd?$AA?5?$AAo?$AAp?$AAe?$AAn?$AA?5@ 0000000180086e50     libucrtd:open.obj
 0002:00012e90       ??_C@_1FM@EFELGMIP@?$AAm?$AAi?$AAn?$AAk?$AAe?$AAr?$AAn?$AAe?$AAl?$AA?2?$AAc?$AAr?$AAt?$AAs?$AA?2@ 0000000180086e90     libucrtd:open.obj
 0002:00012ef0       ??_C@_1CI@CBNKIJOA@?$AAd?$AAe?$AAc?$AAo?$AAd?$AAe?$AA_?$AAa?$AAc?$AAc?$AAe?$AAs?$AAs?$AA_?$AAf@ 0000000180086ef0     libucrtd:open.obj
 0002:00012f18       ??_C@_1DC@MNGJFJEL@?$AAd?$AAe?$AAc?$AAo?$AAd?$AAe?$AA_?$AAo?$AAp?$AAe?$AAn?$AA_?$AAc?$AAr?$AAe@ 0000000180086f18     libucrtd:open.obj
 0002:00012f50       ??_C@_1DI@OAOBKLOM@?$AA?$CI?$AA?$CC?$AAI?$AAn?$AAv?$AAa?$AAl?$AAi?$AAd?$AA?5?$AAs?$AAh?$AAa?$AAr?$AAi@ 0000000180086f50     libucrtd:open.obj
 0002:00012f88       ??_C@_1CK@LFHOGGAL@?$AAd?$AAe?$AAc?$AAo?$AAd?$AAe?$AA_?$AAs?$AAh?$AAa?$AAr?$AAi?$AAn?$AAg?$AA_@ 0000000180086f88     libucrtd:open.obj
 0002:00012fb8       ??_C@_1BK@MIHMAFGB@?$AAi?$AAs?$AA_?$AAt?$AAe?$AAx?$AAt?$AA_?$AAm?$AAo?$AAd?$AAe@ 0000000180086fb8     libucrtd:open.obj
 0002:00012fd8       ??_C@_1CG@ICBEBDJJ@?$AA_?$AAg?$AAe?$AAt?$AA_?$AAf?$AAm?$AAo?$AAd?$AAe?$AA?$CI?$AA?$CG?$AAf?$AAm?$AAo@ 0000000180086fd8     libucrtd:open.obj
 0002:00013000       ??_C@_1CI@FIBMFMKJ@?$AAc?$AAo?$AAn?$AAf?$AAi?$AAg?$AAu?$AAr?$AAe?$AA_?$AAt?$AAe?$AAx?$AAt?$AA_@ 0000000180087000     libucrtd:open.obj
 0002:00013028       ??_C@_1DM@GAGCJPHI@?$AA?$CI?$AAo?$AAf?$AAl?$AAa?$AAg?$AA?5?$AA?$CG?$AA?5?$AAt?$AAe?$AAx?$AAt?$AA_?$AAm@ 0000000180087028     libucrtd:open.obj
 0002:00013068       ??_C@_1CM@IDLMKMPG@?$AA0?$AA?5?$AA?$CG?$AA?$CG?$AA?5?$AA?$CC?$AAI?$AAn?$AAt?$AAe?$AAr?$AAn?$AAa?$AAl?$AA?5@ 0000000180087068     libucrtd:open.obj
 0002:000130a0       ??_C@_1IA@IENOJNJF@?$AA0?$AA?5?$AA?$CG?$AA?$CG?$AA?5?$AA?$CC?$AAO?$AAn?$AAl?$AAy?$AA?5?$AAU?$AAT?$AAF?$AA?9@ 00000001800870a0     libucrtd:open.obj
 0002:00013120       ??_C@_1CA@DFHJGMAL@?$AAp?$AAa?$AAt?$AAh?$AA?5?$AA?$CB?$AA?$DN?$AA?5?$AAn?$AAu?$AAl?$AAl?$AAp?$AAt?$AAr@ 0000000180087120     libucrtd:open.obj
 0002:00013140       ??_C@_1BO@CKEBPLGM@?$AAp?$AAf?$AAh?$AA?5?$AA?$CB?$AA?$DN?$AA?5?$AAn?$AAu?$AAl?$AAl?$AAp?$AAt?$AAr@ 0000000180087140     libucrtd:open.obj
 0002:00013160       ??_C@_1CM@DJGGMBLF@?$AAc?$AAo?$AAm?$AAm?$AAo?$AAn?$AA_?$AAs?$AAo?$AAp?$AAe?$AAn?$AA_?$AAd?$AAi@ 0000000180087160     libucrtd:open.obj
 0002:00013190       ??_C@_1FC@KMHFBDGJ@?$AA?$CI?$AAp?$AAm?$AAo?$AAd?$AAe?$AA?5?$AA?$CG?$AA?5?$AA?$CI?$AA?$HO?$AA?$CI?$AA_?$AAS?$AA_@ 0000000180087190     libucrtd:open.obj
 0002:000131e8       ??_C@_0DB@JFFPGLDM@minkernel?2crts?2ucrt?2src?2appcrt?2@ 00000001800871e8     libucrtd:osfinfo.obj
 0002:00013220       ??_C@_1EM@BPODPNEJ@?$AAs?$AAt?$AAa?$AAt?$AAi?$AAc?$AA_?$AAc?$AAa?$AAs?$AAt?$AA?$DM?$AAu?$AAn?$AAs@ 0000000180087220     libucrtd:osfinfo.obj
 0002:00013270       ??_C@_1GC@LDGKBAFM@?$AAm?$AAi?$AAn?$AAk?$AAe?$AAr?$AAn?$AAe?$AAl?$AA?2?$AAc?$AAr?$AAt?$AAs?$AA?2@ 0000000180087270     libucrtd:osfinfo.obj
 0002:000132d8       ??_C@_1DM@JELNOMLN@?$AA_?$AA_?$AAa?$AAc?$AAr?$AAt?$AA_?$AAl?$AAo?$AAw?$AAi?$AAo?$AA_?$AAe?$AAn@ 00000001800872d8     libucrtd:osfinfo.obj
 0002:00013318       ??_C@_1BO@EMBOBGKE@?$AA_?$AAg?$AAe?$AAt?$AA_?$AAo?$AAs?$AAf?$AAh?$AAa?$AAn?$AAd?$AAl?$AAe@ 0000000180087318     libucrtd:osfinfo.obj
 0002:00013340       ??_C@_1GA@MPOOLHCO@?$AAm?$AAi?$AAn?$AAk?$AAe?$AAr?$AAn?$AAe?$AAl?$AA?2?$AAc?$AAr?$AAt?$AAs?$AA?2@ 0000000180087340     libucrtd:commit.obj
 0002:000133a0       ??_C@_1BA@FLNMBBIM@?$AA_?$AAc?$AAo?$AAm?$AAm?$AAi?$AAt@ 00000001800873a0     libucrtd:commit.obj
 0002:000133b0       ??_C@_1FO@CAMPMGCN@?$AAm?$AAi?$AAn?$AAk?$AAe?$AAr?$AAn?$AAe?$AAl?$AA?2?$AAc?$AAr?$AAt?$AAs?$AA?2@ 00000001800873b0     libucrtd:write.obj
 0002:00013410       ??_C@_1O@KOFKDHPL@?$AA_?$AAw?$AAr?$AAi?$AAt?$AAe@ 0000000180087410     libucrtd:write.obj
 0002:00013420       ??_C@_1CK@MMEFCHHN@?$AA?$CB?$AA_?$AAd?$AAb?$AAc?$AAs?$AAB?$AAu?$AAf?$AAf?$AAe?$AAr?$AAU?$AAs?$AAe@ 0000000180087420     libucrtd:write.obj
 0002:00013450       ??_C@_1EG@LICJGLJJ@?$AA1?$AA?5?$AA?$DM?$AA?5?$AAm?$AAb?$AA_?$AAl?$AAe?$AAn?$AA?5?$AA?$CG?$AA?$CG?$AA?5?$AAm@ 0000000180087450     libucrtd:write.obj
 0002:000134a0       ??_C@_1FC@NFILPJB@?$AAm?$AAb?$AA_?$AAb?$AAu?$AAf?$AA_?$AAu?$AAs?$AAe?$AAd?$AA?5?$AA?$CL?$AA?5?$AAb@ 00000001800874a0     libucrtd:write.obj
 0002:00013500       ??_C@_1FC@HEJOPHLA@?$AAa?$AAv?$AAa?$AAi?$AAl?$AAa?$AAb?$AAl?$AAe?$AA_?$AAb?$AAy?$AAt?$AAe?$AAs@ 0000000180087500     libucrtd:write.obj
 0002:00013558       ??_C@_1DI@CNMHHHLG@?$AAi?$AAs?$AAl?$AAe?$AAa?$AAd?$AAb?$AAy?$AAt?$AAe?$AA?$CI?$AA_?$AAd?$AAb?$AAc@ 0000000180087558     libucrtd:write.obj
 0002:00013590       ??_C@_1BM@NCANHCIP@?$AA_?$AAw?$AAr?$AAi?$AAt?$AAe?$AA_?$AAn?$AAo?$AAl?$AAo?$AAc?$AAk@ 0000000180087590     libucrtd:write.obj
 0002:000135b0       ??_C@_1CK@CPEAGIIP@?$AAb?$AAu?$AAf?$AAf?$AAe?$AAr?$AA_?$AAs?$AAi?$AAz?$AAe?$AA?5?$AA?$CF?$AA?5?$AA2@ 00000001800875b0     libucrtd:write.obj
 0002:000135e0       ??_C@_1GA@DEPMKPD@?$AAm?$AAi?$AAn?$AAk?$AAe?$AAr?$AAn?$AAe?$AAl?$AA?2?$AAc?$AAr?$AAt?$AAs?$AA?2@ 00000001800875e0     libucrtd:isatty.obj
 0002:00013640       ??_C@_1BA@LEBDGIHM@?$AA_?$AAi?$AAs?$AAa?$AAt?$AAt?$AAy@ 0000000180087640     libucrtd:isatty.obj
 0002:00013678       ??_C@_1DI@OOEEHOBJ@?$AAb?$AAa?$AAs?$AAe?$AA?5?$AA?$CB?$AA?$DN?$AA?5?$AAn?$AAu?$AAl?$AAl?$AAp?$AAt?$AAr@ 0000000180087678     libucrtd:qsort.obj
 0002:000136b0       ??_C@_1GA@KPPCKKGE@?$AAm?$AAi?$AAn?$AAk?$AAe?$AAr?$AAn?$AAe?$AAl?$AA?2?$AAc?$AAr?$AAt?$AAs?$AA?2@ 00000001800876b0     libucrtd:qsort.obj
 0002:00013710       ??_C@_1M@INMHODIG@?$AAq?$AAs?$AAo?$AAr?$AAt@ 0000000180087710     libucrtd:qsort.obj
 0002:00013720       ??_C@_1BE@NJBEBBME@?$AAw?$AAi?$AAd?$AAt?$AAh?$AA?5?$AA?$DO?$AA?5?$AA0@ 0000000180087720     libucrtd:qsort.obj
 0002:00013738       ??_C@_1CA@LIDFOMIN@?$AAc?$AAo?$AAm?$AAp?$AA?5?$AA?$CB?$AA?$DN?$AA?5?$AAn?$AAu?$AAl?$AAl?$AAp?$AAt?$AAr@ 0000000180087738     libucrtd:qsort.obj
 0002:00013758       ??_C@_1CE@BLLJFLOH@?$AAs?$AAt?$AAr?$AAi?$AAn?$AAg?$AA?5?$AA?$CB?$AA?$DN?$AA?5?$AAn?$AAu?$AAl?$AAl?$AAp@ 0000000180087758     libucrtd:mbsdec.obj
 0002:00013780       ??_C@_1GO@DDOMFNGF@?$AAm?$AAi?$AAn?$AAk?$AAe?$AAr?$AAn?$AAe?$AAl?$AA?2?$AAc?$AAr?$AAt?$AAs?$AA?2@ 0000000180087780     libucrtd:mbsdec.obj
 0002:000137f0       ??_C@_1BE@KLNCOLCD@?$AA_?$AAm?$AAb?$AAs?$AAd?$AAe?$AAc?$AA_?$AAl@ 00000001800877f0     libucrtd:mbsdec.obj
 0002:00013808       ??_C@_1CG@CMGPGAOD@?$AAc?$AAu?$AAr?$AAr?$AAe?$AAn?$AAt?$AA?5?$AA?$CB?$AA?$DN?$AA?5?$AAn?$AAu?$AAl?$AAl@ 0000000180087808     libucrtd:mbsdec.obj
 0002:00013830       ??_C@_0DH@IKPCBLP@minkernel?2crts?2ucrt?2src?2appcrt?2@ 0000000180087830     libucrtd:lcmapstringa.obj
 0002:000146b0       ??_C@_15EMKDOKLE@?$AAa?$AAr@ 00000001800886b0     libucrtd:lcidtoname_downlevel.obj
 0002:000146b8       ??_C@_15KNPADPLH@?$AAb?$AAg@ 00000001800886b8     libucrtd:lcidtoname_downlevel.obj
 0002:000146c0       ??_C@_15EDMHLDMO@?$AAc?$AAa@ 00000001800886c0     libucrtd:lcidtoname_downlevel.obj
 0002:000146c8       ??_C@_1O@BPEAJADD@?$AAz?$AAh?$AA?9?$AAC?$AAH?$AAS@ 00000001800886c8     libucrtd:lcidtoname_downlevel.obj
 0002:000146d8       ??_C@_15LJNHCMNK@?$AAc?$AAs@ 00000001800886d8     libucrtd:lcidtoname_downlevel.obj
 0002:000146e0       ??_C@_15FOMCIDHG@?$AAd?$AAa@ 00000001800886e0     libucrtd:lcidtoname_downlevel.obj
 0002:000146e8       ??_C@_15NBKABECB@?$AAd?$AAe@ 00000001800886e8     libucrtd:lcidtoname_downlevel.obj
 0002:000146f0       ??_C@_15GHPEIIAO@?$AAe?$AAl@ 00000001800886f0     libucrtd:lcidtoname_downlevel.obj
 0002:000146f8       ??_C@_15MNPNEAIF@?$AAe?$AAn@ 00000001800886f8     libucrtd:lcidtoname_downlevel.obj
 0002:00014700       ??_C@_15GPIOMPMH@?$AAe?$AAs@ 0000000180088700     libucrtd:lcidtoname_downlevel.obj
 0002:00014708       ??_C@_15NGLOAKJC@?$AAf?$AAi@ 0000000180088708     libucrtd:lcidtoname_downlevel.obj
 0002:00014710       ??_C@_15FBKGNKAM@?$AAf?$AAr@ 0000000180088710     libucrtd:lcidtoname_downlevel.obj
 0002:00014718       ??_C@_15KGGCNEFK@?$AAh?$AAe@ 0000000180088718     libucrtd:lcidtoname_downlevel.obj
 0002:00014720       ??_C@_15PGHLIDMF@?$AAh?$AAu@ 0000000180088720     libucrtd:lcidtoname_downlevel.obj
 0002:00014728       ??_C@_15BIEMAPLM@?$AAi?$AAs@ 0000000180088728     libucrtd:lcidtoname_downlevel.obj
 0002:00014730       ??_C@_15IFJLDHAF@?$AAi?$AAt@ 0000000180088730     libucrtd:lcidtoname_downlevel.obj
 0002:00014738       ??_C@_15GEMIOCAG@?$AAj?$AAa@ 0000000180088738     libucrtd:lcidtoname_downlevel.obj
 0002:00014740       ??_C@_15EPELEGJA@?$AAk?$AAo@ 0000000180088740     libucrtd:lcidtoname_downlevel.obj
 0002:00014748       ??_C@_15NDDHIMN@?$AAn?$AAl@ 0000000180088748     libucrtd:lcidtoname_downlevel.obj
 0002:00014750       ??_C@_15BPIGNHCD@?$AAn?$AAo@ 0000000180088750     libucrtd:lcidtoname_downlevel.obj
 0002:00014758       ??_C@_15DEOPBLCG@?$AAp?$AAl@ 0000000180088758     libucrtd:lcidtoname_downlevel.obj
 0002:00014760       ??_C@_15KBECGEFG@?$AAp?$AAt@ 0000000180088760     libucrtd:lcidtoname_downlevel.obj
 0002:00014768       ??_C@_15GLJCBFMD@?$AAr?$AAo@ 0000000180088768     libucrtd:lcidtoname_downlevel.obj
 0002:00014770       ??_C@_15FEDGKCDI@?$AAr?$AAu@ 0000000180088770     libucrtd:lcidtoname_downlevel.obj
 0002:00014778       ??_C@_15GLKMLLHM@?$AAh?$AAr@ 0000000180088778     libucrtd:lcidtoname_downlevel.obj
 0002:00014780       ??_C@_15CPKMFBDB@?$AAs?$AAk@ 0000000180088780     libucrtd:lcidtoname_downlevel.obj
 0002:00014788       ??_C@_15BAAIOGMK@?$AAs?$AAq@ 0000000180088788     libucrtd:lcidtoname_downlevel.obj
 0002:00014790       ??_C@_15INNPNOHD@?$AAs?$AAv@ 0000000180088790     libucrtd:lcidtoname_downlevel.obj
 0002:00014798       ??_C@_15CABMMOGH@?$AAt?$AAh@ 0000000180088798     libucrtd:lcidtoname_downlevel.obj
 0002:000147a0       ??_C@_15BPLIHJJM@?$AAt?$AAr@ 00000001800887a0     libucrtd:lcidtoname_downlevel.obj
 0002:000147a8       ??_C@_15NEOEKKDJ@?$AAu?$AAr@ 00000001800887a8     libucrtd:lcidtoname_downlevel.obj
 0002:000147b0       ??_C@_15NFICGAJK@?$AAi?$AAd@ 00000001800887b0     libucrtd:lcidtoname_downlevel.obj
 0002:000147b8       ??_C@_15HPJPHDM@?$AAb?$AAe@ 00000001800887b8     libucrtd:lcidtoname_downlevel.obj
 0002:000147c0       ??_C@_15LCHLGJII@?$AAs?$AAl@ 00000001800887c0     libucrtd:lcidtoname_downlevel.obj
 0002:000147c8       ??_C@_15PCFJPHHO@?$AAe?$AAt@ 00000001800887c8     libucrtd:lcidtoname_downlevel.obj
 0002:000147d0       ??_C@_15HPFPGODN@?$AAl?$AAv@ 00000001800887d0     libucrtd:lcidtoname_downlevel.obj
 0002:000147d8       ??_C@_15NFFGKGLG@?$AAl?$AAt@ 00000001800887d8     libucrtd:lcidtoname_downlevel.obj
 0002:000147e0       ??_C@_15BDAKCCHN@?$AAf?$AAa@ 00000001800887e0     libucrtd:lcidtoname_downlevel.obj
 0002:000147e8       ??_C@_15NFGIAIAJ@?$AAv?$AAi@ 00000001800887e8     libucrtd:lcidtoname_downlevel.obj
 0002:000147f0       ??_C@_15LMKNDMHN@?$AAh?$AAy@ 00000001800887f0     libucrtd:lcidtoname_downlevel.obj
 0002:000147f8       ??_C@_15IJBHMCFL@?$AAa?$AAz@ 00000001800887f8     libucrtd:lcidtoname_downlevel.obj
 0002:00014800       ??_C@_15EKOFJABL@?$AAe?$AAu@ 0000000180088800     libucrtd:lcidtoname_downlevel.obj
 0002:00014808       ??_C@_15BGHADCNK@?$AAm?$AAk@ 0000000180088808     libucrtd:lcidtoname_downlevel.obj
 0002:00014810       ??_C@_15JDNICKHM@?$AAa?$AAf@ 0000000180088810     libucrtd:lcidtoname_downlevel.obj
 0002:00014818       ??_C@_15KPJEDBKD@?$AAk?$AAa@ 0000000180088818     libucrtd:lcidtoname_downlevel.obj
 0002:00014820       ??_C@_15PDNFFFEO@?$AAf?$AAo@ 0000000180088820     libucrtd:lcidtoname_downlevel.obj
 0002:00014828       ??_C@_15OMLEGLOC@?$AAh?$AAi@ 0000000180088828     libucrtd:lcidtoname_downlevel.obj
 0002:00014830       ??_C@_15IDNNENKK@?$AAm?$AAs@ 0000000180088830     libucrtd:lcidtoname_downlevel.obj
 0002:00014838       ??_C@_15MACJNBMH@?$AAk?$AAk@ 0000000180088838     libucrtd:lcidtoname_downlevel.obj
 0002:00014840       ??_C@_15DKDJEOND@?$AAk?$AAy@ 0000000180088840     libucrtd:lcidtoname_downlevel.obj
 0002:00014848       ??_C@_15DFGDLJBG@?$AAs?$AAw@ 0000000180088848     libucrtd:lcidtoname_downlevel.obj
 0002:00014850       ??_C@_15BBFAICNG@?$AAu?$AAz@ 0000000180088850     libucrtd:lcidtoname_downlevel.obj
 0002:00014858       ??_C@_15DKNDCGEA@?$AAt?$AAt@ 0000000180088858     libucrtd:lcidtoname_downlevel.obj
 0002:00014860       ??_C@_15MGIFMDPL@?$AAp?$AAa@ 0000000180088860     libucrtd:lcidtoname_downlevel.obj
 0002:00014868       ??_C@_15HCNDBBA@?$AAg?$AAu@ 0000000180088868     libucrtd:lcidtoname_downlevel.obj
 0002:00014870       ??_C@_15FNBEIBON@?$AAt?$AAa@ 0000000180088870     libucrtd:lcidtoname_downlevel.obj
 0002:00014878       ??_C@_15NCHGBGLK@?$AAt?$AAe@ 0000000180088878     libucrtd:lcidtoname_downlevel.obj
 0002:00014880       ??_C@_15PHPHCBPF@?$AAk?$AAn@ 0000000180088880     libucrtd:lcidtoname_downlevel.obj
 0002:00014888       ??_C@_15DLGBCKMP@?$AAm?$AAr@ 0000000180088888     libucrtd:lcidtoname_downlevel.obj
 0002:00014890       ??_C@_15EABBLBFF@?$AAs?$AAa@ 0000000180088890     libucrtd:lcidtoname_downlevel.obj
 0002:00014898       ??_C@_15CBKOMCOI@?$AAm?$AAn@ 0000000180088898     libucrtd:lcidtoname_downlevel.obj
 0002:000148a0       ??_C@_15CKDMCJAF@?$AAg?$AAl@ 00000001800888a0     libucrtd:lcidtoname_downlevel.obj
 0002:000148a8       ??_C@_17CNJFBPG@?$AAk?$AAo?$AAk@ 00000001800888a8     libucrtd:lcidtoname_downlevel.obj
 0002:000148b0       ??_C@_17FFBJICPL@?$AAs?$AAy?$AAr@ 00000001800888b0     libucrtd:lcidtoname_downlevel.obj
 0002:000148b8       ??_C@_17KPNDCPAF@?$AAd?$AAi?$AAv@ 00000001800888b8     libucrtd:lcidtoname_downlevel.obj
 0002:000148c0       ??_C@_1M@OKAHONE@?$AAa?$AAr?$AA?9?$AAS?$AAA@ 00000001800888c0     libucrtd:lcidtoname_downlevel.obj
 0002:000148d0       ??_C@_1M@FFFIGIGK@?$AAb?$AAg?$AA?9?$AAB?$AAG@ 00000001800888d0     libucrtd:lcidtoname_downlevel.obj
 0002:000148e0       ??_C@_1M@BJNKEDC@?$AAc?$AAa?$AA?9?$AAE?$AAS@ 00000001800888e0     libucrtd:lcidtoname_downlevel.obj
 0002:000148f0       ??_C@_1M@IJJHFJHA@?$AAc?$AAs?$AA?9?$AAC?$AAZ@ 00000001800888f0     libucrtd:lcidtoname_downlevel.obj
 0002:00014900       ??_C@_1M@CLPEOBGI@?$AAd?$AAa?$AA?9?$AAD?$AAK@ 0000000180088900     libucrtd:lcidtoname_downlevel.obj
 0002:00014910       ??_C@_1M@MCMADGCB@?$AAd?$AAe?$AA?9?$AAD?$AAE@ 0000000180088910     libucrtd:lcidtoname_downlevel.obj
 0002:00014920       ??_C@_1M@OOCKEMAM@?$AAe?$AAl?$AA?9?$AAG?$AAR@ 0000000180088920     libucrtd:lcidtoname_downlevel.obj
 0002:00014930       ??_C@_1M@DDNJFGID@?$AAf?$AAi?$AA?9?$AAF?$AAI@ 0000000180088930     libucrtd:lcidtoname_downlevel.obj
 0002:00014940       ??_C@_1M@GLIPPMAC@?$AAf?$AAr?$AA?9?$AAF?$AAR@ 0000000180088940     libucrtd:lcidtoname_downlevel.obj
 0002:00014950       ??_C@_1M@GFMCHPE@?$AAh?$AAe?$AA?9?$AAI?$AAL@ 0000000180088950     libucrtd:lcidtoname_downlevel.obj
 0002:00014960       ??_C@_1M@MHLPGNKM@?$AAh?$AAu?$AA?9?$AAH?$AAU@ 0000000180088960     libucrtd:lcidtoname_downlevel.obj
 0002:00014970       ??_C@_1M@LPDDNNPN@?$AAi?$AAs?$AA?9?$AAI?$AAS@ 0000000180088970     libucrtd:lcidtoname_downlevel.obj
 0002:00014980       ??_C@_1M@MADIPODN@?$AAi?$AAt?$AA?9?$AAI?$AAT@ 0000000180088980     libucrtd:lcidtoname_downlevel.obj
 0002:00014990       ??_C@_1M@IHBJJGG@?$AAn?$AAl?$AA?9?$AAN?$AAL@ 0000000180088990     libucrtd:lcidtoname_downlevel.obj
 0002:000149a0       ??_C@_1M@EANAGDL@?$AAn?$AAb?$AA?9?$AAN?$AAO@ 00000001800889a0     libucrtd:lcidtoname_downlevel.obj
 0002:000149b0       ??_C@_1M@NEIEMEGP@?$AAp?$AAl?$AA?9?$AAP?$AAL@ 00000001800889b0     libucrtd:lcidtoname_downlevel.obj
 0002:000149c0       ??_C@_1M@BOCFIGEP@?$AAp?$AAt?$AA?9?$AAB?$AAR@ 00000001800889c0     libucrtd:lcidtoname_downlevel.obj
 0002:000149d0       ??_C@_1M@IMPFOPBG@?$AAr?$AAo?$AA?9?$AAR?$AAO@ 00000001800889d0     libucrtd:lcidtoname_downlevel.obj
 0002:000149e0       ??_C@_1M@IDNNEJMM@?$AAr?$AAu?$AA?9?$AAR?$AAU@ 00000001800889e0     libucrtd:lcidtoname_downlevel.obj
 0002:000149f0       ??_C@_1M@LILEEOGM@?$AAh?$AAr?$AA?9?$AAH?$AAR@ 00000001800889f0     libucrtd:lcidtoname_downlevel.obj
 0002:00014a00       ??_C@_1M@FKIFEHPB@?$AAs?$AAk?$AA?9?$AAS?$AAK@ 0000000180088a00     libucrtd:lcidtoname_downlevel.obj
 0002:00014a10       ??_C@_1M@LJMAMNPJ@?$AAs?$AAq?$AA?9?$AAA?$AAL@ 0000000180088a10     libucrtd:lcidtoname_downlevel.obj
 0002:00014a20       ??_C@_1M@GIAKDKJK@?$AAs?$AAv?$AA?9?$AAS?$AAE@ 0000000180088a20     libucrtd:lcidtoname_downlevel.obj
 0002:00014a30       ??_C@_1M@MKJKIKCL@?$AAt?$AAh?$AA?9?$AAT?$AAH@ 0000000180088a30     libucrtd:lcidtoname_downlevel.obj
 0002:00014a40       ??_C@_1M@MFLCCMPB@?$AAt?$AAr?$AA?9?$AAT?$AAR@ 0000000180088a40     libucrtd:lcidtoname_downlevel.obj
 0002:00014a50       ??_C@_1M@OIJHDKJN@?$AAu?$AAr?$AA?9?$AAP?$AAK@ 0000000180088a50     libucrtd:lcidtoname_downlevel.obj
 0002:00014a60       ??_C@_1M@LHIPCIEK@?$AAi?$AAd?$AA?9?$AAI?$AAD@ 0000000180088a60     libucrtd:lcidtoname_downlevel.obj
 0002:00014a70       ??_C@_1M@MFMOBGI@?$AAu?$AAk?$AA?9?$AAU?$AAA@ 0000000180088a70     libucrtd:lcidtoname_downlevel.obj
 0002:00014a80       ??_C@_1M@OBGLJIPL@?$AAb?$AAe?$AA?9?$AAB?$AAY@ 0000000180088a80     libucrtd:lcidtoname_downlevel.obj
 0002:00014a90       ??_C@_1M@BCFAJEAD@?$AAs?$AAl?$AA?9?$AAS?$AAI@ 0000000180088a90     libucrtd:lcidtoname_downlevel.obj
 0002:00014aa0       ??_C@_1M@FKFFEDDN@?$AAe?$AAt?$AA?9?$AAE?$AAE@ 0000000180088aa0     libucrtd:lcidtoname_downlevel.obj
 0002:00014ab0       ??_C@_1M@KGKKAACI@?$AAl?$AAv?$AA?9?$AAL?$AAV@ 0000000180088ab0     libucrtd:lcidtoname_downlevel.obj
 0002:00014ac0       ??_C@_1M@IFGBIJO@?$AAl?$AAt?$AA?9?$AAL?$AAT@ 0000000180088ac0     libucrtd:lcidtoname_downlevel.obj
 0002:00014ad0       ??_C@_1M@FGEAHEDM@?$AAf?$AAa?$AA?9?$AAI?$AAR@ 0000000180088ad0     libucrtd:lcidtoname_downlevel.obj
 0002:00014ae0       ??_C@_1M@KBMAIBFN@?$AAv?$AAi?$AA?9?$AAV?$AAN@ 0000000180088ae0     libucrtd:lcidtoname_downlevel.obj
 0002:00014af0       ??_C@_1M@GPCBKDJK@?$AAh?$AAy?$AA?9?$AAA?$AAM@ 0000000180088af0     libucrtd:lcidtoname_downlevel.obj
 0002:00014b00       ??_C@_1BG@BECMDDJB@?$AAa?$AAz?$AA?9?$AAA?$AAZ?$AA?9?$AAL?$AAa?$AAt?$AAn@ 0000000180088b00     libucrtd:lcidtoname_downlevel.obj
 0002:00014b18       ??_C@_1M@MAOFCAEA@?$AAe?$AAu?$AA?9?$AAE?$AAS@ 0000000180088b18     libucrtd:lcidtoname_downlevel.obj
 0002:00014b28       ??_C@_1M@IGHABKPI@?$AAm?$AAk?$AA?9?$AAM?$AAK@ 0000000180088b28     libucrtd:lcidtoname_downlevel.obj
 0002:00014b38       ??_C@_1M@IAIGNEJG@?$AAt?$AAn?$AA?9?$AAZ?$AAA@ 0000000180088b38     libucrtd:lcidtoname_downlevel.obj
 0002:00014b48       ??_C@_1M@IIJCOJFA@?$AAx?$AAh?$AA?9?$AAZ?$AAA@ 0000000180088b48     libucrtd:lcidtoname_downlevel.obj
 0002:00014b58       ??_C@_1M@LGPJHNJH@?$AAz?$AAu?$AA?9?$AAZ?$AAA@ 0000000180088b58     libucrtd:lcidtoname_downlevel.obj
 0002:00014b68       ??_C@_1M@HOKAOIO@?$AAa?$AAf?$AA?9?$AAZ?$AAA@ 0000000180088b68     libucrtd:lcidtoname_downlevel.obj
 0002:00014b78       ??_C@_1M@DPCLHLIE@?$AAk?$AAa?$AA?9?$AAG?$AAE@ 0000000180088b78     libucrtd:lcidtoname_downlevel.obj
 0002:00014b88       ??_C@_1M@BLKMHJBI@?$AAf?$AAo?$AA?9?$AAF?$AAO@ 0000000180088b88     libucrtd:lcidtoname_downlevel.obj
 0002:00014b98       ??_C@_1M@LGGJAPPB@?$AAh?$AAi?$AA?9?$AAI?$AAN@ 0000000180088b98     libucrtd:lcidtoname_downlevel.obj
 0002:00014ba8       ??_C@_1M@FIKPIHFE@?$AAm?$AAt?$AA?9?$AAM?$AAT@ 0000000180088ba8     libucrtd:lcidtoname_downlevel.obj
 0002:00014bb8       ??_C@_1M@HEGGPBFA@?$AAs?$AAe?$AA?9?$AAN?$AAO@ 0000000180088bb8     libucrtd:lcidtoname_downlevel.obj
 0002:00014bc8       ??_C@_1M@EIBJEEPA@?$AAm?$AAs?$AA?9?$AAM?$AAY@ 0000000180088bc8     libucrtd:lcidtoname_downlevel.obj
 0002:00014bd8       ??_C@_1M@FHLBGMPP@?$AAk?$AAk?$AA?9?$AAK?$AAZ@ 0000000180088bd8     libucrtd:lcidtoname_downlevel.obj
 0002:00014be8       ??_C@_1M@NGJJLCGI@?$AAk?$AAy?$AA?9?$AAK?$AAG@ 0000000180088be8     libucrtd:lcidtoname_downlevel.obj
 0002:00014bf8       ??_C@_1M@GIENNBFC@?$AAs?$AAw?$AA?9?$AAK?$AAE@ 0000000180088bf8     libucrtd:lcidtoname_downlevel.obj
 0002:00014c08       ??_C@_1BG@NDGMJIMJ@?$AAu?$AAz?$AA?9?$AAU?$AAZ?$AA?9?$AAL?$AAa?$AAt?$AAn@ 0000000180088c08     libucrtd:lcidtoname_downlevel.obj
 0002:00014c20       ??_C@_1M@IDCCIHBC@?$AAt?$AAt?$AA?9?$AAR?$AAU@ 0000000180088c20     libucrtd:lcidtoname_downlevel.obj
 0002:00014c30       ??_C@_1M@LOICPMOJ@?$AAb?$AAn?$AA?9?$AAI?$AAN@ 0000000180088c30     libucrtd:lcidtoname_downlevel.obj
 0002:00014c40       ??_C@_1M@KPKKNEAH@?$AAp?$AAa?$AA?9?$AAI?$AAN@ 0000000180088c40     libucrtd:lcidtoname_downlevel.obj
 0002:00014c50       ??_C@_1M@PJGPPBOG@?$AAg?$AAu?$AA?9?$AAI?$AAN@ 0000000180088c50     libucrtd:lcidtoname_downlevel.obj
 0002:00014c60       ??_C@_1M@KMKMOPHI@?$AAt?$AAa?$AA?9?$AAI?$AAN@ 0000000180088c60     libucrtd:lcidtoname_downlevel.obj
 0002:00014c70       ??_C@_1M@KFEHEPAC@?$AAt?$AAe?$AA?9?$AAI?$AAN@ 0000000180088c70     libucrtd:lcidtoname_downlevel.obj
 0002:00014c80       ??_C@_1M@CDCLMGHI@?$AAk?$AAn?$AA?9?$AAI?$AAN@ 0000000180088c80     libucrtd:lcidtoname_downlevel.obj
 0002:00014c90       ??_C@_1M@MIODLDKF@?$AAm?$AAl?$AA?9?$AAI?$AAN@ 0000000180088c90     libucrtd:lcidtoname_downlevel.obj
 0002:00014ca0       ??_C@_1M@PBIEACPO@?$AAm?$AAr?$AA?9?$AAI?$AAN@ 0000000180088ca0     libucrtd:lcidtoname_downlevel.obj
 0002:00014cb0       ??_C@_1M@NIDEAGPH@?$AAs?$AAa?$AA?9?$AAI?$AAN@ 0000000180088cb0     libucrtd:lcidtoname_downlevel.obj
 0002:00014cc0       ??_C@_1M@FHIHCBIO@?$AAm?$AAn?$AA?9?$AAM?$AAN@ 0000000180088cc0     libucrtd:lcidtoname_downlevel.obj
 0002:00014cd0       ??_C@_1M@JAIJPENP@?$AAc?$AAy?$AA?9?$AAG?$AAB@ 0000000180088cd0     libucrtd:lcidtoname_downlevel.obj
 0002:00014ce0       ??_C@_1M@PHGFBEPN@?$AAg?$AAl?$AA?9?$AAE?$AAS@ 0000000180088ce0     libucrtd:lcidtoname_downlevel.obj
 0002:00014cf0       ??_C@_1O@KPIPDNCP@?$AAk?$AAo?$AAk?$AA?9?$AAI?$AAN@ 0000000180088cf0     libucrtd:lcidtoname_downlevel.obj
 0002:00014d00       ??_C@_1O@KNHJLDJA@?$AAs?$AAy?$AAr?$AA?9?$AAS?$AAY@ 0000000180088d00     libucrtd:lcidtoname_downlevel.obj
 0002:00014d10       ??_C@_1O@MKEKBLAH@?$AAd?$AAi?$AAv?$AA?9?$AAM?$AAV@ 0000000180088d10     libucrtd:lcidtoname_downlevel.obj
 0002:00014d20       ??_C@_1O@OHDCKDDF@?$AAq?$AAu?$AAz?$AA?9?$AAB?$AAO@ 0000000180088d20     libucrtd:lcidtoname_downlevel.obj
 0002:00014d30       ??_C@_1M@LEPJNLFD@?$AAn?$AAs?$AA?9?$AAZ?$AAA@ 0000000180088d30     libucrtd:lcidtoname_downlevel.obj
 0002:00014d40       ??_C@_1M@OMLEIIJB@?$AAm?$AAi?$AA?9?$AAN?$AAZ@ 0000000180088d40     libucrtd:lcidtoname_downlevel.obj
 0002:00014d50       ??_C@_1M@PMPEAILG@?$AAa?$AAr?$AA?9?$AAI?$AAQ@ 0000000180088d50     libucrtd:lcidtoname_downlevel.obj
 0002:00014d60       ??_C@_1M@CNKPNOEE@?$AAd?$AAe?$AA?9?$AAC?$AAH@ 0000000180088d60     libucrtd:lcidtoname_downlevel.obj
 0002:00014d70       ??_C@_1M@LKMGMLKO@?$AAe?$AAn?$AA?9?$AAG?$AAB@ 0000000180088d70     libucrtd:lcidtoname_downlevel.obj
 0002:00014d80       ??_C@_1M@PGKJFFGL@?$AAe?$AAs?$AA?9?$AAM?$AAX@ 0000000180088d80     libucrtd:lcidtoname_downlevel.obj
 0002:00014d90       ??_C@_1M@DNNANBDC@?$AAf?$AAr?$AA?9?$AAB?$AAE@ 0000000180088d90     libucrtd:lcidtoname_downlevel.obj
 0002:00014da0       ??_C@_1M@HLGMDFHM@?$AAi?$AAt?$AA?9?$AAC?$AAH@ 0000000180088da0     libucrtd:lcidtoname_downlevel.obj
 0002:00014db0       ??_C@_1M@CLLBGJH@?$AAn?$AAl?$AA?9?$AAB?$AAE@ 0000000180088db0     libucrtd:lcidtoname_downlevel.obj
 0002:00014dc0       ??_C@_1M@BODBOGLF@?$AAn?$AAn?$AA?9?$AAN?$AAO@ 0000000180088dc0     libucrtd:lcidtoname_downlevel.obj
 0002:00014dd0       ??_C@_1M@HFFAHKAD@?$AAp?$AAt?$AA?9?$AAP?$AAT@ 0000000180088dd0     libucrtd:lcidtoname_downlevel.obj
 0002:00014de0       ??_C@_1BG@LNOAKHIE@?$AAs?$AAr?$AA?9?$AAS?$AAP?$AA?9?$AAL?$AAa?$AAt?$AAn@ 0000000180088de0     libucrtd:lcidtoname_downlevel.obj
 0002:00014df8       ??_C@_1M@HBMHBGAK@?$AAs?$AAv?$AA?9?$AAF?$AAI@ 0000000180088df8     libucrtd:lcidtoname_downlevel.obj
 0002:00014e08       ??_C@_1BG@DGCJGJBE@?$AAa?$AAz?$AA?9?$AAA?$AAZ?$AA?9?$AAC?$AAy?$AAr?$AAl@ 0000000180088e08     libucrtd:lcidtoname_downlevel.obj
 0002:00014e20       ??_C@_1M@KEJDAAHB@?$AAs?$AAe?$AA?9?$AAS?$AAE@ 0000000180088e20     libucrtd:lcidtoname_downlevel.obj
 0002:00014e30       ??_C@_1M@HEIBJJAD@?$AAm?$AAs?$AA?9?$AAB?$AAN@ 0000000180088e30     libucrtd:lcidtoname_downlevel.obj
 0002:00014e40       ??_C@_1BG@PBGJMCEM@?$AAu?$AAz?$AA?9?$AAU?$AAZ?$AA?9?$AAC?$AAy?$AAr?$AAl@ 0000000180088e40     libucrtd:lcidtoname_downlevel.obj
 0002:00014e58       ??_C@_1O@LAOBCMDF@?$AAq?$AAu?$AAz?$AA?9?$AAE?$AAC@ 0000000180088e58     libucrtd:lcidtoname_downlevel.obj
 0002:00014e68       ??_C@_1M@POEEMAIO@?$AAa?$AAr?$AA?9?$AAE?$AAG@ 0000000180088e68     libucrtd:lcidtoname_downlevel.obj
 0002:00014e78       ??_C@_1M@EFAKDEDL@?$AAz?$AAh?$AA?9?$AAH?$AAK@ 0000000180088e78     libucrtd:lcidtoname_downlevel.obj
 0002:00014e88       ??_C@_1M@HKKIJHGI@?$AAd?$AAe?$AA?9?$AAA?$AAT@ 0000000180088e88     libucrtd:lcidtoname_downlevel.obj
 0002:00014e98       ??_C@_1M@KBFBEHJF@?$AAe?$AAn?$AA?9?$AAA?$AAU@ 0000000180088e98     libucrtd:lcidtoname_downlevel.obj
 0002:00014ea8       ??_C@_1M@MNPLFAAH@?$AAe?$AAs?$AA?9?$AAE?$AAS@ 0000000180088ea8     libucrtd:lcidtoname_downlevel.obj
 0002:00014eb8       ??_C@_1M@HJOOJFMA@?$AAf?$AAr?$AA?9?$AAC?$AAA@ 0000000180088eb8     libucrtd:lcidtoname_downlevel.obj
 0002:00014ec8       ??_C@_1BG@JPOFPNAB@?$AAs?$AAr?$AA?9?$AAS?$AAP?$AA?9?$AAC?$AAy?$AAr?$AAl@ 0000000180088ec8     libucrtd:lcidtoname_downlevel.obj
 0002:00014ee0       ??_C@_1M@LNFOCMOB@?$AAs?$AAe?$AA?9?$AAF?$AAI@ 0000000180088ee0     libucrtd:lcidtoname_downlevel.obj
 0002:00014ef0       ??_C@_1O@MGJBOAMB@?$AAq?$AAu?$AAz?$AA?9?$AAP?$AAE@ 0000000180088ef0     libucrtd:lcidtoname_downlevel.obj
 0002:00014f00       ??_C@_1M@GJINLBOK@?$AAa?$AAr?$AA?9?$AAL?$AAY@ 0000000180088f00     libucrtd:lcidtoname_downlevel.obj
 0002:00014f10       ??_C@_1M@GGMNHJNL@?$AAz?$AAh?$AA?9?$AAS?$AAG@ 0000000180088f10     libucrtd:lcidtoname_downlevel.obj
 0002:00014f20       ??_C@_1M@HOIKODND@?$AAd?$AAe?$AA?9?$AAL?$AAU@ 0000000180088f20     libucrtd:lcidtoname_downlevel.obj
 0002:00014f30       ??_C@_1M@DDOCCGFG@?$AAe?$AAn?$AA?9?$AAC?$AAA@ 0000000180088f30     libucrtd:lcidtoname_downlevel.obj
 0002:00014f40       ??_C@_1M@BNOEMJLF@?$AAe?$AAs?$AA?9?$AAG?$AAT@ 0000000180088f40     libucrtd:lcidtoname_downlevel.obj
 0002:00014f50       ??_C@_1M@EOGNKEK@?$AAf?$AAr?$AA?9?$AAC?$AAH@ 0000000180088f50     libucrtd:lcidtoname_downlevel.obj
 0002:00014f60       ??_C@_1M@FLIDJFHL@?$AAh?$AAr?$AA?9?$AAB?$AAA@ 0000000180088f60     libucrtd:lcidtoname_downlevel.obj
 0002:00014f70       ??_C@_1O@FMCELNAJ@?$AAs?$AAm?$AAj?$AA?9?$AAN?$AAO@ 0000000180088f70     libucrtd:lcidtoname_downlevel.obj
 0002:00014f80       ??_C@_1M@JHGLJMGJ@?$AAa?$AAr?$AA?9?$AAD?$AAZ@ 0000000180088f80     libucrtd:lcidtoname_downlevel.obj
 0002:00014f90       ??_C@_1M@JKKFDCNP@?$AAz?$AAh?$AA?9?$AAM?$AAO@ 0000000180088f90     libucrtd:lcidtoname_downlevel.obj
 0002:00014fa0       ??_C@_1M@GEEFALPE@?$AAd?$AAe?$AA?9?$AAL?$AAI@ 0000000180088fa0     libucrtd:lcidtoname_downlevel.obj
 0002:00014fb0       ??_C@_1M@IGEOFBG@?$AAe?$AAn?$AA?9?$AAN?$AAZ@ 0000000180088fb0     libucrtd:lcidtoname_downlevel.obj
 0002:00014fc0       ??_C@_1M@KDBONEHP@?$AAe?$AAs?$AA?9?$AAC?$AAR@ 0000000180088fc0     libucrtd:lcidtoname_downlevel.obj
 0002:00014fd0       ??_C@_1M@FHMDOHNN@?$AAf?$AAr?$AA?9?$AAL?$AAU@ 0000000180088fd0     libucrtd:lcidtoname_downlevel.obj
 0002:00014fe0       ??_C@_1BG@NFKKMAFG@?$AAb?$AAs?$AA?9?$AAB?$AAA?$AA?9?$AAL?$AAa?$AAt?$AAn@ 0000000180088fe0     libucrtd:lcidtoname_downlevel.obj
 0002:00014ff8       ??_C@_1O@IMNBEMCI@?$AAs?$AAm?$AAj?$AA?9?$AAS?$AAE@ 0000000180088ff8     libucrtd:lcidtoname_downlevel.obj
 0002:00015008       ??_C@_1M@DHHMBNDP@?$AAa?$AAr?$AA?9?$AAM?$AAA@ 0000000180089008     libucrtd:lcidtoname_downlevel.obj
 0002:00015018       ??_C@_1M@BNBLJCGH@?$AAe?$AAn?$AA?9?$AAI?$AAE@ 0000000180089018     libucrtd:lcidtoname_downlevel.obj
 0002:00015028       ??_C@_1M@GEPAFMDL@?$AAe?$AAs?$AA?9?$AAP?$AAA@ 0000000180089028     libucrtd:lcidtoname_downlevel.obj
 0002:00015038       ??_C@_1M@OJONDMDL@?$AAf?$AAr?$AA?9?$AAM?$AAC@ 0000000180089038     libucrtd:lcidtoname_downlevel.obj
 0002:00015048       ??_C@_1BG@OBCNFJB@?$AAs?$AAr?$AA?9?$AAB?$AAA?$AA?9?$AAL?$AAa?$AAt?$AAn@ 0000000180089048     libucrtd:lcidtoname_downlevel.obj
 0002:00015060       ??_C@_1O@KEMEEGPO@?$AAs?$AAm?$AAa?$AA?9?$AAN?$AAO@ 0000000180089060     libucrtd:lcidtoname_downlevel.obj
 0002:00015070       ??_C@_1M@ELMGFODK@?$AAa?$AAr?$AA?9?$AAT?$AAN@ 0000000180089070     libucrtd:lcidtoname_downlevel.obj
 0002:00015080       ??_C@_1M@BHDLHFAF@?$AAe?$AAn?$AA?9?$AAZ?$AAA@ 0000000180089080     libucrtd:lcidtoname_downlevel.obj
 0002:00015090       ??_C@_1M@BMGIGLIF@?$AAe?$AAs?$AA?9?$AAD?$AAO@ 0000000180089090     libucrtd:lcidtoname_downlevel.obj
 0002:000150a0       ??_C@_1BG@CMBHIPBE@?$AAs?$AAr?$AA?9?$AAB?$AAA?$AA?9?$AAC?$AAy?$AAr?$AAl@ 00000001800890a0     libucrtd:lcidtoname_downlevel.obj
 0002:000150b8       ??_C@_1O@HEDBLHNP@?$AAs?$AAm?$AAa?$AA?9?$AAS?$AAE@ 00000001800890b8     libucrtd:lcidtoname_downlevel.obj
 0002:000150c8       ??_C@_1M@DAGCADIM@?$AAa?$AAr?$AA?9?$AAO?$AAM@ 00000001800890c8     libucrtd:lcidtoname_downlevel.obj
 0002:000150d8       ??_C@_1M@FODLMICG@?$AAe?$AAn?$AA?9?$AAJ?$AAM@ 00000001800890d8     libucrtd:lcidtoname_downlevel.obj
 0002:000150e8       ??_C@_1M@DNMLCIHB@?$AAe?$AAs?$AA?9?$AAV?$AAE@ 00000001800890e8     libucrtd:lcidtoname_downlevel.obj
 0002:000150f8       ??_C@_1O@EOKHMKJK@?$AAs?$AAm?$AAs?$AA?9?$AAF?$AAI@ 00000001800890f8     libucrtd:lcidtoname_downlevel.obj
 0002:00015108       ??_C@_1M@CAFJMKOF@?$AAa?$AAr?$AA?9?$AAY?$AAE@ 0000000180089108     libucrtd:lcidtoname_downlevel.obj
 0002:00015118       ??_C@_1M@CBFHIJLI@?$AAe?$AAn?$AA?9?$AAC?$AAB@ 0000000180089118     libucrtd:lcidtoname_downlevel.obj
 0002:00015128       ??_C@_1M@BGNFLDN@?$AAe?$AAs?$AA?9?$AAC?$AAO@ 0000000180089128     libucrtd:lcidtoname_downlevel.obj
 0002:00015138       ??_C@_1O@JMPHMAMC@?$AAs?$AAm?$AAn?$AA?9?$AAF?$AAI@ 0000000180089138     libucrtd:lcidtoname_downlevel.obj
 0002:00015148       ??_C@_1M@JLANABKE@?$AAa?$AAr?$AA?9?$AAS?$AAY@ 0000000180089148     libucrtd:lcidtoname_downlevel.obj
 0002:00015158       ??_C@_1M@HPKGCFGN@?$AAe?$AAn?$AA?9?$AAB?$AAZ@ 0000000180089158     libucrtd:lcidtoname_downlevel.obj
 0002:00015168       ??_C@_1M@OLJCMLGM@?$AAe?$AAs?$AA?9?$AAP?$AAE@ 0000000180089168     libucrtd:lcidtoname_downlevel.obj
 0002:00015178       ??_C@_1M@MKKGFKLE@?$AAa?$AAr?$AA?9?$AAJ?$AAO@ 0000000180089178     libucrtd:lcidtoname_downlevel.obj
 0002:00015188       ??_C@_1M@EKPGLDNI@?$AAe?$AAn?$AA?9?$AAT?$AAT@ 0000000180089188     libucrtd:lcidtoname_downlevel.obj
 0002:00015198       ??_C@_1M@OONGHFHE@?$AAe?$AAs?$AA?9?$AAA?$AAR@ 0000000180089198     libucrtd:lcidtoname_downlevel.obj
 0002:000151a8       ??_C@_1M@OOJFGBHE@?$AAa?$AAr?$AA?9?$AAL?$AAB@ 00000001800891a8     libucrtd:lcidtoname_downlevel.obj
 0002:000151b8       ??_C@_1M@GCEJHNEG@?$AAe?$AAn?$AA?9?$AAZ?$AAW@ 00000001800891b8     libucrtd:lcidtoname_downlevel.obj
 0002:000151c8       ??_C@_1M@JNOCAHJI@?$AAe?$AAs?$AA?9?$AAE?$AAC@ 00000001800891c8     libucrtd:lcidtoname_downlevel.obj
 0002:000151d8       ??_C@_1M@JEFHPGGB@?$AAa?$AAr?$AA?9?$AAK?$AAW@ 00000001800891d8     libucrtd:lcidtoname_downlevel.obj
 0002:000151e8       ??_C@_1M@MLKIBJOJ@?$AAe?$AAn?$AA?9?$AAP?$AAH@ 00000001800891e8     libucrtd:lcidtoname_downlevel.obj
 0002:000151f8       ??_C@_1M@BDNIPEND@?$AAe?$AAs?$AA?9?$AAC?$AAL@ 00000001800891f8     libucrtd:lcidtoname_downlevel.obj
 0002:00015208       ??_C@_1M@MPNMEKBD@?$AAa?$AAr?$AA?9?$AAA?$AAE@ 0000000180089208     libucrtd:lcidtoname_downlevel.obj
 0002:00015218       ??_C@_1M@KBJALCPI@?$AAe?$AAs?$AA?9?$AAU?$AAY@ 0000000180089218     libucrtd:lcidtoname_downlevel.obj
 0002:00015228       ??_C@_1M@LLCCOAGA@?$AAa?$AAr?$AA?9?$AAB?$AAH@ 0000000180089228     libucrtd:lcidtoname_downlevel.obj
 0002:00015238       ??_C@_1M@PBFNCDEL@?$AAe?$AAs?$AA?9?$AAP?$AAY@ 0000000180089238     libucrtd:lcidtoname_downlevel.obj
 0002:00015248       ??_C@_1M@EDGINPNP@?$AAa?$AAr?$AA?9?$AAQ?$AAA@ 0000000180089248     libucrtd:lcidtoname_downlevel.obj
 0002:00015258       ??_C@_1M@MKDBIIJI@?$AAe?$AAs?$AA?9?$AAB?$AAO@ 0000000180089258     libucrtd:lcidtoname_downlevel.obj
 0002:00015268       ??_C@_1M@CPKKEBLD@?$AAe?$AAs?$AA?9?$AAS?$AAV@ 0000000180089268     libucrtd:lcidtoname_downlevel.obj
 0002:00015278       ??_C@_1M@NDBGMMJL@?$AAe?$AAs?$AA?9?$AAH?$AAN@ 0000000180089278     libucrtd:lcidtoname_downlevel.obj
 0002:00015288       ??_C@_1M@JIJIBHDP@?$AAe?$AAs?$AA?9?$AAN?$AAI@ 0000000180089288     libucrtd:lcidtoname_downlevel.obj
 0002:00015298       ??_C@_1M@CGFMKEEK@?$AAe?$AAs?$AA?9?$AAP?$AAR@ 0000000180089298     libucrtd:lcidtoname_downlevel.obj
 0002:000152a8       ??_C@_1O@ICJHKIIK@?$AAz?$AAh?$AA?9?$AAC?$AAH?$AAT@ 00000001800892a8     libucrtd:lcidtoname_downlevel.obj
 0002:000152b8       ??_C@_15CLNEJCE@?$AAs?$AAr@ 00000001800892b8     libucrtd:lcidtoname_downlevel.obj
 0002:00016100       ??_C@_1M@KAHEKEIG@?$AAa?$AAf?$AA?9?$AAz?$AAa@ 000000018008a100     libucrtd:lcidtoname_downlevel.obj
 0002:00016110       ??_C@_1M@GIECOABL@?$AAa?$AAr?$AA?9?$AAa?$AAe@ 000000018008a110     libucrtd:lcidtoname_downlevel.obj
 0002:00016120       ??_C@_1M@BMLMEKGI@?$AAa?$AAr?$AA?9?$AAb?$AAh@ 000000018008a120     libucrtd:lcidtoname_downlevel.obj
 0002:00016130       ??_C@_1M@DAPFDGGB@?$AAa?$AAr?$AA?9?$AAd?$AAz@ 000000018008a130     libucrtd:lcidtoname_downlevel.obj
 0002:00016140       ??_C@_1M@FJNKGKIG@?$AAa?$AAr?$AA?9?$AAe?$AAg@ 000000018008a140     libucrtd:lcidtoname_downlevel.obj
 0002:00016150       ??_C@_1M@FLGKKCLO@?$AAa?$AAr?$AA?9?$AAi?$AAq@ 000000018008a150     libucrtd:lcidtoname_downlevel.obj
 0002:00016160       ??_C@_1M@GNDIPALM@?$AAa?$AAr?$AA?9?$AAj?$AAo@ 000000018008a160     libucrtd:lcidtoname_downlevel.obj
 0002:00016170       ??_C@_1M@DDMJFMGJ@?$AAa?$AAr?$AA?9?$AAk?$AAw@ 000000018008a170     libucrtd:lcidtoname_downlevel.obj
 0002:00016180       ??_C@_1M@EJALMLHM@?$AAa?$AAr?$AA?9?$AAl?$AAb@ 000000018008a180     libucrtd:lcidtoname_downlevel.obj
 0002:00016190       ??_C@_1M@MOBDBLOC@?$AAa?$AAr?$AA?9?$AAl?$AAy@ 000000018008a190     libucrtd:lcidtoname_downlevel.obj
 0002:000161a0       ??_C@_1M@JAOCLHDH@?$AAa?$AAr?$AA?9?$AAm?$AAa@ 000000018008a1a0     libucrtd:lcidtoname_downlevel.obj
 0002:000161b0       ??_C@_1M@JHPMKJIE@?$AAa?$AAr?$AA?9?$AAo?$AAm@ 000000018008a1b0     libucrtd:lcidtoname_downlevel.obj
 0002:000161c0       ??_C@_1M@OEPGHFNH@?$AAa?$AAr?$AA?9?$AAq?$AAa@ 000000018008a1c0     libucrtd:lcidtoname_downlevel.obj
 0002:000161d0       ??_C@_1M@KJDONENM@?$AAa?$AAr?$AA?9?$AAs?$AAa@ 000000018008a1d0     libucrtd:lcidtoname_downlevel.obj
 0002:000161e0       ??_C@_1M@DMJDKLKM@?$AAa?$AAr?$AA?9?$AAs?$AAy@ 000000018008a1e0     libucrtd:lcidtoname_downlevel.obj
 0002:000161f0       ??_C@_1M@OMFIPEDC@?$AAa?$AAr?$AA?9?$AAt?$AAn@ 000000018008a1f0     libucrtd:lcidtoname_downlevel.obj
 0002:00016200       ??_C@_1M@IHMHGAON@?$AAa?$AAr?$AA?9?$AAy?$AAe@ 000000018008a200     libucrtd:lcidtoname_downlevel.obj
 0002:00016210       ??_C@_1BG@KDCPGJGB@?$AAa?$AAz?$AA?9?$AAa?$AAz?$AA?9?$AAc?$AAy?$AAr?$AAl@ 000000018008a210     libucrtd:lcidtoname_downlevel.obj
 0002:00016228       ??_C@_1BG@IBCKDDOE@?$AAa?$AAz?$AA?9?$AAa?$AAz?$AA?9?$AAl?$AAa?$AAt?$AAn@ 000000018008a228     libucrtd:lcidtoname_downlevel.obj
 0002:00016240       ??_C@_1M@EGPFDCPD@?$AAb?$AAe?$AA?9?$AAb?$AAy@ 000000018008a240     libucrtd:lcidtoname_downlevel.obj
 0002:00016250       ??_C@_1M@PCMGMCGC@?$AAb?$AAg?$AA?9?$AAb?$AAg@ 000000018008a250     libucrtd:lcidtoname_downlevel.obj
 0002:00016260       ??_C@_1M@BJBMFGOB@?$AAb?$AAn?$AA?9?$AAi?$AAn@ 000000018008a260     libucrtd:lcidtoname_downlevel.obj
 0002:00016270       ??_C@_1BG@EAKMMACD@?$AAb?$AAs?$AA?9?$AAb?$AAa?$AA?9?$AAl?$AAa?$AAt?$AAn@ 000000018008a270     libucrtd:lcidtoname_downlevel.obj
 0002:00016288       ??_C@_1M@KGADAODK@?$AAc?$AAa?$AA?9?$AAe?$AAs@ 000000018008a288     libucrtd:lcidtoname_downlevel.obj
 0002:00016298       ??_C@_1M@COAJPDHI@?$AAc?$AAs?$AA?9?$AAc?$AAz@ 000000018008a298     libucrtd:lcidtoname_downlevel.obj
 0002:000162a8       ??_C@_1M@DHBHFONH@?$AAc?$AAy?$AA?9?$AAg?$AAb@ 000000018008a2a8     libucrtd:lcidtoname_downlevel.obj
 0002:000162b8       ??_C@_1M@IMGKELGA@?$AAd?$AAa?$AA?9?$AAd?$AAk@ 000000018008a2b8     libucrtd:lcidtoname_downlevel.obj
 0002:000162c8       ??_C@_1M@NNDGDNGA@?$AAd?$AAe?$AA?9?$AAa?$AAt@ 000000018008a2c8     libucrtd:lcidtoname_downlevel.obj
 0002:000162d8       ??_C@_1M@IKDBHEEM@?$AAd?$AAe?$AA?9?$AAc?$AAh@ 000000018008a2d8     libucrtd:lcidtoname_downlevel.obj
 0002:000162e8       ??_C@_1M@GFFOJMCJ@?$AAd?$AAe?$AA?9?$AAd?$AAe@ 000000018008a2e8     libucrtd:lcidtoname_downlevel.obj
 0002:000162f8       ??_C@_1M@MDNLKBPM@?$AAd?$AAe?$AA?9?$AAl?$AAi@ 000000018008a2f8     libucrtd:lcidtoname_downlevel.obj
 0002:00016308       ??_C@_1M@NJBEEJNL@?$AAd?$AAe?$AA?9?$AAl?$AAu@ 000000018008a308     libucrtd:lcidtoname_downlevel.obj
 0002:00016318       ??_C@_1O@GNNELBAP@?$AAd?$AAi?$AAv?$AA?9?$AAm?$AAv@ 000000018008a318     libucrtd:lcidtoname_downlevel.obj
 0002:00016328       ??_C@_1M@EJLEOGAE@?$AAe?$AAl?$AA?9?$AAg?$AAr@ 000000018008a328     libucrtd:lcidtoname_downlevel.obj
 0002:00016338       ??_C@_1M@GMPONJN@?$AAe?$AAn?$AA?9?$AAa?$AAu@ 000000018008a338     libucrtd:lcidtoname_downlevel.obj
 0002:00016348       ??_C@_1M@NIDIIPGF@?$AAe?$AAn?$AA?9?$AAb?$AAz@ 000000018008a348     libucrtd:lcidtoname_downlevel.obj
 0002:00016358       ??_C@_1M@JEHMIMFO@?$AAe?$AAn?$AA?9?$AAc?$AAa@ 000000018008a358     libucrtd:lcidtoname_downlevel.obj
 0002:00016368       ??_C@_1M@IGMJCDLA@?$AAe?$AAn?$AA?9?$AAc?$AAb@ 000000018008a368     libucrtd:lcidtoname_downlevel.obj
 0002:00016378       ??_C@_1M@BNFIGBKG@?$AAe?$AAn?$AA?9?$AAg?$AAb@ 000000018008a378     libucrtd:lcidtoname_downlevel.obj
 0002:00016388       ??_C@_1M@LKIFDIGP@?$AAe?$AAn?$AA?9?$AAi?$AAe@ 000000018008a388     libucrtd:lcidtoname_downlevel.obj
 0002:00016398       ??_C@_1M@PJKFGCCO@?$AAe?$AAn?$AA?9?$AAj?$AAm@ 000000018008a398     libucrtd:lcidtoname_downlevel.obj
 0002:000163a8       ??_C@_1M@KPPKEPBO@?$AAe?$AAn?$AA?9?$AAn?$AAz@ 000000018008a3a8     libucrtd:lcidtoname_downlevel.obj
 0002:000163b8       ??_C@_1M@GMDGLDOB@?$AAe?$AAn?$AA?9?$AAp?$AAh@ 000000018008a3b8     libucrtd:lcidtoname_downlevel.obj
 0002:000163c8       ??_C@_1M@ONGIBJNA@?$AAe?$AAn?$AA?9?$AAt?$AAt@ 000000018008a3c8     libucrtd:lcidtoname_downlevel.obj
 0002:000163d8       ??_C@_1M@LLODPCMM@?$AAe?$AAn?$AA?9?$AAu?$AAs@ 000000018008a3d8     libucrtd:lcidtoname_downlevel.obj
 0002:000163e8       ??_C@_1M@LAKFNPAN@?$AAe?$AAn?$AA?9?$AAz?$AAa@ 000000018008a3e8     libucrtd:lcidtoname_downlevel.obj
 0002:000163f8       ??_C@_1M@MFNHNHEO@?$AAe?$AAn?$AA?9?$AAz?$AAw@ 000000018008a3f8     libucrtd:lcidtoname_downlevel.obj
 0002:00016408       ??_C@_1M@EJEINPHM@?$AAe?$AAs?$AA?9?$AAa?$AAr@ 000000018008a408     libucrtd:lcidtoname_downlevel.obj
 0002:00016418       ??_C@_1M@GNKPCCJA@?$AAe?$AAs?$AA?9?$AAb?$AAo@ 000000018008a418     libucrtd:lcidtoname_downlevel.obj
 0002:00016428       ??_C@_1M@LEEGFONL@?$AAe?$AAs?$AA?9?$AAc?$AAl@ 000000018008a428     libucrtd:lcidtoname_downlevel.obj
 0002:00016438       ??_C@_1M@KGPDPBDF@?$AAe?$AAs?$AA?9?$AAc?$AAo@ 000000018008a438     libucrtd:lcidtoname_downlevel.obj
 0002:00016448       ??_C@_1M@EIAHOHH@?$AAe?$AAs?$AA?9?$AAc?$AAr@ 000000018008a448     libucrtd:lcidtoname_downlevel.obj
 0002:00016458       ??_C@_1M@LLPGMBIN@?$AAe?$AAs?$AA?9?$AAd?$AAo@ 000000018008a458     libucrtd:lcidtoname_downlevel.obj
 0002:00016468       ??_C@_1M@DKHMKNJA@?$AAe?$AAs?$AA?9?$AAe?$AAc@ 000000018008a468     libucrtd:lcidtoname_downlevel.obj
 0002:00016478       ??_C@_1M@GKGFPKAP@?$AAe?$AAs?$AA?9?$AAe?$AAs@ 000000018008a478     libucrtd:lcidtoname_downlevel.obj
 0002:00016488       ??_C@_1M@LKHKGDLN@?$AAe?$AAs?$AA?9?$AAg?$AAt@ 000000018008a488     libucrtd:lcidtoname_downlevel.obj
 0002:00016498       ??_C@_1M@HEIIGGJD@?$AAe?$AAs?$AA?9?$AAh?$AAn@ 000000018008a498     libucrtd:lcidtoname_downlevel.obj
 0002:000164a8       ??_C@_1M@FBDHPPGD@?$AAe?$AAs?$AA?9?$AAm?$AAx@ 000000018008a4a8     libucrtd:lcidtoname_downlevel.obj
 0002:000164b8       ??_C@_1M@DPAGLNDH@?$AAe?$AAs?$AA?9?$AAn?$AAi@ 000000018008a4b8     libucrtd:lcidtoname_downlevel.obj
 0002:000164c8       ??_C@_1M@MDGOPGDD@?$AAe?$AAs?$AA?9?$AAp?$AAa@ 000000018008a4c8     libucrtd:lcidtoname_downlevel.obj
 0002:000164d8       ??_C@_1M@EMAMGBGE@?$AAe?$AAs?$AA?9?$AAp?$AAe@ 000000018008a4d8     libucrtd:lcidtoname_downlevel.obj
 0002:000164e8       ??_C@_1M@IBMCAOEC@?$AAe?$AAs?$AA?9?$AAp?$AAr@ 000000018008a4e8     libucrtd:lcidtoname_downlevel.obj
 0002:000164f8       ??_C@_1M@FGMDIJED@?$AAe?$AAs?$AA?9?$AAp?$AAy@ 000000018008a4f8     libucrtd:lcidtoname_downlevel.obj
 0002:00016508       ??_C@_1M@IIDEOLLL@?$AAe?$AAs?$AA?9?$AAs?$AAv@ 000000018008a508     libucrtd:lcidtoname_downlevel.obj
 0002:00016518       ??_C@_1M@GAOBIPA@?$AAe?$AAs?$AA?9?$AAu?$AAy@ 000000018008a518     libucrtd:lcidtoname_downlevel.obj
 0002:00016528       ??_C@_1M@JKFFICHJ@?$AAe?$AAs?$AA?9?$AAv?$AAe@ 000000018008a528     libucrtd:lcidtoname_downlevel.obj
 0002:00016538       ??_C@_1M@PNMLOJDF@?$AAe?$AAt?$AA?9?$AAe?$AAe@ 000000018008a538     libucrtd:lcidtoname_downlevel.obj
 0002:00016548       ??_C@_1M@GHHLIKEI@?$AAe?$AAu?$AA?9?$AAe?$AAs@ 000000018008a548     libucrtd:lcidtoname_downlevel.obj
 0002:00016558       ??_C@_1M@PBNONODE@?$AAf?$AAa?$AA?9?$AAi?$AAr@ 000000018008a558     libucrtd:lcidtoname_downlevel.obj
 0002:00016568       ??_C@_1M@JEEHPMIL@?$AAf?$AAi?$AA?9?$AAf?$AAi@ 000000018008a568     libucrtd:lcidtoname_downlevel.obj
 0002:00016578       ??_C@_1M@LMDCNDBA@?$AAf?$AAo?$AA?9?$AAf?$AAo@ 000000018008a578     libucrtd:lcidtoname_downlevel.obj
 0002:00016588       ??_C@_1M@JKEOHLDK@?$AAf?$AAr?$AA?9?$AAb?$AAe@ 000000018008a588     libucrtd:lcidtoname_downlevel.obj
 0002:00016598       ??_C@_1M@NOHADPMI@?$AAf?$AAr?$AA?9?$AAc?$AAa@ 000000018008a598     libucrtd:lcidtoname_downlevel.obj
 0002:000165a8       ??_C@_1M@KDHIHAEC@?$AAf?$AAr?$AA?9?$AAc?$AAh@ 000000018008a5a8     libucrtd:lcidtoname_downlevel.obj
 0002:000165b8       ??_C@_1M@MMBBFGAK@?$AAf?$AAr?$AA?9?$AAf?$AAr@ 000000018008a5b8     libucrtd:lcidtoname_downlevel.obj
 0002:000165c8       ??_C@_1M@PAFNENNF@?$AAf?$AAr?$AA?9?$AAl?$AAu@ 000000018008a5c8     libucrtd:lcidtoname_downlevel.obj
 0002:000165d8       ??_C@_1M@EOHDJGDD@?$AAf?$AAr?$AA?9?$AAm?$AAc@ 000000018008a5d8     libucrtd:lcidtoname_downlevel.obj
 0002:000165e8       ??_C@_1M@FAPLLOPF@?$AAg?$AAl?$AA?9?$AAe?$AAs@ 000000018008a5e8     libucrtd:lcidtoname_downlevel.obj
 0002:000165f8       ??_C@_1M@FOPBFLOO@?$AAg?$AAu?$AA?9?$AAi?$AAn@ 000000018008a5f8     libucrtd:lcidtoname_downlevel.obj
 0002:00016608       ??_C@_1M@KBMCINPM@?$AAh?$AAe?$AA?9?$AAi?$AAl@ 000000018008a608     libucrtd:lcidtoname_downlevel.obj
 0002:00016618       ??_C@_1M@BBPHKFPJ@?$AAh?$AAi?$AA?9?$AAi?$AAn@ 000000018008a618     libucrtd:lcidtoname_downlevel.obj
 0002:00016628       ??_C@_1M@PMBNDPHD@?$AAh?$AAr?$AA?9?$AAb?$AAa@ 000000018008a628     libucrtd:lcidtoname_downlevel.obj
 0002:00016638       ??_C@_1M@BPCKOEGE@?$AAh?$AAr?$AA?9?$AAh?$AAr@ 000000018008a638     libucrtd:lcidtoname_downlevel.obj
 0002:00016648       ??_C@_1M@GACBMHKE@?$AAh?$AAu?$AA?9?$AAh?$AAu@ 000000018008a648     libucrtd:lcidtoname_downlevel.obj
 0002:00016658       ??_C@_1M@MILPAJJC@?$AAh?$AAy?$AA?9?$AAa?$AAm@ 000000018008a658     libucrtd:lcidtoname_downlevel.obj
 0002:00016668       ??_C@_1M@BABBICEC@?$AAi?$AAd?$AA?9?$AAi?$AAd@ 000000018008a668     libucrtd:lcidtoname_downlevel.obj
 0002:00016678       ??_C@_1M@BIKNHHPF@?$AAi?$AAs?$AA?9?$AAi?$AAs@ 000000018008a678     libucrtd:lcidtoname_downlevel.obj
 0002:00016688       ??_C@_1M@NMPCJPHE@?$AAi?$AAt?$AA?9?$AAc?$AAh@ 000000018008a688     libucrtd:lcidtoname_downlevel.obj
 0002:00016698       ??_C@_1M@GHKGFEDF@?$AAi?$AAt?$AA?9?$AAi?$AAt@ 000000018008a698     libucrtd:lcidtoname_downlevel.obj
 0002:000166a8       ??_C@_1M@NIEJCJJA@?$AAj?$AAa?$AA?9?$AAj?$AAp@ 000000018008a6a8     libucrtd:lcidtoname_downlevel.obj
 0002:000166b8       ??_C@_1M@JILFNBIM@?$AAk?$AAa?$AA?9?$AAg?$AAe@ 000000018008a6b8     libucrtd:lcidtoname_downlevel.obj
 0002:000166c8       ??_C@_1M@PACPMGPH@?$AAk?$AAk?$AA?9?$AAk?$AAz@ 000000018008a6c8     libucrtd:lcidtoname_downlevel.obj
 0002:000166d8       ??_C@_1M@IELFGMHA@?$AAk?$AAn?$AA?9?$AAi?$AAn@ 000000018008a6d8     libucrtd:lcidtoname_downlevel.obj
 0002:000166e8       ??_C@_1O@IBBJHCH@?$AAk?$AAo?$AAk?$AA?9?$AAi?$AAn@ 000000018008a6e8     libucrtd:lcidtoname_downlevel.obj
 0002:000166f8       ??_C@_1M@DMHAEOGC@?$AAk?$AAo?$AA?9?$AAk?$AAr@ 000000018008a6f8     libucrtd:lcidtoname_downlevel.obj
 0002:00016708       ??_C@_1M@HBAHBIGA@?$AAk?$AAy?$AA?9?$AAk?$AAg@ 000000018008a708     libucrtd:lcidtoname_downlevel.obj
 0002:00016718       ??_C@_1M@KPMILCJG@?$AAl?$AAt?$AA?9?$AAl?$AAt@ 000000018008a718     libucrtd:lcidtoname_downlevel.obj
 0002:00016728       ??_C@_1M@BDEKKCA@?$AAl?$AAv?$AA?9?$AAl?$AAv@ 000000018008a728     libucrtd:lcidtoname_downlevel.obj
 0002:00016738       ??_C@_1M@ELCKCCJJ@?$AAm?$AAi?$AA?9?$AAn?$AAz@ 000000018008a738     libucrtd:lcidtoname_downlevel.obj
 0002:00016748       ??_C@_1M@CBOOLAPA@?$AAm?$AAk?$AA?9?$AAm?$AAk@ 000000018008a748     libucrtd:lcidtoname_downlevel.obj
 0002:00016758       ??_C@_1M@GPHNBJKN@?$AAm?$AAl?$AA?9?$AAi?$AAn@ 000000018008a758     libucrtd:lcidtoname_downlevel.obj
 0002:00016768       ??_C@_1M@PABJILIG@?$AAm?$AAn?$AA?9?$AAm?$AAn@ 000000018008a768     libucrtd:lcidtoname_downlevel.obj
 0002:00016778       ??_C@_1M@FGBKKIPG@?$AAm?$AAr?$AA?9?$AAi?$AAn@ 000000018008a778     libucrtd:lcidtoname_downlevel.obj
 0002:00016788       ??_C@_1M@NDBPDDAL@?$AAm?$AAs?$AA?9?$AAb?$AAn@ 000000018008a788     libucrtd:lcidtoname_downlevel.obj
 0002:00016798       ??_C@_1M@OPIHOOPI@?$AAm?$AAs?$AA?9?$AAm?$AAy@ 000000018008a798     libucrtd:lcidtoname_downlevel.obj
 0002:000167a8       ??_C@_1M@PPDBCNFM@?$AAm?$AAt?$AA?9?$AAm?$AAt@ 000000018008a7a8     libucrtd:lcidtoname_downlevel.obj
 0002:000167b8       ??_C@_1M@KDJDKMDD@?$AAn?$AAb?$AA?9?$AAn?$AAo@ 000000018008a7b8     libucrtd:lcidtoname_downlevel.obj
 0002:000167c8       ??_C@_1M@KFCFLMJP@?$AAn?$AAl?$AA?9?$AAb?$AAe@ 000000018008a7c8     libucrtd:lcidtoname_downlevel.obj
 0002:000167d8       ??_C@_1M@KPOPDDGO@?$AAn?$AAl?$AA?9?$AAn?$AAl@ 000000018008a7d8     libucrtd:lcidtoname_downlevel.obj
 0002:000167e8       ??_C@_1M@LJKPEMLN@?$AAn?$AAn?$AA?9?$AAn?$AAo@ 000000018008a7e8     libucrtd:lcidtoname_downlevel.obj
 0002:000167f8       ??_C@_1M@BDGHHBFL@?$AAn?$AAs?$AA?9?$AAz?$AAa@ 000000018008a7f8     libucrtd:lcidtoname_downlevel.obj
 0002:00016808       ??_C@_1M@IDEHOAP@?$AAp?$AAa?$AA?9?$AAi?$AAn@ 000000018008a808     libucrtd:lcidtoname_downlevel.obj
 0002:00016818       ??_C@_1M@HDBKGOGH@?$AAp?$AAl?$AA?9?$AAp?$AAl@ 000000018008a818     libucrtd:lcidtoname_downlevel.obj
 0002:00016828       ??_C@_1M@LJLLCMEH@?$AAp?$AAt?$AA?9?$AAb?$AAr@ 000000018008a828     libucrtd:lcidtoname_downlevel.obj
 0002:00016838       ??_C@_1M@NCMONAAL@?$AAp?$AAt?$AA?9?$AAp?$AAt@ 000000018008a838     libucrtd:lcidtoname_downlevel.obj
 0002:00016848       ??_C@_1O@EAKMAJDN@?$AAq?$AAu?$AAz?$AA?9?$AAb?$AAo@ 000000018008a848     libucrtd:lcidtoname_downlevel.obj
 0002:00016858       ??_C@_1O@BHHPIGDN@?$AAq?$AAu?$AAz?$AA?9?$AAe?$AAc@ 000000018008a858     libucrtd:lcidtoname_downlevel.obj
 0002:00016868       ??_C@_1O@GBAPEKMJ@?$AAq?$AAu?$AAz?$AA?9?$AAp?$AAe@ 000000018008a868     libucrtd:lcidtoname_downlevel.obj
 0002:00016878       ??_C@_1M@CLGLEFBO@?$AAr?$AAo?$AA?9?$AAr?$AAo@ 000000018008a878     libucrtd:lcidtoname_downlevel.obj
 0002:00016888       ??_C@_1M@CEEDODME@?$AAr?$AAu?$AA?9?$AAr?$AAu@ 000000018008a888     libucrtd:lcidtoname_downlevel.obj
 0002:00016898       ??_C@_1M@HPKKKMPP@?$AAs?$AAa?$AA?9?$AAi?$AAn@ 000000018008a898     libucrtd:lcidtoname_downlevel.obj
 0002:000168a8       ??_C@_1M@BKMAIGOJ@?$AAs?$AAe?$AA?9?$AAf?$AAi@ 000000018008a8a8     libucrtd:lcidtoname_downlevel.obj
 0002:000168b8       ??_C@_1M@NDPIFLFI@?$AAs?$AAe?$AA?9?$AAn?$AAo@ 000000018008a8b8     libucrtd:lcidtoname_downlevel.obj
 0002:000168c8       ??_C@_1M@DANKKHJ@?$AAs?$AAe?$AA?9?$AAs?$AAe@ 000000018008a8c8     libucrtd:lcidtoname_downlevel.obj
 0002:000168d8       ??_C@_1M@PNBLONPJ@?$AAs?$AAk?$AA?9?$AAs?$AAk@ 000000018008a8d8     libucrtd:lcidtoname_downlevel.obj
 0002:000168e8       ??_C@_1M@LFMODOAL@?$AAs?$AAl?$AA?9?$AAs?$AAi@ 000000018008a8e8     libucrtd:lcidtoname_downlevel.obj
 0002:000168f8       ??_C@_1O@DFKOMPG@?$AAs?$AAm?$AAa?$AA?9?$AAn?$AAo@ 000000018008a8f8     libucrtd:lcidtoname_downlevel.obj
 0002:00016908       ??_C@_1O@NDKPBNNH@?$AAs?$AAm?$AAa?$AA?9?$AAs?$AAe@ 000000018008a908     libucrtd:lcidtoname_downlevel.obj
 0002:00016918       ??_C@_1O@PLLKBHAB@?$AAs?$AAm?$AAj?$AA?9?$AAn?$AAo@ 000000018008a918     libucrtd:lcidtoname_downlevel.obj
 0002:00016928       ??_C@_1O@CLEPOGCA@?$AAs?$AAm?$AAj?$AA?9?$AAs?$AAe@ 000000018008a928     libucrtd:lcidtoname_downlevel.obj
 0002:00016938       ??_C@_1O@DLGJGKMK@?$AAs?$AAm?$AAn?$AA?9?$AAf?$AAi@ 000000018008a938     libucrtd:lcidtoname_downlevel.obj
 0002:00016948       ??_C@_1O@OJDJGAJC@?$AAs?$AAm?$AAs?$AA?9?$AAf?$AAi@ 000000018008a948     libucrtd:lcidtoname_downlevel.obj
 0002:00016958       ??_C@_1M@BOFOGHPB@?$AAs?$AAq?$AA?9?$AAa?$AAl@ 000000018008a958     libucrtd:lcidtoname_downlevel.obj
 0002:00016968       ??_C@_1BG@LJBBIPGB@?$AAs?$AAr?$AA?9?$AAb?$AAa?$AA?9?$AAc?$AAy?$AAr?$AAl@ 000000018008a968     libucrtd:lcidtoname_downlevel.obj
 0002:00016980       ??_C@_1BG@JLBENFOE@?$AAs?$AAr?$AA?9?$AAb?$AAa?$AA?9?$AAl?$AAa?$AAt?$AAn@ 000000018008a980     libucrtd:lcidtoname_downlevel.obj
 0002:00016998       ??_C@_1BG@KODPNHE@?$AAs?$AAr?$AA?9?$AAs?$AAp?$AA?9?$AAc?$AAy?$AAr?$AAl@ 000000018008a998     libucrtd:lcidtoname_downlevel.obj
 0002:000169b0       ??_C@_1BG@CIOGKHPB@?$AAs?$AAr?$AA?9?$AAs?$AAp?$AA?9?$AAl?$AAa?$AAt?$AAn@ 000000018008a9b0     libucrtd:lcidtoname_downlevel.obj
 0002:000169c8       ??_C@_1M@NGFJLMAC@?$AAs?$AAv?$AA?9?$AAf?$AAi@ 000000018008a9c8     libucrtd:lcidtoname_downlevel.obj
 0002:000169d8       ??_C@_1M@MPJEJAJC@?$AAs?$AAv?$AA?9?$AAs?$AAe@ 000000018008a9d8     libucrtd:lcidtoname_downlevel.obj
 0002:000169e8       ??_C@_1M@MPNDHLFK@?$AAs?$AAw?$AA?9?$AAk?$AAe@ 000000018008a9e8     libucrtd:lcidtoname_downlevel.obj
 0002:000169f8       ??_C@_1O@KOHBJJI@?$AAs?$AAy?$AAr?$AA?9?$AAs?$AAy@ 000000018008a9f8     libucrtd:lcidtoname_downlevel.obj
 0002:00016a08       ??_C@_1M@LDCEFHA@?$AAt?$AAa?$AA?9?$AAi?$AAn@ 000000018008aa08     libucrtd:lcidtoname_downlevel.obj
 0002:00016a18       ??_C@_1M@CNJOFAK@?$AAt?$AAe?$AA?9?$AAi?$AAn@ 000000018008aa18     libucrtd:lcidtoname_downlevel.obj
 0002:00016a28       ??_C@_1M@GNAECACD@?$AAt?$AAh?$AA?9?$AAt?$AAh@ 000000018008aa28     libucrtd:lcidtoname_downlevel.obj
 0002:00016a38       ??_C@_1M@CHBIHOJO@?$AAt?$AAn?$AA?9?$AAz?$AAa@ 000000018008aa38     libucrtd:lcidtoname_downlevel.obj
 0002:00016a48       ??_C@_1M@GCCMIGPJ@?$AAt?$AAr?$AA?9?$AAt?$AAr@ 000000018008aa48     libucrtd:lcidtoname_downlevel.obj
 0002:00016a58       ??_C@_1M@CELMCNBK@?$AAt?$AAt?$AA?9?$AAr?$AAu@ 000000018008aa58     libucrtd:lcidtoname_downlevel.obj
 0002:00016a68       ??_C@_1M@KLMCELGA@?$AAu?$AAk?$AA?9?$AAu?$AAa@ 000000018008aa68     libucrtd:lcidtoname_downlevel.obj
 0002:00016a78       ??_C@_1M@EPAJJAJF@?$AAu?$AAr?$AA?9?$AAp?$AAk@ 000000018008aa78     libucrtd:lcidtoname_downlevel.obj
 0002:00016a88       ??_C@_1BG@GEGPMCDJ@?$AAu?$AAz?$AA?9?$AAu?$AAz?$AA?9?$AAc?$AAy?$AAr?$AAl@ 000000018008aa88     libucrtd:lcidtoname_downlevel.obj
 0002:00016aa0       ??_C@_1BG@EGGKJILM@?$AAu?$AAz?$AA?9?$AAu?$AAz?$AA?9?$AAl?$AAa?$AAt?$AAn@ 000000018008aaa0     libucrtd:lcidtoname_downlevel.obj
 0002:00016ab8       ??_C@_1M@GFOCLFF@?$AAv?$AAi?$AA?9?$AAv?$AAn@ 000000018008aab8     libucrtd:lcidtoname_downlevel.obj
 0002:00016ac8       ??_C@_1M@CPAMEDFI@?$AAx?$AAh?$AA?9?$AAz?$AAa@ 000000018008aac8     libucrtd:lcidtoname_downlevel.obj
 0002:00016ad8       ??_C@_1O@EBKIFIGN@?$AAz?$AAh?$AA?9?$AAc?$AAh?$AAs@ 000000018008aad8     libucrtd:lcidtoname_downlevel.obj
 0002:00016ae8       ??_C@_1O@NMHPGANE@?$AAz?$AAh?$AA?9?$AAc?$AAh?$AAt@ 000000018008aae8     libucrtd:lcidtoname_downlevel.obj
 0002:00016af8       ??_C@_1M@LPINJOMC@?$AAz?$AAh?$AA?9?$AAc?$AAn@ 000000018008aaf8     libucrtd:lcidtoname_downlevel.obj
 0002:00016b08       ??_C@_1M@OCJEJODD@?$AAz?$AAh?$AA?9?$AAh?$AAk@ 000000018008ab08     libucrtd:lcidtoname_downlevel.obj
 0002:00016b18       ??_C@_1M@DNDLJINH@?$AAz?$AAh?$AA?9?$AAm?$AAo@ 000000018008ab18     libucrtd:lcidtoname_downlevel.obj
 0002:00016b28       ??_C@_1M@MBFDNDND@?$AAz?$AAh?$AA?9?$AAs?$AAg@ 000000018008ab28     libucrtd:lcidtoname_downlevel.obj
 0002:00016b38       ??_C@_1M@IMEPLEPE@?$AAz?$AAh?$AA?9?$AAt?$AAw@ 000000018008ab38     libucrtd:lcidtoname_downlevel.obj
 0002:00016b48       ??_C@_1M@BBGHNHJP@?$AAz?$AAu?$AA?9?$AAz?$AAa@ 000000018008ab48     libucrtd:lcidtoname_downlevel.obj
 0002:00016b60       ??_C@_1GG@MCCIENJO@?$AAm?$AAi?$AAn?$AAk?$AAe?$AAr?$AAn?$AAe?$AAl?$AA?2?$AAc?$AAr?$AAt?$AAs?$AA?2@ 000000018008ab60     libucrtd:mbrtowc.obj
 0002:00016bd0       ??_C@_1EK@MCEFBPIK@?$AAr?$AAe?$AAt?$AAv?$AAa?$AAl?$AA?5?$AA?$CB?$AA?$DN?$AA?5?$AA_?$AA_?$AAc?$AAr?$AAt@ 000000018008abd0     libucrtd:mbrtowc.obj
 0002:00016c20       ??_C@_1EK@OANGPA@?$AA1?$AA?5?$AA?$DM?$AA?$DN?$AA?5?$AAt?$AAr?$AAa?$AAi?$AAl?$AA_?$AAb?$AAy?$AAt?$AAe@ 000000018008ac20     libucrtd:c32rtomb.obj
 0002:00016c70       ??_C@_1GI@FBFKMNDD@?$AAm?$AAi?$AAn?$AAk?$AAe?$AAr?$AAn?$AAe?$AAl?$AA?2?$AAc?$AAr?$AAt?$AAs?$AA?2@ 000000018008ac70     libucrtd:c32rtomb.obj
 0002:00016ce0       ??_C@_1EA@DDDCIHI@?$AAc?$AA3?$AA2?$AA?5?$AA?$DM?$AA?5?$AA?$CI?$AA1?$AAu?$AA?5?$AA?$DM?$AA?$DM?$AA?5?$AA?$CI?$AA7@ 000000018008ace0     libucrtd:c32rtomb.obj
 0002:00016d20       ??_C@_1GI@IMEEHIAK@?$AAm?$AAi?$AAn?$AAk?$AAe?$AAr?$AAn?$AAe?$AAl?$AA?2?$AAc?$AAr?$AAt?$AAs?$AA?2@ 000000018008ad20     libucrtd:_fptostr.obj
 0002:00016d88       ??_C@_1DG@NMGBKPMI@?$AA_?$AA_?$AAa?$AAc?$AAr?$AAt?$AA_?$AAf?$AAp?$AA_?$AAs?$AAt?$AAr?$AAf?$AAl@ 000000018008ad88     libucrtd:_fptostr.obj
 0002:00016dc0       ??_C@_1IE@EAOKIIFP@?$AAb?$AAu?$AAf?$AAf?$AAe?$AAr?$AA_?$AAc?$AAo?$AAu?$AAn?$AAt?$AA?5?$AA?$DO?$AA?5@ 000000018008adc0     libucrtd:_fptostr.obj
 0002:00016e48       ??_C@_1CA@EDEEBMBB@?$AAp?$AAf?$AAl?$AAt?$AA?5?$AA?$CB?$AA?$DN?$AA?5?$AAn?$AAu?$AAl?$AAl?$AAp?$AAt?$AAr@ 000000018008ae48     libucrtd:_fptostr.obj
 0002:00016e70       ?large_power_data@?1??multiply_by_power_of_ten@__crt_strtox@@YA_NAEAUbig_integer@2@I@Z@4QBIB 000000018008ae70     libucrtd:cfout.obj
 0002:00017780       ?large_power_indices@?1??multiply_by_power_of_ten@__crt_strtox@@YA_NAEAUbig_integer@2@I@Z@4QBUunpack_index@?1??12@YA_N0I@Z@B 000000018008b780     libucrtd:cfout.obj
 0002:00017818       ?small_powers_of_ten@?1??multiply_by_power_of_ten@__crt_strtox@@YA_NAEAUbig_integer@2@I@Z@4QBIB 000000018008b818     libucrtd:cfout.obj
 0002:00017840       ??_C@_1DI@GICAMMFM@?$AA?$CI?$AA?$CC?$AAD?$AAi?$AAv?$AAi?$AAs?$AAi?$AAo?$AAn?$AA?5?$AAb?$AAy?$AA?5?$AAz@ 000000018008b840     libucrtd:cfout.obj
 0002:00017880       ??_C@_1GO@BFGDDONN@?$AAm?$AAi?$AAn?$AAk?$AAe?$AAr?$AAn?$AAe?$AAl?$AA?2?$AAc?$AAr?$AAt?$AAs?$AA?2@ 000000018008b880     libucrtd:cfout.obj
 0002:000178f0       ??_C@_1GC@DDAKNBNC@?$AAm?$AAi?$AAn?$AAk?$AAe?$AAr?$AAn?$AAe?$AAl?$AA?2?$AAc?$AAr?$AAt?$AAs?$AA?2@ 000000018008b8f0     libucrtd:cfout.obj
 0002:00017958       ??_C@_1BM@FAAOAKKO@?$AA_?$AA_?$AAa?$AAc?$AAr?$AAt?$AA_?$AAf?$AAl?$AAt?$AAo?$AAu?$AAt@ 000000018008b958     libucrtd:cfout.obj
 0002:00017980       ??_C@_1EI@OACEJKEP@?$AAs?$AAt?$AAr?$AAc?$AAp?$AAy?$AA_?$AAs?$AA?$CI?$AAr?$AAe?$AAs?$AAu?$AAl?$AAt@ 000000018008b980     libucrtd:cfout.obj
 0002:000179c8       ??_C@_01GBGANLPD@0@        000000018008b9c8     libucrtd:cfout.obj
 0002:000179d0       ??_C@_1FC@KIECGFMP@?$AAs?$AAt?$AAr?$AAc?$AAp?$AAy?$AA_?$AAs?$AA?$CI?$AAr?$AAe?$AAs?$AAu?$AAl?$AAt@ 000000018008b9d0     libucrtd:cfout.obj
 0002:00017a24       ??_C@_05DNEBIAHO@1?$CDINF@ 000000018008ba24     libucrtd:cfout.obj
 0002:00017a30       ??_C@_1FC@NFPJEIBD@?$AAs?$AAt?$AAr?$AAc?$AAp?$AAy?$AA_?$AAs?$AA?$CI?$AAr?$AAe?$AAs?$AAu?$AAl?$AAt@ 000000018008ba30     libucrtd:cfout.obj
 0002:00017a84       ??_C@_06IMKFLFPG@1?$CDQNAN@ 000000018008ba84     libucrtd:cfout.obj
 0002:00017a90       ??_C@_1FC@DEJHIMLO@?$AAs?$AAt?$AAr?$AAc?$AAp?$AAy?$AA_?$AAs?$AA?$CI?$AAr?$AAe?$AAs?$AAu?$AAl?$AAt@ 000000018008ba90     libucrtd:cfout.obj
 0002:00017ae4       ??_C@_06PGGFOGJG@1?$CDSNAN@ 000000018008bae4     libucrtd:cfout.obj
 0002:00017af0       ??_C@_1FC@KMLHLFPC@?$AAs?$AAt?$AAr?$AAc?$AAp?$AAy?$AA_?$AAs?$AA?$CI?$AAr?$AAe?$AAs?$AAu?$AAl?$AAt@ 000000018008baf0     libucrtd:cfout.obj
 0002:00017b44       ??_C@_05PHHOCPM@1?$CDIND@  000000018008bb44     libucrtd:cfout.obj
 0002:00017b50       ??_C@_1DE@KHKADFOO@?$AAm?$AAa?$AAn?$AAt?$AAi?$AAs?$AAs?$AAa?$AA_?$AAb?$AAu?$AAf?$AAf?$AAe?$AAr@ 000000018008bb50     libucrtd:cfout.obj
 0002:00017b90       ??_C@_1FI@LFKLOPAC@?$AA?$CI?$AA?$CC?$AAu?$AAn?$AAe?$AAx?$AAp?$AAe?$AAc?$AAt?$AAe?$AAd?$AA?5?$AAi?$AAn@ 000000018008bb90     libucrtd:cfout.obj
 0002:00017bf0       ??_C@_1FG@MLHBDPBG@?$AAq?$AAu?$AAo?$AAt?$AAi?$AAe?$AAn?$AAt?$AA?5?$AA?$DM?$AA?5?$AAd?$AAi?$AAg?$AAi@ 000000018008bbf0     libucrtd:cfout.obj
 0002:00017c50       ??_C@_1GC@DFIGBGJI@?$AAm?$AAi?$AAn?$AAk?$AAe?$AAr?$AAn?$AAe?$AAl?$AA?2?$AAc?$AAr?$AAt?$AAs?$AA?2@ 000000018008bc50     libucrtd:_flsbuf.obj
 0002:00017cc0       ??_C@_1HO@MLMGPAFH@?$AA?$CI?$AA?$CC?$AAi?$AAn?$AAc?$AAo?$AAn?$AAs?$AAi?$AAs?$AAt?$AAe?$AAn?$AAt?$AA?5@ 000000018008bcc0     libucrtd:_flsbuf.obj
 0002:00017d40       ??_C@_1BK@FPAMLIDG@?$AAs?$AA?5?$AA?$CB?$AA?$DN?$AA?5?$AAn?$AAu?$AAl?$AAl?$AAp?$AAt?$AAr@ 000000018008bd40     libucrtd:mbstowcs.obj
 0002:00017d60       ??_C@_1GI@KABMHNPH@?$AAm?$AAi?$AAn?$AAk?$AAe?$AAr?$AAn?$AAe?$AAl?$AA?2?$AAc?$AAr?$AAt?$AAs?$AA?2@ 000000018008bd60     libucrtd:mbstowcs.obj
 0002:00017dc8       ??_C@_1CG@JEHFHLNG@?$AA_?$AAm?$AAb?$AAs?$AAt?$AAo?$AAw?$AAc?$AAs?$AA_?$AAl?$AA_?$AAh?$AAe?$AAl@ 000000018008bdc8     libucrtd:mbstowcs.obj
 0002:00017df0       ??_C@_1JM@MEKBACIG@?$AA?$CI?$AAp?$AAw?$AAc?$AAs?$AA?5?$AA?$DN?$AA?$DN?$AA?5?$AAn?$AAu?$AAl?$AAl?$AAp?$AAt@ 000000018008bdf0     libucrtd:mbstowcs.obj
 0002:00017e90       ??_C@_1BM@PHENIGHD@?$AA_?$AAm?$AAb?$AAs?$AAt?$AAo?$AAw?$AAc?$AAs?$AA_?$AAs?$AA_?$AAl@ 000000018008be90     libucrtd:mbstowcs.obj
 0002:00017eb0       ??_C@_1CM@LLECFMFH@?$AAb?$AAu?$AAf?$AAf?$AAe?$AAr?$AAS?$AAi?$AAz?$AAe?$AA?5?$AA?$DM?$AA?$DN?$AA?5?$AAI@ 000000018008beb0     libucrtd:mbstowcs.obj
 0002:00017ee0       ??_C@_1CO@JNPEPJAL@?$AAr?$AAe?$AAt?$AAs?$AAi?$AAz?$AAe?$AA?5?$AA?$DM?$AA?$DN?$AA?5?$AAs?$AAi?$AAz?$AAe@ 000000018008bee0     libucrtd:mbstowcs.obj
 0002:00017f38       ??_C@_1CA@NOKNKDIG@?$AAp?$AAw?$AAc?$AAs?$AA?5?$AA?$CB?$AA?$DN?$AA?5?$AAn?$AAu?$AAl?$AAl?$AAp?$AAt?$AAr@ 000000018008bf38     libucrtd:wcstombs.obj
 0002:00017f60       ??_C@_1GI@EEJDEALP@?$AAm?$AAi?$AAn?$AAk?$AAe?$AAr?$AAn?$AAe?$AAl?$AA?2?$AAc?$AAr?$AAt?$AAs?$AA?2@ 000000018008bf60     libucrtd:wcstombs.obj
 0002:00017fc8       ??_C@_1CG@LLJCAOHF@?$AA_?$AAw?$AAc?$AAs?$AAt?$AAo?$AAm?$AAb?$AAs?$AA_?$AAl?$AA_?$AAh?$AAe?$AAl@ 000000018008bfc8     libucrtd:wcstombs.obj
 0002:00017ff0       ??_C@_1JI@DFNKFCLG@?$AA?$CI?$AAd?$AAs?$AAt?$AA?5?$AA?$CB?$AA?$DN?$AA?5?$AAn?$AAu?$AAl?$AAl?$AAp?$AAt?$AAr@ 000000018008bff0     libucrtd:wcstombs.obj
 0002:00018088       ??_C@_1BM@BDMCLLDL@?$AA_?$AAw?$AAc?$AAs?$AAt?$AAo?$AAm?$AAb?$AAs?$AA_?$AAs?$AA_?$AAl@ 000000018008c088     libucrtd:wcstombs.obj
 0002:000180a8       ??_C@_1CM@KEOGBFLI@?$AAs?$AAi?$AAz?$AAe?$AAI?$AAn?$AAB?$AAy?$AAt?$AAe?$AAs?$AA?5?$AA?$DO?$AA?5?$AAr@ 000000018008c0a8     libucrtd:wcstombs.obj
 0002:000180e0       ??_C@_1GC@CIJNGKLD@?$AAm?$AAi?$AAn?$AAk?$AAe?$AAr?$AAn?$AAe?$AAl?$AA?2?$AAc?$AAr?$AAt?$AAs?$AA?2@ 000000018008c0e0     libucrtd:setmode.obj
 0002:00018148       ??_C@_1CC@ODGEBJBO@?$AAp?$AAM?$AAo?$AAd?$AAe?$AA?5?$AA?$CB?$AA?$DN?$AA?5?$AAn?$AAu?$AAl?$AAl?$AAp?$AAt@ 000000018008c148     libucrtd:setmode.obj
 0002:00018170       ??_C@_1BG@CKGMPOFH@?$AA_?$AAg?$AAe?$AAt?$AA_?$AAf?$AAm?$AAo?$AAd?$AAe@ 000000018008c170     libucrtd:setmode.obj
 0002:00018188       ??_C@_0DA@IEKPAGFB@minkernel?2crts?2ucrt?2src?2appcrt?2@ 000000018008c188     libucrtd:chsize.obj
 0002:00018410       ??_C@_1DG@JNDMIEJL@?$AA?$CI?$AA?$CC?$AAI?$AAn?$AAv?$AAa?$AAl?$AAi?$AAd?$AA?5?$AAi?$AAn?$AAp?$AAu?$AAt@ 000000018008c410     libucrtd:contrlfp.obj
 0002:00018450       ??_C@_1FO@HHLKCIKB@?$AAm?$AAi?$AAn?$AAk?$AAe?$AAr?$AAn?$AAe?$AAl?$AA?2?$AAc?$AAr?$AAt?$AAs?$AA?2@ 000000018008c450     libucrtd:contrlfp.obj
 0002:000184b0       ??_C@_1BK@CDOALEA@?$AA_?$AAc?$AAo?$AAn?$AAt?$AAr?$AAo?$AAl?$AAf?$AAp?$AA_?$AAs@ 000000018008c4b0     libucrtd:contrlfp.obj
 0002:000184d0       ??_C@_1BA@BALFACEM@?$AAC?$AAO?$AAN?$AAO?$AAU?$AAT?$AA$@ 000000018008c4d0     libucrtd:initcon.obj
 0002:000184e0       __log10_256_lead           000000018008c4e0     libucrtd:log10_256_lead_tail_table.obj
 0002:00018cf0       __log10_256_tail           000000018008ccf0     libucrtd:log10_256_lead_tail_table.obj
 0002:00019500       __log_F_inv_qword          000000018008d500     libucrtd:log_f_inv_qword_table.obj
 0002:00019d10       ??_C@_1EK@PDBKILLM@?$AA?$CI?$AAm?$AAa?$AAs?$AAk?$AA?$CG?$AA?$HO?$AA?$CI?$AA_?$AAM?$AAC?$AAW?$AA_?$AAD?$AAN@ 000000018008dd10     libucrtd:ieee.obj
 0002:00019d60       ??_C@_1GC@IEFABLII@?$AAm?$AAi?$AAn?$AAk?$AAe?$AAr?$AAn?$AAe?$AAl?$AA?2?$AAc?$AAr?$AAt?$AAs?$AA?2@ 000000018008dd60     libucrtd:ieee.obj
 0002:00019dd0       ??_7type_info@@6B@         000000018008ddd0     LIBCMTD:std_type_info_static.obj
 0002:00019e40       _load_config_used          000000018008de40     LIBCMTD:loadcfg.obj
 0002:00019f40       _tls_used                  000000018008df40     LIBCMTD:tlssup.obj
 0002:00019f68       ??_R4exception@std@@6B@    000000018008df68     libvcruntimed:frame.obj
 0002:00019f90       ??_R3exception@std@@8      000000018008df90     libvcruntimed:frame.obj
 0002:00019fa8       ??_R2exception@std@@8      000000018008dfa8     libvcruntimed:frame.obj
 0002:00019fb8       ??_R1A@?0A@EA@exception@std@@8 000000018008dfb8     libvcruntimed:frame.obj
 0002:00019fe0       ??_R4bad_exception@std@@6B@ 000000018008dfe0     libvcruntimed:frame.obj
 0002:0001a008       ??_R3bad_exception@std@@8  000000018008e008     libvcruntimed:frame.obj
 0002:0001a020       ??_R2bad_exception@std@@8  000000018008e020     libvcruntimed:frame.obj
 0002:0001a038       ??_R1A@?0A@EA@bad_exception@std@@8 000000018008e038     libvcruntimed:frame.obj
 0002:0001a060       ??_R4type_info@@6B@        000000018008e060     LIBCMTD:std_type_info_static.obj
 0002:0001a088       ??_R3type_info@@8          000000018008e088     LIBCMTD:std_type_info_static.obj
 0002:0001a0a0       ??_R2type_info@@8          000000018008e0a0     LIBCMTD:std_type_info_static.obj
 0002:0001a0b0       ??_R1A@?0A@EA@type_info@@8 000000018008e0b0     LIBCMTD:std_type_info_static.obj
 0002:0001a438       __rtc_iaa                  000000018008e438     LIBCMTD:initsect.obj
 0002:0001a440       __rtc_izz                  000000018008e440     LIBCMTD:initsect.obj
 0002:0001a448       __rtc_taa                  000000018008e448     LIBCMTD:initsect.obj
 0002:0001a450       __rtc_tzz                  000000018008e450     LIBCMTD:initsect.obj
 0002:0001a458       _tls_start                 000000018008e458     LIBCMTD:tlssup.obj
 0002:0001a470       _tls_end                   000000018008e470     LIBCMTD:tlssup.obj
 0002:0001c330       _TI2?AVbad_exception@std@@ 0000000180090330     libvcruntimed:frame.obj
 0002:0001c350       _CTA2?AVbad_exception@std@@ 0000000180090350     libvcruntimed:frame.obj
 0002:0001c368       _CT??_R0?AVbad_exception@std@@@8??0bad_exception@std@@QEAA@AEBV01@@Z24 0000000180090368     libvcruntimed:frame.obj
 0002:0001c390       _CT??_R0?AVexception@std@@@8??0exception@std@@QEAA@AEBV01@@Z24 0000000180090390     libvcruntimed:frame.obj
 0002:0001c460       __IMPORT_DESCRIPTOR_KERNEL32 0000000180090460     kernel32:KERNEL32.dll
 0002:0001c474       __NULL_IMPORT_DESCRIPTOR   0000000180090474     kernel32:KERNEL32.dll
 0003:000000a0       __security_cookie_complement 00000001800910a0     LIBCMTD:gs_cookie.obj
 0003:000000a8       __security_cookie          00000001800910a8     LIBCMTD:gs_cookie.obj
 0003:000000b0       _fltused                   00000001800910b0     LIBCMTD:fltused.obj
 0003:000000b4       __scrt_native_dllmain_reason 00000001800910b4     LIBCMTD:utility.obj
 0003:000000b8       __isa_available            00000001800910b8     LIBCMTD:cpu_disp.obj
 0003:000000bc       __isa_enabled              00000001800910bc     LIBCMTD:cpu_disp.obj
 0003:000000c0       __memcpy_nt_iters          00000001800910c0     LIBCMTD:cpu_disp.obj
 0003:000000e4       _crtDbgFlag                00000001800910e4     libucrtd:debug_heap.obj
 0003:000000e8       _crtBreakAlloc             00000001800910e8     libucrtd:debug_heap.obj
 0003:000000f0       __abort_behavior           00000001800910f0     libucrtd:abort.obj
 0003:00000100       __acrt_initial_locale_data 0000000180091100     libucrtd:nlsdata.obj
 0003:00000258       __acrt_initial_locale_pointers 0000000180091258     libucrtd:nlsdata.obj
 0003:00000268       __acrt_wide_c_locale_string 0000000180091268     libucrtd:nlsdata.obj
 0003:00000270       _iob                       0000000180091270     libucrtd:_file.obj
 0003:00000380       __badioinfo                0000000180091380     libucrtd:ioinit.obj
 0003:000003d0       _lookuptrailbytes          00000001800913d0     libucrtd:read.obj
 0003:000004d0       __acrt_initial_multibyte_data 00000001800914d0     libucrtd:mbctype.obj
 0003:00000a10       _pfnAllocHook              0000000180091a10     libucrtd:debug_heap_hook.obj
 0003:00000a20       _CrtDbgMode                0000000180091a20     libucrtd:dbgrptt.obj
 0003:00000a30       _CrtDbgFile                0000000180091a30     libucrtd:dbgrptt.obj
 0003:00000a48       _crtAssertBusy             0000000180091a48     libucrtd:dbgrptt.obj
 0003:00000a50       _pwctype                   0000000180091a50     libucrtd:ctype.obj
 0003:00000a58       __globallocalestatus       0000000180091a58     libucrtd:glstatus.obj
 0003:00000a60       __acrt_lconv_c             0000000180091a60     libucrtd:localeconv.obj
 0003:00000af8       __acrt_lconv_static_decimal 0000000180091af8     libucrtd:localeconv.obj
 0003:00000afc       __acrt_lconv_static_W_decimal 0000000180091afc     libucrtd:localeconv.obj
 0003:00000b20       ??_R0?AVbad_exception@std@@@8 0000000180091b20     libvcruntimed:frame.obj
 0003:00000b48       ??_R0?AVexception@std@@@8  0000000180091b48     libvcruntimed:frame.obj
 0003:00000b70       ??_R0?AVtype_info@@@8      0000000180091b70     LIBCMTD:std_type_info_static.obj
 0003:00000b90       ?vkGetInstanceProcAddr@@3P6AP6AXXZPEAUVkInstance_T@@PEBD@ZEA 0000000180091b90     pixel_art_demo.obj
 0003:00000b98       ?vkCreateInstance@@3P6A?AW4VkResult@@PEBUVkInstanceCreateInfo@@PEBUVkAllocationCallbacks@@PEAPEAUVkInstance_T@@@ZEA 0000000180091b98     pixel_art_demo.obj
 0003:00000ba0       ?vkEnumerateInstanceExtensionProperties@@3P6A?AW4VkResult@@PEBDPEAIPEAUVkExtensionProperties@@@ZEA 0000000180091ba0     pixel_art_demo.obj
 0003:00000ba8       ?vkEnumerateInstanceLayerProperties@@3P6A?AW4VkResult@@PEAIPEAUVkLayerProperties@@@ZEA 0000000180091ba8     pixel_art_demo.obj
 0003:00000bb0       ?vkDestroyInstance@@3P6AXPEAUVkInstance_T@@PEBUVkAllocationCallbacks@@@ZEA 0000000180091bb0     pixel_art_demo.obj
 0003:00000bb8       ?vkEnumeratePhysicalDevices@@3P6A?AW4VkResult@@PEAUVkInstance_T@@PEAIPEAPEAUVkPhysicalDevice_T@@@ZEA 0000000180091bb8     pixel_art_demo.obj
 0003:00000bc0       ?vkGetPhysicalDeviceProperties@@3P6AXPEAUVkPhysicalDevice_T@@PEAUVkPhysicalDeviceProperties@@@ZEA 0000000180091bc0     pixel_art_demo.obj
 0003:00000bc8       ?vkGetPhysicalDeviceFeatures@@3P6AXPEAUVkPhysicalDevice_T@@PEAUVkPhysicalDeviceFeatures@@@ZEA 0000000180091bc8     pixel_art_demo.obj
 0003:00000bd0       ?vkGetPhysicalDeviceQueueFamilyProperties@@3P6AXPEAUVkPhysicalDevice_T@@PEAIPEAUVkQueueFamilyProperties@@@ZEA 0000000180091bd0     pixel_art_demo.obj
 0003:00000bd8       ?vkCreateDevice@@3P6A?AW4VkResult@@PEAUVkPhysicalDevice_T@@PEBUVkDeviceCreateInfo@@PEBUVkAllocationCallbacks@@PEAPEAUVkDevice_T@@@ZEA 0000000180091bd8     pixel_art_demo.obj
 0003:00000be0       ?vkGetDeviceProcAddr@@3P6AP6AXXZPEAUVkDevice_T@@PEBD@ZEA 0000000180091be0     pixel_art_demo.obj
 0003:00000be8       ?vkEnumerateDeviceExtensionProperties@@3P6A?AW4VkResult@@PEAUVkPhysicalDevice_T@@PEBDPEAIPEAUVkExtensionProperties@@@ZEA 0000000180091be8     pixel_art_demo.obj
 0003:00000bf0       ?vkDestroySurfaceKHR@@3P6AXPEAUVkInstance_T@@PEAUVkSurfaceKHR_T@@PEBUVkAllocationCallbacks@@@ZEA 0000000180091bf0     pixel_art_demo.obj
 0003:00000bf8       ?vkGetPhysicalDeviceSurfaceSupportKHR@@3P6A?AW4VkResult@@PEAUVkPhysicalDevice_T@@IPEAUVkSurfaceKHR_T@@PEAI@ZEA 0000000180091bf8     pixel_art_demo.obj
 0003:00000c00       ?vkGetPhysicalDeviceSurfaceCapabilitiesKHR@@3P6A?AW4VkResult@@PEAUVkPhysicalDevice_T@@PEAUVkSurfaceKHR_T@@PEAUVkSurfaceCapabilitiesKHR@@@ZEA 0000000180091c00     pixel_art_demo.obj
 0003:00000c08       ?vkGetPhysicalDeviceSurfaceFormatsKHR@@3P6A?AW4VkResult@@PEAUVkPhysicalDevice_T@@PEAUVkSurfaceKHR_T@@PEAIPEAUVkSurfaceFormatKHR@@@ZEA 0000000180091c08     pixel_art_demo.obj
 0003:00000c10       ?vkGetPhysicalDeviceSurfacePresentModesKHR@@3P6A?AW4VkResult@@PEAUVkPhysicalDevice_T@@PEAUVkSurfaceKHR_T@@PEAIPEAW4VkPresentModeKHR@@@ZEA 0000000180091c10     pixel_art_demo.obj
 0003:00000c18       ?vkCreateWin32SurfaceKHR@@3P6A?AW4VkResult@@PEAUVkInstance_T@@PEBUVkWin32SurfaceCreateInfoKHR@@PEBUVkAllocationCallbacks@@PEAPEAUVkSurfaceKHR_T@@@ZEA 0000000180091c18     pixel_art_demo.obj
 0003:00000c20       ?vkGetPhysicalDeviceMemoryProperties@@3P6AXPEAUVkPhysicalDevice_T@@PEAUVkPhysicalDeviceMemoryProperties@@@ZEA 0000000180091c20     pixel_art_demo.obj
 0003:00000c28       ?vkGetPhysicalDeviceFormatProperties@@3P6AXPEAUVkPhysicalDevice_T@@W4VkFormat@@PEAUVkFormatProperties@@@ZEA 0000000180091c28     pixel_art_demo.obj
 0003:00000c30       ?vkGetDeviceQueue@@3P6AXPEAUVkDevice_T@@IIPEAPEAUVkQueue_T@@@ZEA 0000000180091c30     pixel_art_demo.obj
 0003:00000c38       ?vkDestroyDevice@@3P6AXPEAUVkDevice_T@@PEBUVkAllocationCallbacks@@@ZEA 0000000180091c38     pixel_art_demo.obj
 0003:00000c40       ?vkDeviceWaitIdle@@3P6A?AW4VkResult@@PEAUVkDevice_T@@@ZEA 0000000180091c40     pixel_art_demo.obj
 0003:00000c48       ?vkQueueWaitIdle@@3P6A?AW4VkResult@@PEAUVkQueue_T@@@ZEA 0000000180091c48     pixel_art_demo.obj
 0003:00000c50       ?vkCreateSwapchainKHR@@3P6A?AW4VkResult@@PEAUVkDevice_T@@PEBUVkSwapchainCreateInfoKHR@@PEBUVkAllocationCallbacks@@PEAPEAUVkSwapchainKHR_T@@@ZEA 0000000180091c50     pixel_art_demo.obj
 0003:00000c58       ?vkDestroySwapchainKHR@@3P6AXPEAUVkDevice_T@@PEAUVkSwapchainKHR_T@@PEBUVkAllocationCallbacks@@@ZEA 0000000180091c58     pixel_art_demo.obj
 0003:00000c60       ?vkGetSwapchainImagesKHR@@3P6A?AW4VkResult@@PEAUVkDevice_T@@PEAUVkSwapchainKHR_T@@PEAIPEAPEAUVkImage_T@@@ZEA 0000000180091c60     pixel_art_demo.obj
 0003:00000c68       ?vkAcquireNextImageKHR@@3P6A?AW4VkResult@@PEAUVkDevice_T@@PEAUVkSwapchainKHR_T@@_KPEAUVkSemaphore_T@@PEAUVkFence_T@@PEAI@ZEA 0000000180091c68     pixel_art_demo.obj
 0003:00000c70       ?vkQueuePresentKHR@@3P6A?AW4VkResult@@PEAUVkQueue_T@@PEBUVkPresentInfoKHR@@@ZEA 0000000180091c70     pixel_art_demo.obj
 0003:00000c78       ?vkCreateSemaphore@@3P6A?AW4VkResult@@PEAUVkDevice_T@@PEBUVkSemaphoreCreateInfo@@PEBUVkAllocationCallbacks@@PEAPEAUVkSemaphore_T@@@ZEA 0000000180091c78     pixel_art_demo.obj
 0003:00000c80       ?vkQueueSubmit@@3P6A?AW4VkResult@@PEAUVkQueue_T@@IPEBUVkSubmitInfo@@PEAUVkFence_T@@@ZEA 0000000180091c80     pixel_art_demo.obj
 0003:00000c88       ?vkCreateCommandPool@@3P6A?AW4VkResult@@PEAUVkDevice_T@@PEBUVkCommandPoolCreateInfo@@PEBUVkAllocationCallbacks@@PEAPEAUVkCommandPool_T@@@ZEA 0000000180091c88     pixel_art_demo.obj
 0003:00000c90       ?vkAllocateCommandBuffers@@3P6A?AW4VkResult@@PEAUVkDevice_T@@PEBUVkCommandBufferAllocateInfo@@PEAPEAUVkCommandBuffer_T@@@ZEA 0000000180091c90     pixel_art_demo.obj
 0003:00000c98       ?vkBeginCommandBuffer@@3P6A?AW4VkResult@@PEAUVkCommandBuffer_T@@PEBUVkCommandBufferBeginInfo@@@ZEA 0000000180091c98     pixel_art_demo.obj
 0003:00000ca0       ?vkCmdPipelineBarrier@@3P6AXPEAUVkCommandBuffer_T@@IIIIPEBUVkMemoryBarrier@@IPEBUVkBufferMemoryBarrier@@IPEBUVkImageMemoryBarrier@@@ZEA 0000000180091ca0     pixel_art_demo.obj
 0003:00000ca8       ?vkCmdClearColorImage@@3P6AXPEAUVkCommandBuffer_T@@PEAUVkImage_T@@W4VkImageLayout@@PEBTVkClearColorValue@@IPEBUVkImageSubresourceRange@@@ZEA 0000000180091ca8     pixel_art_demo.obj
 0003:00000cb0       ?vkEndCommandBuffer@@3P6A?AW4VkResult@@PEAUVkCommandBuffer_T@@@ZEA 0000000180091cb0     pixel_art_demo.obj
 0003:00000cb8       ?vkCreateImageView@@3P6A?AW4VkResult@@PEAUVkDevice_T@@PEBUVkImageViewCreateInfo@@PEBUVkAllocationCallbacks@@PEAPEAUVkImageView_T@@@ZEA 0000000180091cb8     pixel_art_demo.obj
 0003:00000cc0       ?vkCreateRenderPass@@3P6A?AW4VkResult@@PEAUVkDevice_T@@PEBUVkRenderPassCreateInfo@@PEBUVkAllocationCallbacks@@PEAPEAUVkRenderPass_T@@@ZEA 0000000180091cc0     pixel_art_demo.obj
 0003:00000cc8       ?vkCreateFramebuffer@@3P6A?AW4VkResult@@PEAUVkDevice_T@@PEBUVkFramebufferCreateInfo@@PEBUVkAllocationCallbacks@@PEAPEAUVkFramebuffer_T@@@ZEA 0000000180091cc8     pixel_art_demo.obj
 0003:00000cd0       ?vkCreateShaderModule@@3P6A?AW4VkResult@@PEAUVkDevice_T@@PEBUVkShaderModuleCreateInfo@@PEBUVkAllocationCallbacks@@PEAPEAUVkShaderModule_T@@@ZEA 0000000180091cd0     pixel_art_demo.obj
 0003:00000cd8       ?vkCreatePipelineLayout@@3P6A?AW4VkResult@@PEAUVkDevice_T@@PEBUVkPipelineLayoutCreateInfo@@PEBUVkAllocationCallbacks@@PEAPEAUVkPipelineLayout_T@@@ZEA 0000000180091cd8     pixel_art_demo.obj
 0003:00000ce0       ?vkCreateGraphicsPipelines@@3P6A?AW4VkResult@@PEAUVkDevice_T@@PEAUVkPipelineCache_T@@IPEBUVkGraphicsPipelineCreateInfo@@PEBUVkAllocationCallbacks@@PEAPEAUVkPipeline_T@@@ZEA 0000000180091ce0     pixel_art_demo.obj
 0003:00000ce8       ?vkCmdBeginRenderPass@@3P6AXPEAUVkCommandBuffer_T@@PEBUVkRenderPassBeginInfo@@W4VkSubpassContents@@@ZEA 0000000180091ce8     pixel_art_demo.obj
 0003:00000cf0       ?vkCmdBindPipeline@@3P6AXPEAUVkCommandBuffer_T@@W4VkPipelineBindPoint@@PEAUVkPipeline_T@@@ZEA 0000000180091cf0     pixel_art_demo.obj
 0003:00000cf8       ?vkCmdDraw@@3P6AXPEAUVkCommandBuffer_T@@IIII@ZEA 0000000180091cf8     pixel_art_demo.obj
 0003:00000d00       ?vkCmdEndRenderPass@@3P6AXPEAUVkCommandBuffer_T@@@ZEA 0000000180091d00     pixel_art_demo.obj
 0003:00000d08       ?vkCreateFence@@3P6A?AW4VkResult@@PEAUVkDevice_T@@PEBUVkFenceCreateInfo@@PEBUVkAllocationCallbacks@@PEAPEAUVkFence_T@@@ZEA 0000000180091d08     pixel_art_demo.obj
 0003:00000d10       ?vkCreateBuffer@@3P6A?AW4VkResult@@PEAUVkDevice_T@@PEBUVkBufferCreateInfo@@PEBUVkAllocationCallbacks@@PEAPEAUVkBuffer_T@@@ZEA 0000000180091d10     pixel_art_demo.obj
 0003:00000d18       ?vkGetBufferMemoryRequirements@@3P6AXPEAUVkDevice_T@@PEAUVkBuffer_T@@PEAUVkMemoryRequirements@@@ZEA 0000000180091d18     pixel_art_demo.obj
 0003:00000d20       ?vkAllocateMemory@@3P6A?AW4VkResult@@PEAUVkDevice_T@@PEBUVkMemoryAllocateInfo@@PEBUVkAllocationCallbacks@@PEAPEAUVkDeviceMemory_T@@@ZEA 0000000180091d20     pixel_art_demo.obj
 0003:00000d28       ?vkBindBufferMemory@@3P6A?AW4VkResult@@PEAUVkDevice_T@@PEAUVkBuffer_T@@PEAUVkDeviceMemory_T@@_K@ZEA 0000000180091d28     pixel_art_demo.obj
 0003:00000d30       ?vkMapMemory@@3P6A?AW4VkResult@@PEAUVkDevice_T@@PEAUVkDeviceMemory_T@@_K2IPEAPEAX@ZEA 0000000180091d30     pixel_art_demo.obj
 0003:00000d38       ?vkFlushMappedMemoryRanges@@3P6A?AW4VkResult@@PEAUVkDevice_T@@IPEBUVkMappedMemoryRange@@@ZEA 0000000180091d38     pixel_art_demo.obj
 0003:00000d40       ?vkUnmapMemory@@3P6AXPEAUVkDevice_T@@PEAUVkDeviceMemory_T@@@ZEA 0000000180091d40     pixel_art_demo.obj
 0003:00000d48       ?vkCmdSetViewport@@3P6AXPEAUVkCommandBuffer_T@@IIPEBUVkViewport@@@ZEA 0000000180091d48     pixel_art_demo.obj
 0003:00000d50       ?vkCmdSetScissor@@3P6AXPEAUVkCommandBuffer_T@@IIPEBUVkRect2D@@@ZEA 0000000180091d50     pixel_art_demo.obj
 0003:00000d58       ?vkCmdBindVertexBuffers@@3P6AXPEAUVkCommandBuffer_T@@IIPEBQEAUVkBuffer_T@@PEB_K@ZEA 0000000180091d58     pixel_art_demo.obj
 0003:00000d60       ?vkWaitForFences@@3P6A?AW4VkResult@@PEAUVkDevice_T@@IPEBQEAUVkFence_T@@I_K@ZEA 0000000180091d60     pixel_art_demo.obj
 0003:00000d68       ?vkResetFences@@3P6A?AW4VkResult@@PEAUVkDevice_T@@IPEBQEAUVkFence_T@@@ZEA 0000000180091d68     pixel_art_demo.obj
 0003:00000d70       ?vkFreeMemory@@3P6AXPEAUVkDevice_T@@PEAUVkDeviceMemory_T@@PEBUVkAllocationCallbacks@@@ZEA 0000000180091d70     pixel_art_demo.obj
 0003:00000d78       ?vkDestroyBuffer@@3P6AXPEAUVkDevice_T@@PEAUVkBuffer_T@@PEBUVkAllocationCallbacks@@@ZEA 0000000180091d78     pixel_art_demo.obj
 0003:00000d80       ?vkDestroyFence@@3P6AXPEAUVkDevice_T@@PEAUVkFence_T@@PEBUVkAllocationCallbacks@@@ZEA 0000000180091d80     pixel_art_demo.obj
 0003:00000d88       ?vkDestroyFramebuffer@@3P6AXPEAUVkDevice_T@@PEAUVkFramebuffer_T@@PEBUVkAllocationCallbacks@@@ZEA 0000000180091d88     pixel_art_demo.obj
 0003:00000d90       ?vkCmdCopyBuffer@@3P6AXPEAUVkCommandBuffer_T@@PEAUVkBuffer_T@@1IPEBUVkBufferCopy@@@ZEA 0000000180091d90     pixel_art_demo.obj
 0003:00000d98       ?vkCreateImage@@3P6A?AW4VkResult@@PEAUVkDevice_T@@PEBUVkImageCreateInfo@@PEBUVkAllocationCallbacks@@PEAPEAUVkImage_T@@@ZEA 0000000180091d98     pixel_art_demo.obj
 0003:00000da0       ?vkGetImageMemoryRequirements@@3P6AXPEAUVkDevice_T@@PEAUVkImage_T@@PEAUVkMemoryRequirements@@@ZEA 0000000180091da0     pixel_art_demo.obj
 0003:00000da8       ?vkBindImageMemory@@3P6A?AW4VkResult@@PEAUVkDevice_T@@PEAUVkImage_T@@PEAUVkDeviceMemory_T@@_K@ZEA 0000000180091da8     pixel_art_demo.obj
 0003:00000db0       ?vkCreateSampler@@3P6A?AW4VkResult@@PEAUVkDevice_T@@PEBUVkSamplerCreateInfo@@PEBUVkAllocationCallbacks@@PEAPEAUVkSampler_T@@@ZEA 0000000180091db0     pixel_art_demo.obj
 0003:00000db8       ?vkCmdCopyBufferToImage@@3P6AXPEAUVkCommandBuffer_T@@PEAUVkBuffer_T@@PEAUVkImage_T@@W4VkImageLayout@@IPEBUVkBufferImageCopy@@@ZEA 0000000180091db8     pixel_art_demo.obj
 0003:00000dc0       ?vkCreateDescriptorSetLayout@@3P6A?AW4VkResult@@PEAUVkDevice_T@@PEBUVkDescriptorSetLayoutCreateInfo@@PEBUVkAllocationCallbacks@@PEAPEAUVkDescriptorSetLayout_T@@@ZEA 0000000180091dc0     pixel_art_demo.obj
 0003:00000dc8       ?vkCreateDescriptorPool@@3P6A?AW4VkResult@@PEAUVkDevice_T@@PEBUVkDescriptorPoolCreateInfo@@PEBUVkAllocationCallbacks@@PEAPEAUVkDescriptorPool_T@@@ZEA 0000000180091dc8     pixel_art_demo.obj
 0003:00000dd0       ?vkAllocateDescriptorSets@@3P6A?AW4VkResult@@PEAUVkDevice_T@@PEBUVkDescriptorSetAllocateInfo@@PEAPEAUVkDescriptorSet_T@@@ZEA 0000000180091dd0     pixel_art_demo.obj
 0003:00000dd8       ?vkUpdateDescriptorSets@@3P6AXPEAUVkDevice_T@@IPEBUVkWriteDescriptorSet@@IPEBUVkCopyDescriptorSet@@@ZEA 0000000180091dd8     pixel_art_demo.obj
 0003:00000de0       ?vkCmdBindDescriptorSets@@3P6AXPEAUVkCommandBuffer_T@@W4VkPipelineBindPoint@@PEAUVkPipelineLayout_T@@IIPEBQEAUVkDescriptorSet_T@@IPEBI@ZEA 0000000180091de0     pixel_art_demo.obj
 0003:00000de8       ?vkDestroyDescriptorPool@@3P6AXPEAUVkDevice_T@@PEAUVkDescriptorPool_T@@PEBUVkAllocationCallbacks@@@ZEA 0000000180091de8     pixel_art_demo.obj
 0003:00000df0       ?vkDestroyDescriptorSetLayout@@3P6AXPEAUVkDevice_T@@PEAUVkDescriptorSetLayout_T@@PEBUVkAllocationCallbacks@@@ZEA 0000000180091df0     pixel_art_demo.obj
 0003:00000df8       ?vkDestroySampler@@3P6AXPEAUVkDevice_T@@PEAUVkSampler_T@@PEBUVkAllocationCallbacks@@@ZEA 0000000180091df8     pixel_art_demo.obj
 0003:00000e00       ?vkDestroyImage@@3P6AXPEAUVkDevice_T@@PEAUVkImage_T@@PEBUVkAllocationCallbacks@@@ZEA 0000000180091e00     pixel_art_demo.obj
 0003:00000e08       ?vkCmdNextSubpass@@3P6AXPEAUVkCommandBuffer_T@@W4VkSubpassContents@@@ZEA 0000000180091e08     pixel_art_demo.obj
 0003:00000e10       ?vkFreeCommandBuffers@@3P6AXPEAUVkDevice_T@@PEAUVkCommandPool_T@@IPEBQEAUVkCommandBuffer_T@@@ZEA 0000000180091e10     pixel_art_demo.obj
 0003:00000e18       ?vkCmdExecuteCommands@@3P6AXPEAUVkCommandBuffer_T@@IPEBQEAU1@@ZEA 0000000180091e18     pixel_art_demo.obj
 0003:00000e20       ?vkCreateComputePipelines@@3P6A?AW4VkResult@@PEAUVkDevice_T@@PEAUVkPipelineCache_T@@IPEBUVkComputePipelineCreateInfo@@PEBUVkAllocationCallbacks@@PEAPEAUVkPipeline_T@@@ZEA 0000000180091e20     pixel_art_demo.obj
 0003:00000e28       ?vkCmdDispatch@@3P6AXPEAUVkCommandBuffer_T@@III@ZEA 0000000180091e28     pixel_art_demo.obj
 0003:00000e30       ?vkCmdFillBuffer@@3P6AXPEAUVkCommandBuffer_T@@PEAUVkBuffer_T@@_K2I@ZEA 0000000180091e30     pixel_art_demo.obj
 0003:00000e38       ?vkCmdPushConstants@@3P6AXPEAUVkCommandBuffer_T@@PEAUVkPipelineLayout_T@@IIIPEBX@ZEA 0000000180091e38     pixel_art_demo.obj
 0003:00000e40       ?vkDestroyShaderModule@@3P6AXPEAUVkDevice_T@@PEAUVkShaderModule_T@@PEBUVkAllocationCallbacks@@@ZEA 0000000180091e40     pixel_art_demo.obj
 0003:00000e48       ?vkCreateBufferView@@3P6A?AW4VkResult@@PEAUVkDevice_T@@PEBUVkBufferViewCreateInfo@@PEBUVkAllocationCallbacks@@PEAPEAUVkBufferView_T@@@ZEA 0000000180091e48     pixel_art_demo.obj
 0003:00000e50       ?vkCmdBindIndexBuffer@@3P6AXPEAUVkCommandBuffer_T@@PEAUVkBuffer_T@@_KW4VkIndexType@@@ZEA 0000000180091e50     pixel_art_demo.obj
 0003:00000e58       ?vkCmdDrawIndexed@@3P6AXPEAUVkCommandBuffer_T@@IIIHI@ZEA 0000000180091e58     pixel_art_demo.obj
 0003:00000e60       ?vkDestroyImageView@@3P6AXPEAUVkDevice_T@@PEAUVkImageView_T@@PEBUVkAllocationCallbacks@@@ZEA 0000000180091e60     pixel_art_demo.obj
 0003:00000e68       ?vkCreateQueryPool@@3P6A?AW4VkResult@@PEAUVkDevice_T@@PEBUVkQueryPoolCreateInfo@@PEBUVkAllocationCallbacks@@PEAPEAUVkQueryPool_T@@@ZEA 0000000180091e68     pixel_art_demo.obj
 0003:00000e70       ?vkCmdResetQueryPool@@3P6AXPEAUVkCommandBuffer_T@@PEAUVkQueryPool_T@@II@ZEA 0000000180091e70     pixel_art_demo.obj
 0003:00000e78       ?vkGetQueryPoolResults@@3P6A?AW4VkResult@@PEAUVkDevice_T@@PEAUVkQueryPool_T@@II_KPEAX2I@ZEA 0000000180091e78     pixel_art_demo.obj
 0003:00000e80       ?vkCmdWriteTimestamp@@3P6AXPEAUVkCommandBuffer_T@@W4VkPipelineStageFlagBits@@PEAUVkQueryPool_T@@I@ZEA 0000000180091e80     pixel_art_demo.obj
 0003:00000eac       _tls_index                 0000000180091eac     LIBCMTD:tlssup.obj
 0003:00001430       ?__type_info_root_node@@3U__type_info_node@@A 0000000180092430     LIBCMTD:tncleanup.obj
 0003:00001440       ?_OptionsStorage@?1??__local_stdio_printf_options@@9@4_KA 0000000180092440     LIBCMTD:default_local_stdio_options.obj
 0003:00001448       ?_OptionsStorage@?1??__local_stdio_scanf_options@@9@4_KA 0000000180092448     LIBCMTD:default_local_stdio_options.obj
 0003:00001450       __scrt_current_native_startup_state 0000000180092450     LIBCMTD:utility.obj
 0003:00001458       __scrt_native_startup_lock 0000000180092458     LIBCMTD:utility.obj
 0003:00001498       __scrt_debugger_hook_flag  0000000180092498     LIBCMTD:utility_desktop.obj
 0003:0000149c       __favor                    000000018009249c     LIBCMTD:cpu_disp.obj
 0003:000014a0       ?__WinRTOutOfMemoryExceptionCallback@@3P6APEAXXZEA 00000001800924a0     libvcruntimed:ehhelpers.obj
 0003:000014a8       ?pArgList@UnDecorator@@0PEAVReplicator@@EA 00000001800924a8     libvcruntimed:undname.obj
 0003:000014b0       ?pZNameList@UnDecorator@@0PEAVReplicator@@EA 00000001800924b0     libvcruntimed:undname.obj
 0003:000014b8       ?pTemplateArgList@UnDecorator@@0PEAVReplicator@@EA 00000001800924b8     libvcruntimed:undname.obj
 0003:000014c0       ?gName@UnDecorator@@0PEBDEB 00000001800924c0     libvcruntimed:undname.obj
 0003:000014c8       ?name@UnDecorator@@0PEBDEB 00000001800924c8     libvcruntimed:undname.obj
 0003:000014d0       ?disableFlags@UnDecorator@@0KA 00000001800924d0     libvcruntimed:undname.obj
 0003:000014d4       ?fExplicitTemplateParams@UnDecorator@@0_NA 00000001800924d4     libvcruntimed:undname.obj
 0003:000014d5       ?fGetTemplateArgumentList@UnDecorator@@0_NA 00000001800924d5     libvcruntimed:undname.obj
 0003:000014d8       ?m_pGetParameter@UnDecorator@@0P6APEADJ@ZEA 00000001800924d8     libvcruntimed:undname.obj
 0003:000014e0       ?m_CHPENameOffset@UnDecorator@@0KA 00000001800924e0     libvcruntimed:undname.obj
 0003:000014e4       ?m_recursionLevel@UnDecorator@@0KA 00000001800924e4     libvcruntimed:undname.obj
 0003:00001610       __pPurecall                0000000180092610     libvcruntimed:purevirt_data.obj
 0003:00001628       ?c_exit_complete@?1???R<lambda_6e4b09c48022b2350581041d5f6b0c4c>@@QEBA@XZ@4_NA 0000000180092628     libucrtd:exit.obj
 0003:00001738       _environ_table             0000000180092738     libucrtd:environment_initialization.obj
 0003:00001740       _wenviron_table            0000000180092740     libucrtd:environment_initialization.obj
 0003:00001748       __dcrt_initial_wide_environment 0000000180092748     libucrtd:environment_initialization.obj
 0003:00001750       __dcrt_initial_narrow_environment 0000000180092750     libucrtd:environment_initialization.obj
 0003:00001758       __acrt_atexit_table        0000000180092758     libucrtd:onexit.obj
 0003:00001770       __acrt_at_quick_exit_table 0000000180092770     libucrtd:onexit.obj
 0003:000017b8       _pfnDumpClient             00000001800927b8     libucrtd:debug_heap.obj
 0003:000017d0       __acrt_locale_changed_data 00000001800927d0     libucrtd:wsetlocale.obj
 0003:000017d8       __acrt_current_locale_data 00000001800927d8     libucrtd:nlsdata.obj
 0003:000017e0       _nstream                   00000001800927e0     libucrtd:_file.obj
 0003:000017e8       __piob                     00000001800927e8     libucrtd:_file.obj
 0003:000017f0       _cflush                    00000001800927f0     libucrtd:_file.obj
 0003:00001800       __pioinfo                  0000000180092800     libucrtd:ioinit.obj
 0003:00001c00       _nhandle                   0000000180092c00     libucrtd:ioinit.obj
 0003:00002260       __fma3_is_available        0000000180093260     libucrtd:fma3_available.obj
 0003:00002264       __use_fma3_lib             0000000180093264     libucrtd:fma3_available.obj
 0003:000024b0       _mbctype                   00000001800934b0     libucrtd:mbctype.obj
 0003:000024b8       _mbcasemap                 00000001800934b8     libucrtd:mbctype.obj
 0003:000024c0       __acrt_current_multibyte_data 00000001800934c0     libucrtd:mbctype.obj
 0003:000024d0       _pgmptr                    00000001800934d0     libucrtd:argv_data.obj
 0003:000024d8       __argc                     00000001800934d8     libucrtd:argv_data.obj
 0003:000024e0       __argv                     00000001800934e0     libucrtd:argv_data.obj
 0003:000024e8       __wargv                    00000001800934e8     libucrtd:argv_data.obj
 0003:000024f0       _acmdln                    00000001800934f0     libucrtd:argv_data.obj
 0003:000024f8       _wcmdln                    00000001800934f8     libucrtd:argv_data.obj
 0003:000026b0       __acrt_heap                00000001800936b0     libucrtd:heap_handle.obj
 0003:000026c8       __acrt_stdout_buffer       00000001800936c8     libucrtd:_sftbuf.obj
 0003:000026d0       __acrt_stderr_buffer       00000001800936d0     libucrtd:_sftbuf.obj
 0003:000026f0       _pfnReportHook             00000001800936f0     libucrtd:dbgrptt.obj
 0003:000026f8       _pReportHookList           00000001800936f8     libucrtd:dbgrptt.obj
 0003:00002700       _pReportHookListW          0000000180093700     libucrtd:dbgrptt.obj
 0003:00002708       __acrt_lconv_static_null   0000000180093708     libucrtd:localeconv.obj
 0003:0000270c       __acrt_lconv_static_W_null 000000018009370c     libucrtd:localeconv.obj
 0003:00002710       _commode                   0000000180093710     libucrtd:ncommode.obj
 0003:00002714       _umaskval                  0000000180093714     libucrtd:umask.obj
 0003:00002720       _fmode                     0000000180093720     libucrtd:txtmode.obj
 0003:00002730       __scrt_ucrt_dll_is_in_use  0000000180093730     <common>
 0003:00002738       __dyn_tls_init_callback    0000000180093738     <common>

 entry point at        0001:00027f10

 Static symbols

 0000:fff66000       .debug$S                   0000000180000000     kernel32:KERNEL32.dll
 0000:fff66000       .debug$S                   0000000180000000     kernel32:KERNEL32.dll
 0000:fff66000       .debug$S                   0000000180000000     kernel32:KERNEL32.dll
 0000:fff66000       .debug$S                   0000000180000000     kernel32:KERNEL32.dll
 0000:fff66000       .debug$S                   0000000180000000     kernel32:KERNEL32.dll
 0000:fff66000       .debug$S                   0000000180000000     kernel32:KERNEL32.dll
 0000:fff66000       .debug$S                   0000000180000000     kernel32:KERNEL32.dll
 0000:fff66000       .debug$S                   0000000180000000     kernel32:KERNEL32.dll
 0000:fff66000       .debug$S                   0000000180000000     kernel32:KERNEL32.dll
 0000:fff66000       .debug$S                   0000000180000000     pixel_art_demo.exp
 0000:fff66000       .debug$S                   0000000180000000     kernel32:KERNEL32.dll
 0000:fff66000       .debug$S                   0000000180000000     kernel32:KERNEL32.dll
 0000:fff66000       .debug$S                   0000000180000000     kernel32:KERNEL32.dll
 0000:fff66000       .debug$S                   0000000180000000     kernel32:KERNEL32.dll
 0000:fff66000       .debug$S                   0000000180000000     kernel32:KERNEL32.dll
 0000:fff66000       .debug$S                   0000000180000000     kernel32:KERNEL32.dll
 0000:fff66000       .debug$S                   0000000180000000     kernel32:KERNEL32.dll
 0000:fff66000       .debug$S                   0000000180000000     kernel32:KERNEL32.dll
 0000:fff66000       .debug$S                   0000000180000000     kernel32:KERNEL32.dll
 0000:fff66000       .debug$S                   0000000180000000     kernel32:KERNEL32.dll
 0000:fff66000       .debug$S                   0000000180000000     kernel32:KERNEL32.dll
 0000:fff66000       .debug$S                   0000000180000000     kernel32:KERNEL32.dll
 0000:fff66000       .debug$S                   0000000180000000     kernel32:KERNEL32.dll
 0000:fff66000       .debug$S                   0000000180000000     kernel32:KERNEL32.dll
 0000:fff66000       .debug$S                   0000000180000000     kernel32:KERNEL32.dll
 0000:fff66000       .debug$S                   0000000180000000     kernel32:KERNEL32.dll
 0000:fff66000       .debug$S                   0000000180000000     kernel32:KERNEL32.dll
 0000:fff66000       .debug$S                   0000000180000000     kernel32:KERNEL32.dll
 0000:fff66000       .debug$S                   0000000180000000     kernel32:KERNEL32.dll
 0000:fff66000       .debug$S                   0000000180000000     kernel32:KERNEL32.dll
 0000:fff66000       .debug$S                   0000000180000000     kernel32:KERNEL32.dll
 0000:fff66000       .debug$S                   0000000180000000     kernel32:KERNEL32.dll
 0000:fff66000       .debug$S                   0000000180000000     kernel32:KERNEL32.dll
 0000:fff66000       .debug$S                   0000000180000000     kernel32:KERNEL32.dll
 0000:fff66000       .debug$S                   0000000180000000     kernel32:KERNEL32.dll
 0000:fff66000       .debug$S                   0000000180000000     kernel32:KERNEL32.dll
 0000:fff66000       .debug$S                   0000000180000000     kernel32:KERNEL32.dll
 0000:fff66000       .debug$S                   0000000180000000     kernel32:KERNEL32.dll
 0000:fff66000       .debug$S                   0000000180000000     kernel32:KERNEL32.dll
 0000:fff66000       .debug$S                   0000000180000000     kernel32:KERNEL32.dll
 0000:fff66000       .debug$S                   0000000180000000     kernel32:KERNEL32.dll
 0000:fff66000       .debug$S                   0000000180000000     kernel32:KERNEL32.dll
 0000:fff66000       .debug$S                   0000000180000000     kernel32:KERNEL32.dll
 0000:fff66000       .debug$S                   0000000180000000     kernel32:KERNEL32.dll
 0000:fff66000       .debug$S                   0000000180000000     kernel32:KERNEL32.dll
 0000:fff66000       .debug$S                   0000000180000000     kernel32:KERNEL32.dll
 0000:fff66000       .debug$S                   0000000180000000     kernel32:KERNEL32.dll
 0000:fff66000       .debug$S                   0000000180000000     kernel32:KERNEL32.dll
 0000:fff66000       .debug$S                   0000000180000000     kernel32:KERNEL32.dll
 0000:fff66000       .debug$S                   0000000180000000     kernel32:KERNEL32.dll
 0000:fff66000       .debug$S                   0000000180000000     kernel32:KERNEL32.dll
 0000:fff66000       .debug$S                   0000000180000000     kernel32:KERNEL32.dll
 0000:fff66000       .debug$S                   0000000180000000     kernel32:KERNEL32.dll
 0000:fff66000       .debug$S                   0000000180000000     kernel32:KERNEL32.dll
 0000:fff66000       .debug$S                   0000000180000000     kernel32:KERNEL32.dll
 0000:fff66000       .debug$S                   0000000180000000     kernel32:KERNEL32.dll
 0000:fff66000       .debug$S                   0000000180000000     kernel32:KERNEL32.dll
 0000:fff66000       .debug$S                   0000000180000000     kernel32:KERNEL32.dll
 0000:fff66000       .debug$S                   0000000180000000     kernel32:KERNEL32.dll
 0000:fff66000       .debug$S                   0000000180000000     kernel32:KERNEL32.dll
 0000:fff66000       .debug$S                   0000000180000000     kernel32:KERNEL32.dll
 0000:fff66000       .debug$S                   0000000180000000     kernel32:KERNEL32.dll
 0000:fff66000       .debug$S                   0000000180000000     kernel32:KERNEL32.dll
 0000:fff66000       .debug$S                   0000000180000000     kernel32:KERNEL32.dll
 0000:fff66000       .debug$S                   0000000180000000     kernel32:KERNEL32.dll
 0000:fff66000       .debug$S                   0000000180000000     kernel32:KERNEL32.dll
 0000:fff66000       .debug$S                   0000000180000000     kernel32:KERNEL32.dll
 0000:fff66000       .debug$S                   0000000180000000     kernel32:KERNEL32.dll
 0000:fff66000       .debug$S                   0000000180000000     kernel32:KERNEL32.dll
 0000:fff66000       .debug$S                   0000000180000000     kernel32:KERNEL32.dll
 0000:fff66000       .debug$S                   0000000180000000     kernel32:KERNEL32.dll
 0000:fff66000       .debug$S                   0000000180000000     kernel32:KERNEL32.dll
 0000:fff66000       .debug$S                   0000000180000000     kernel32:KERNEL32.dll
 0000:fff66000       .debug$S                   0000000180000000     kernel32:KERNEL32.dll
 0000:fff66000       .debug$S                   0000000180000000     kernel32:KERNEL32.dll
 0000:fff66000       .debug$S                   0000000180000000     kernel32:KERNEL32.dll
 0000:fff66000       .debug$S                   0000000180000000     kernel32:KERNEL32.dll
 0000:fff66000       .debug$S                   0000000180000000     kernel32:KERNEL32.dll
 0000:fff66000       .debug$S                   0000000180000000     kernel32:KERNEL32.dll
 0000:fff66000       .debug$S                   0000000180000000     kernel32:KERNEL32.dll
 0000:fff66000       .debug$S                   0000000180000000     kernel32:KERNEL32.dll
 0000:fff66000       .debug$S                   0000000180000000     kernel32:KERNEL32.dll
 0000:fff66000       .debug$S                   0000000180000000     kernel32:KERNEL32.dll
 0000:fff66000       .debug$S                   0000000180000000     kernel32:KERNEL32.dll
 0000:fff66000       .debug$S                   0000000180000000     kernel32:KERNEL32.dll
 0000:fff66000       .debug$S                   0000000180000000     kernel32:KERNEL32.dll
 0000:fff66000       .debug$S                   0000000180000000     kernel32:KERNEL32.dll
 0000:fff66000       .debug$S                   0000000180000000     kernel32:KERNEL32.dll
 0000:fff66000       .debug$S                   0000000180000000     kernel32:KERNEL32.dll
 0000:fff66000       .debug$S                   0000000180000000     kernel32:KERNEL32.dll
 0000:fff66000       .debug$S                   0000000180000000     kernel32:KERNEL32.dll
 0000:fff66000       .debug$S                   0000000180000000     kernel32:KERNEL32.dll
 0000:fff66000       .debug$S                   0000000180000000     kernel32:KERNEL32.dll
 0001:00000000       ?VkCheckResult@@YAXW4VkResult@@@Z 0000000180001000 f   pixel_art_demo.obj
 0001:000015e0       ?stbi__cpuid3@@YAHXZ       00000001800025e0 f   pixel_art_demo.obj
 0001:00001640       ?stbi__sse2_available@@YAHXZ 0000000180002640 f   pixel_art_demo.obj
 0001:00001680       ?stbi__refill_buffer@@YAXPEAUstbi__context@@@Z 0000000180002680 f   pixel_art_demo.obj
 0001:00001770       ?stbi__start_mem@@YAXPEAUstbi__context@@PEBEH@Z 0000000180002770 f   pixel_art_demo.obj
 0001:00001810       ?stbi__start_callbacks@@YAXPEAUstbi__context@@PEAUstbi_io_callbacks@@PEAX@Z 0000000180002810 f   pixel_art_demo.obj
 0001:000018d0       ?stbi__stdio_read@@YAHPEAXPEADH@Z 00000001800028d0 f   pixel_art_demo.obj
 0001:00001910       ?stbi__stdio_skip@@YAXPEAXH@Z 0000000180002910 f   pixel_art_demo.obj
 0001:00001960       ?stbi__stdio_eof@@YAHPEAX@Z 0000000180002960 f   pixel_art_demo.obj
 0001:000019b0       ?stbi__start_file@@YAXPEAUstbi__context@@PEAU_iobuf@@@Z 00000001800029b0 f   pixel_art_demo.obj
 0001:000019e0       ?stbi__rewind@@YAXPEAUstbi__context@@@Z 00000001800029e0 f   pixel_art_demo.obj
 0001:00001a20       ?stbi__jpeg_test@@YAHPEAUstbi__context@@@Z 0000000180002a20 f   pixel_art_demo.obj
 0001:00001a90       ?stbi__jpeg_load@@YAPEAXPEAUstbi__context@@PEAH11HPEAUstbi__result_info@@@Z 0000000180002a90 f   pixel_art_demo.obj
 0001:00001b10       ?stbi__jpeg_info@@YAHPEAUstbi__context@@PEAH11@Z 0000000180002b10 f   pixel_art_demo.obj
 0001:00001b80       ?stbi__png_test@@YAHPEAUstbi__context@@@Z 0000000180002b80 f   pixel_art_demo.obj
 0001:00001bb0       ?stbi__png_load@@YAPEAXPEAUstbi__context@@PEAH11HPEAUstbi__result_info@@@Z 0000000180002bb0 f   pixel_art_demo.obj
 0001:00001c20       ?stbi__png_info@@YAHPEAUstbi__context@@PEAH11@Z 0000000180002c20 f   pixel_art_demo.obj
 0001:00001c70       ?stbi__png_is16@@YAHPEAUstbi__context@@@Z 0000000180002c70 f   pixel_art_demo.obj
 0001:00001cd0       ?stbi__bmp_test@@YAHPEAUstbi__context@@@Z 0000000180002cd0 f   pixel_art_demo.obj
 0001:00001d00       ?stbi__bmp_load@@YAPEAXPEAUstbi__context@@PEAH11HPEAUstbi__result_info@@@Z 0000000180002d00 f   pixel_art_demo.obj
 0001:00002f30       ?stbi__bmp_info@@YAHPEAUstbi__context@@PEAH11@Z 0000000180003f30 f   pixel_art_demo.obj
 0001:00003030       ?stbi__tga_test@@YAHPEAUstbi__context@@@Z 0000000180004030 f   pixel_art_demo.obj
 0001:000031d0       ?stbi__tga_load@@YAPEAXPEAUstbi__context@@PEAH11HPEAUstbi__result_info@@@Z 00000001800041d0 f   pixel_art_demo.obj
 0001:00003c50       ?stbi__tga_info@@YAHPEAUstbi__context@@PEAH11@Z 0000000180004c50 f   pixel_art_demo.obj
 0001:00003ec0       ?stbi__psd_test@@YAHPEAUstbi__context@@@Z 0000000180004ec0 f   pixel_art_demo.obj
 0001:00003f10       ?stbi__psd_load@@YAPEAXPEAUstbi__context@@PEAH11HPEAUstbi__result_info@@H@Z 0000000180004f10 f   pixel_art_demo.obj
 0001:00004ab0       ?stbi__psd_info@@YAHPEAUstbi__context@@PEAH11@Z 0000000180005ab0 f   pixel_art_demo.obj
 0001:00004c00       ?stbi__psd_is16@@YAHPEAUstbi__context@@@Z 0000000180005c00 f   pixel_art_demo.obj
 0001:00004cd0       ?stbi__hdr_test@@YAHPEAUstbi__context@@@Z 0000000180005cd0 f   pixel_art_demo.obj
 0001:00004d30       ?stbi__hdr_load@@YAPEAMPEAUstbi__context@@PEAH11HPEAUstbi__result_info@@@Z 0000000180005d30 f   pixel_art_demo.obj
 0001:00005690       ?stbi__hdr_info@@YAHPEAUstbi__context@@PEAH11@Z 0000000180006690 f   pixel_art_demo.obj
 0001:000058d0       ?stbi__pic_test@@YAHPEAUstbi__context@@@Z 00000001800068d0 f   pixel_art_demo.obj
 0001:00005900       ?stbi__pic_load@@YAPEAXPEAUstbi__context@@PEAH11HPEAUstbi__result_info@@@Z 0000000180006900 f   pixel_art_demo.obj
 0001:00005b90       ?stbi__pic_info@@YAHPEAUstbi__context@@PEAH11@Z 0000000180006b90 f   pixel_art_demo.obj
 0001:00005e20       ?stbi__gif_test@@YAHPEAUstbi__context@@@Z 0000000180006e20 f   pixel_art_demo.obj
 0001:00005e50       ?stbi__gif_load@@YAPEAXPEAUstbi__context@@PEAH11HPEAUstbi__result_info@@@Z 0000000180006e50 f   pixel_art_demo.obj
 0001:00005fa0       ?stbi__load_gif_main@@YAPEAXPEAUstbi__context@@PEAPEAHPEAH222H@Z 0000000180006fa0 f   pixel_art_demo.obj
 0001:00006350       ?stbi__gif_info@@YAHPEAUstbi__context@@PEAH11@Z 0000000180007350 f   pixel_art_demo.obj
 0001:00006390       ?stbi__pnm_test@@YAHPEAUstbi__context@@@Z 0000000180007390 f   pixel_art_demo.obj
 0001:00006400       ?stbi__pnm_load@@YAPEAXPEAUstbi__context@@PEAH11HPEAUstbi__result_info@@@Z 0000000180007400 f   pixel_art_demo.obj
 0001:00006640       ?stbi__pnm_info@@YAHPEAUstbi__context@@PEAH11@Z 0000000180007640 f   pixel_art_demo.obj
 0001:000067b0       ?stbi__err@@YAHPEBD@Z      00000001800077b0 f   pixel_art_demo.obj
 0001:000067f0       ?stbi__malloc@@YAPEAX_K@Z  00000001800077f0 f   pixel_art_demo.obj
 0001:00006810       ?stbi__addsizes_valid@@YAHHH@Z 0000000180007810 f   pixel_art_demo.obj
 0001:00006860       ?stbi__mul2sizes_valid@@YAHHH@Z 0000000180007860 f   pixel_art_demo.obj
 0001:000068c0       ?stbi__mad2sizes_valid@@YAHHHH@Z 00000001800078c0 f   pixel_art_demo.obj
 0001:00006920       ?stbi__mad3sizes_valid@@YAHHHHH@Z 0000000180007920 f   pixel_art_demo.obj
 0001:000069a0       ?stbi__mad4sizes_valid@@YAHHHHHH@Z 00000001800079a0 f   pixel_art_demo.obj
 0001:00006a40       ?stbi__malloc_mad2@@YAPEAXHHH@Z 0000000180007a40 f   pixel_art_demo.obj
 0001:00006a90       ?stbi__malloc_mad3@@YAPEAXHHHH@Z 0000000180007a90 f   pixel_art_demo.obj
 0001:00006af0       ?stbi__malloc_mad4@@YAPEAXHHHHH@Z 0000000180007af0 f   pixel_art_demo.obj
 0001:00006b60       ?stbi__ldr_to_hdr@@YAPEAMPEAEHHH@Z 0000000180007b60 f   pixel_art_demo.obj
 0001:00006d40       ?stbi__hdr_to_ldr@@YAPEAEPEAMHHH@Z 0000000180007d40 f   pixel_art_demo.obj
 0001:00006f80       ?stbi__load_main@@YAPEAXPEAUstbi__context@@PEAH11HPEAUstbi__result_info@@H@Z 0000000180007f80 f   pixel_art_demo.obj
 0001:000072c0       ?stbi__convert_16_to_8@@YAPEAEPEAGHHH@Z 00000001800082c0 f   pixel_art_demo.obj
 0001:00007390       ?stbi__convert_8_to_16@@YAPEAGPEAEHHH@Z 0000000180008390 f   pixel_art_demo.obj
 0001:00007470       ?stbi__vertical_flip@@YAXPEAXHHH@Z 0000000180008470 f   pixel_art_demo.obj
 0001:00007610       ?stbi__vertical_flip_slices@@YAXPEAXHHHH@Z 0000000180008610 f   pixel_art_demo.obj
 0001:000076a0       ?stbi__load_and_postprocess_8bit@@YAPEAEPEAUstbi__context@@PEAH11H@Z 00000001800086a0 f   pixel_art_demo.obj
 0001:00007870       ?stbi__load_and_postprocess_16bit@@YAPEAGPEAUstbi__context@@PEAH11H@Z 0000000180008870 f   pixel_art_demo.obj
 0001:00007a50       ?stbi__float_postprocess@@YAXPEAMPEAH11H@Z 0000000180008a50 f   pixel_art_demo.obj
 0001:00007b20       ?stbi__fopen@@YAPEAU_iobuf@@PEBD0@Z 0000000180008b20 f   pixel_art_demo.obj
 0001:00007b60       ?stbi__loadf_main@@YAPEAMPEAUstbi__context@@PEAH11H@Z 0000000180008b60 f   pixel_art_demo.obj
 0001:00007cd0       ?stbi__get8@@YAEPEAUstbi__context@@@Z 0000000180008cd0 f   pixel_art_demo.obj
 0001:00007d80       ?stbi__at_eof@@YAHPEAUstbi__context@@@Z 0000000180008d80 f   pixel_art_demo.obj
 0001:00007e00       ?stbi__skip@@YAXPEAUstbi__context@@H@Z 0000000180008e00 f   pixel_art_demo.obj
 0001:00007ee0       ?stbi__getn@@YAHPEAUstbi__context@@PEAEH@Z 0000000180008ee0 f   pixel_art_demo.obj
 0001:00008040       ?stbi__get16be@@YAHPEAUstbi__context@@@Z 0000000180009040 f   pixel_art_demo.obj
 0001:00008090       ?stbi__get32be@@YAIPEAUstbi__context@@@Z 0000000180009090 f   pixel_art_demo.obj
 0001:000080d0       ?stbi__get16le@@YAHPEAUstbi__context@@@Z 00000001800090d0 f   pixel_art_demo.obj
 0001:00008110       ?stbi__get32le@@YAIPEAUstbi__context@@@Z 0000000180009110 f   pixel_art_demo.obj
 0001:00008150       ?stbi__compute_y@@YAEHHH@Z 0000000180009150 f   pixel_art_demo.obj
 0001:00008180       ?stbi__convert_format@@YAPEAEPEAEHHII@Z 0000000180009180 f   pixel_art_demo.obj
 0001:00008b7c       $LN66                      0000000180009b7c     pixel_art_demo.obj
 0001:00008bf0       ?stbi__compute_y_16@@YAGHHH@Z 0000000180009bf0 f   pixel_art_demo.obj
 0001:00008c20       ?stbi__convert_format16@@YAPEAGPEAGHHII@Z 0000000180009c20 f   pixel_art_demo.obj
 0001:00009650       $LN66                      000000018000a650     pixel_art_demo.obj
 0001:000096c0       ?stbi__build_huffman@@YAHPEAUstbi__huffman@@PEAH@Z 000000018000a6c0 f   pixel_art_demo.obj
 0001:00009950       ?stbi__build_fast_ac@@YAXPEAFPEAUstbi__huffman@@@Z 000000018000a950 f   pixel_art_demo.obj
 0001:00009ad0       ?stbi__grow_buffer_unsafe@@YAXPEAUstbi__jpeg@@@Z 000000018000aad0 f   pixel_art_demo.obj
 0001:00009be0       ?stbi__jpeg_huff_decode@@YAHPEAUstbi__jpeg@@PEAUstbi__huffman@@@Z 000000018000abe0 f   pixel_art_demo.obj
 0001:00009e80       ?stbi__extend_receive@@YAHPEAUstbi__jpeg@@H@Z 000000018000ae80 f   pixel_art_demo.obj
 0001:00009f80       ?stbi__jpeg_get_bits@@YAHPEAUstbi__jpeg@@H@Z 000000018000af80 f   pixel_art_demo.obj
 0001:0000a040       ?stbi__jpeg_get_bit@@YAHPEAUstbi__jpeg@@@Z 000000018000b040 f   pixel_art_demo.obj
 0001:0000a0c0       ?stbi__jpeg_decode_block@@YAHPEAUstbi__jpeg@@QEAFPEAUstbi__huffman@@2PEAFHPEAG@Z 000000018000b0c0 f   pixel_art_demo.obj
 0001:0000a3b0       ?stbi__jpeg_decode_block_prog_dc@@YAHPEAUstbi__jpeg@@QEAFPEAUstbi__huffman@@H@Z 000000018000b3b0 f   pixel_art_demo.obj
 0001:0000a530       ?stbi__jpeg_decode_block_prog_ac@@YAHPEAUstbi__jpeg@@QEAFPEAUstbi__huffman@@PEAF@Z 000000018000b530 f   pixel_art_demo.obj
 0001:0000ab80       ?stbi__clamp@@YAEH@Z       000000018000bb80 f   pixel_art_demo.obj
 0001:0000abc0       ?stbi__idct_block@@YAXPEAEHQEAF@Z 000000018000bbc0 f   pixel_art_demo.obj
 0001:0000b670       ?stbi__idct_simd@@YAXPEAEHQEAF@Z 000000018000c670 f   pixel_art_demo.obj
 0001:0000e180       ?stbi__get_marker@@YAEPEAUstbi__jpeg@@@Z 000000018000f180 f   pixel_art_demo.obj
 0001:0000e210       ?stbi__jpeg_reset@@YAXPEAUstbi__jpeg@@@Z 000000018000f210 f   pixel_art_demo.obj
 0001:0000e310       ?stbi__parse_entropy_coded_data@@YAHPEAUstbi__jpeg@@@Z 000000018000f310 f   pixel_art_demo.obj
 0001:0000ef70       ?stbi__jpeg_dequantize@@YAXPEAFPEAG@Z 000000018000ff70 f   pixel_art_demo.obj
 0001:0000efd0       ?stbi__jpeg_finish@@YAXPEAUstbi__jpeg@@@Z 000000018000ffd0 f   pixel_art_demo.obj
 0001:0000f1a0       ?stbi__process_marker@@YAHPEAUstbi__jpeg@@H@Z 00000001800101a0 f   pixel_art_demo.obj
 0001:0000f860       ?stbi__process_scan_header@@YAHPEAUstbi__jpeg@@@Z 0000000180010860 f   pixel_art_demo.obj
 0001:0000fba0       ?stbi__free_jpeg_components@@YAHPEAUstbi__jpeg@@HH@Z 0000000180010ba0 f   pixel_art_demo.obj
 0001:0000fd10       ?stbi__process_frame_header@@YAHPEAUstbi__jpeg@@H@Z 0000000180010d10 f   pixel_art_demo.obj
 0001:00010590       ?stbi__decode_jpeg_header@@YAHPEAUstbi__jpeg@@H@Z 0000000180011590 f   pixel_art_demo.obj
 0001:000106f0       ?stbi__decode_jpeg_image@@YAHPEAUstbi__jpeg@@@Z 00000001800116f0 f   pixel_art_demo.obj
 0001:000108e0       ?resample_row_1@@YAPEAEPEAE00HH@Z 00000001800118e0 f   pixel_art_demo.obj
 0001:00010900       ?stbi__resample_row_v_2@@YAPEAEPEAE00HH@Z 0000000180011900 f   pixel_art_demo.obj
 0001:00010980       ?stbi__resample_row_h_2@@YAPEAEPEAE00HH@Z 0000000180011980 f   pixel_art_demo.obj
 0001:00010b60       ?stbi__resample_row_hv_2@@YAPEAEPEAE00HH@Z 0000000180011b60 f   pixel_art_demo.obj
 0001:00010cf0       ?stbi__resample_row_hv_2_simd@@YAPEAEPEAE00HH@Z 0000000180011cf0 f   pixel_art_demo.obj
 0001:00011360       ?stbi__resample_row_generic@@YAPEAEPEAE00HH@Z 0000000180012360 f   pixel_art_demo.obj
 0001:000113f0       ?stbi__YCbCr_to_RGB_row@@YAXPEAEPEBE11HH@Z 00000001800123f0 f   pixel_art_demo.obj
 0001:000115c0       ?stbi__YCbCr_to_RGB_simd@@YAXPEAEPEBE11HH@Z 00000001800125c0 f   pixel_art_demo.obj
 0001:00011d90       ?stbi__setup_jpeg@@YAXPEAUstbi__jpeg@@@Z 0000000180012d90 f   pixel_art_demo.obj
 0001:00011e20       ?stbi__cleanup_jpeg@@YAXPEAUstbi__jpeg@@@Z 0000000180012e20 f   pixel_art_demo.obj
 0001:00011e50       ?stbi__blinn_8x8@@YAEEE@Z  0000000180012e50 f   pixel_art_demo.obj
 0001:00011e90       ?load_jpeg_image@@YAPEAEPEAUstbi__jpeg@@PEAH11H@Z 0000000180012e90 f   pixel_art_demo.obj
 0001:00013020       ?stbi__jpeg_info_raw@@YAHPEAUstbi__jpeg@@PEAH11@Z 0000000180014020 f   pixel_art_demo.obj
 0001:000130e0       ?stbi__bitreverse16@@YAHH@Z 00000001800140e0 f   pixel_art_demo.obj
 0001:00013170       ?stbi__bit_reverse@@YAHHH@Z 0000000180014170 f   pixel_art_demo.obj
 0001:000131c0       ?stbi__zbuild_huffman@@YAHPEAUstbi__zhuffman@@PEBEH@Z 00000001800141c0 f   pixel_art_demo.obj
 0001:00013550       ?stbi__zeof@@YAHPEAUstbi__zbuf@@@Z 0000000180014550 f   pixel_art_demo.obj
 0001:00013590       ?stbi__zget8@@YAEPEAUstbi__zbuf@@@Z 0000000180014590 f   pixel_art_demo.obj
 0001:000135f0       ?stbi__fill_bits@@YAXPEAUstbi__zbuf@@@Z 00000001800145f0 f   pixel_art_demo.obj
 0001:00013690       ?stbi__zreceive@@YAIPEAUstbi__zbuf@@H@Z 0000000180014690 f   pixel_art_demo.obj
 0001:00013730       ?stbi__zhuffman_decode_slowpath@@YAHPEAUstbi__zbuf@@PEAUstbi__zhuffman@@@Z 0000000180014730 f   pixel_art_demo.obj
 0001:00013860       ?stbi__zhuffman_decode@@YAHPEAUstbi__zbuf@@PEAUstbi__zhuffman@@@Z 0000000180014860 f   pixel_art_demo.obj
 0001:00013930       ?stbi__zexpand@@YAHPEAUstbi__zbuf@@PEADH@Z 0000000180014930 f   pixel_art_demo.obj
 0001:00013a80       ?stbi__parse_huffman_block@@YAHPEAUstbi__zbuf@@@Z 0000000180014a80 f   pixel_art_demo.obj
 0001:00013d50       ?stbi__compute_huffman_codes@@YAHPEAUstbi__zbuf@@@Z 0000000180014d50 f   pixel_art_demo.obj
 0001:00014070       ?stbi__parse_uncompressed_block@@YAHPEAUstbi__zbuf@@@Z 0000000180015070 f   pixel_art_demo.obj
 0001:00014270       ?stbi__parse_zlib_header@@YAHPEAUstbi__zbuf@@@Z 0000000180015270 f   pixel_art_demo.obj
 0001:00014330       ?stbi__parse_zlib@@YAHPEAUstbi__zbuf@@H@Z 0000000180015330 f   pixel_art_demo.obj
 0001:00014460       ?stbi__do_zlib@@YAHPEAUstbi__zbuf@@PEADHHH@Z 0000000180015460 f   pixel_art_demo.obj
 0001:000144e0       ?stbi__get_chunk_header@@YA?AUstbi__pngchunk@@PEAUstbi__context@@@Z 00000001800154e0 f   pixel_art_demo.obj
 0001:00014520       ?stbi__check_png_header@@YAHPEAUstbi__context@@@Z 0000000180015520 f   pixel_art_demo.obj
 0001:00014590       ?stbi__paeth@@YAHHHH@Z     0000000180015590 f   pixel_art_demo.obj
 0001:00014630       ?stbi__create_png_image_raw@@YAHPEAUstbi__png@@PEAEIHIIHH@Z 0000000180015630 f   pixel_art_demo.obj
 0001:00015e40       $LN168                     0000000180016e40     pixel_art_demo.obj
 0001:00015e5c       $LN167                     0000000180016e5c     pixel_art_demo.obj
 0001:00015e78       $LN166                     0000000180016e78     pixel_art_demo.obj
 0001:00015ea0       ?stbi__create_png_image@@YAHPEAUstbi__png@@PEAEIHHHH@Z 0000000180016ea0 f   pixel_art_demo.obj
 0001:00016380       ?stbi__compute_transparency@@YAHPEAUstbi__png@@QEAEH@Z 0000000180017380 f   pixel_art_demo.obj
 0001:00016550       ?stbi__compute_transparency16@@YAHPEAUstbi__png@@QEAGH@Z 0000000180017550 f   pixel_art_demo.obj
 0001:00016720       ?stbi__expand_png_palette@@YAHPEAUstbi__png@@PEAEHH@Z 0000000180017720 f   pixel_art_demo.obj
 0001:00016960       ?stbi__de_iphone@@YAXPEAUstbi__png@@@Z 0000000180017960 f   pixel_art_demo.obj
 0001:00016c40       ?stbi__parse_png_file@@YAHPEAUstbi__png@@HH@Z 0000000180017c40 f   pixel_art_demo.obj
 0001:00017960       ?stbi__do_png@@YAPEAXPEAUstbi__png@@PEAH11HPEAUstbi__result_info@@@Z 0000000180018960 f   pixel_art_demo.obj
 0001:00017bb0       ?stbi__png_info_raw@@YAHPEAUstbi__png@@PEAH11@Z 0000000180018bb0 f   pixel_art_demo.obj
 0001:00017c50       ?stbi__bmp_test_raw@@YAHPEAUstbi__context@@@Z 0000000180018c50 f   pixel_art_demo.obj
 0001:00017d10       ?stbi__high_bit@@YAHI@Z    0000000180018d10 f   pixel_art_demo.obj
 0001:00017dc0       ?stbi__bitcount@@YAHI@Z    0000000180018dc0 f   pixel_art_demo.obj
 0001:00017e50       ?stbi__shiftsigned@@YAHIHH@Z 0000000180018e50 f   pixel_art_demo.obj
 0001:00017f30       ?stbi__bmp_parse_header@@YAPEAXPEAUstbi__context@@PEAUstbi__bmp_data@@@Z 0000000180018f30 f   pixel_art_demo.obj
 0001:00018460       ?stbi__tga_get_comp@@YAHHHPEAH@Z 0000000180019460 f   pixel_art_demo.obj
 0001:00018500       ?stbi__tga_read_rgb16@@YAXPEAUstbi__context@@PEAE@Z 0000000180019500 f   pixel_art_demo.obj
 0001:000185d0       ?stbi__psd_decode_rle@@YAHPEAUstbi__context@@PEAEH@Z 00000001800195d0 f   pixel_art_demo.obj
 0001:00018720       ?stbi__pic_is4@@YAHPEAUstbi__context@@PEBD@Z 0000000180019720 f   pixel_art_demo.obj
 0001:00018780       ?stbi__pic_test_core@@YAHPEAUstbi__context@@@Z 0000000180019780 f   pixel_art_demo.obj
 0001:00018800       ?stbi__readval@@YAPEAEPEAUstbi__context@@HPEAE@Z 0000000180019800 f   pixel_art_demo.obj
 0001:000188b0       ?stbi__copyval@@YAXHPEAEPEBE@Z 00000001800198b0 f   pixel_art_demo.obj
 0001:00018930       ?stbi__pic_load_core@@YAPEAEPEAUstbi__context@@HHPEAHPEAE@Z 0000000180019930 f   pixel_art_demo.obj
 0001:00018f70       ?stbi__gif_test_raw@@YAHPEAUstbi__context@@@Z 0000000180019f70 f   pixel_art_demo.obj
 0001:00019010       ?stbi__gif_parse_colortable@@YAXPEAUstbi__context@@QEAY03EHH@Z 000000018001a010 f   pixel_art_demo.obj
 0001:00019110       ?stbi__gif_header@@YAHPEAUstbi__context@@PEAUstbi__gif@@PEAHH@Z 000000018001a110 f   pixel_art_demo.obj
 0001:00019330       ?stbi__gif_info_raw@@YAHPEAUstbi__context@@PEAH11@Z 000000018001a330 f   pixel_art_demo.obj
 0001:000193e0       ?stbi__out_gif_code@@YAXPEAUstbi__gif@@G@Z 000000018001a3e0 f   pixel_art_demo.obj
 0001:00019680       ?stbi__process_gif_raster@@YAPEAEPEAUstbi__context@@PEAUstbi__gif@@@Z 000000018001a680 f   pixel_art_demo.obj
 0001:00019ad0       ?stbi__gif_load_next@@YAPEAEPEAUstbi__context@@PEAUstbi__gif@@PEAHHPEAE@Z 000000018001aad0 f   pixel_art_demo.obj
 0001:0001a4a0       ?stbi__hdr_test_core@@YAHPEAUstbi__context@@PEBD@Z 000000018001b4a0 f   pixel_art_demo.obj
 0001:0001a520       ?stbi__hdr_gettoken@@YAPEADPEAUstbi__context@@PEAD@Z 000000018001b520 f   pixel_art_demo.obj
 0001:0001a5e0       ?stbi__hdr_convert@@YAXPEAMPEAEH@Z 000000018001b5e0 f   pixel_art_demo.obj
 0001:0001a850       ?stbi__pnm_isspace@@YAHD@Z 000000018001b850 f   pixel_art_demo.obj
 0001:0001a8c0       ?stbi__pnm_skip_whitespace@@YAXPEAUstbi__context@@PEAD@Z 000000018001b8c0 f   pixel_art_demo.obj
 0001:0001a970       ?stbi__pnm_isdigit@@YAHD@Z 000000018001b970 f   pixel_art_demo.obj
 0001:0001a9b0       ?stbi__pnm_getinteger@@YAHPEAUstbi__context@@PEAD@Z 000000018001b9b0 f   pixel_art_demo.obj
 0001:0001aa20       ?stbi__info_main@@YAHPEAUstbi__context@@PEAH11@Z 000000018001ba20 f   pixel_art_demo.obj
 0001:0001abb0       ?stbi__is_16_main@@YAHPEAUstbi__context@@@Z 000000018001bbb0 f   pixel_art_demo.obj
 0001:0001abf0       ?TextureLoad@@YA?AUvk_image@@PEADW4VkFormat@@III@Z 000000018001bbf0 f   pixel_art_demo.obj
 0001:00027a70       $$000000                   0000000180028a70     LIBCMTD:chkstk.obj
 0001:00027ae0       $$000000                   0000000180028ae0     LIBCMTD:amdsecgs.obj
 0001:00027b20       ?dllmain_crt_dispatch@@YAHQEAUHINSTANCE__@@KQEAX@Z 0000000180028b20 f   LIBCMTD:dll_dllmain.obj
 0001:00027bb0       ?dllmain_crt_process_attach@@YAHQEAUHINSTANCE__@@QEAX@Z 0000000180028bb0 f   LIBCMTD:dll_dllmain.obj
 0001:00027cf0       ?dllmain_crt_process_detach@@YAH_N@Z 0000000180028cf0 f   LIBCMTD:dll_dllmain.obj
 0001:00027d80       ?dllmain_dispatch@@YAHQEAUHINSTANCE__@@KQEAX@Z 0000000180028d80 f   LIBCMTD:dll_dllmain.obj
 0001:00027ec0       ?dllmain_raw@@YAHQEAUHINSTANCE__@@KQEAX@Z 0000000180028ec0 f   LIBCMTD:dll_dllmain.obj
 0001:00028130       ?capture_current_context@@YAXQEAU_CONTEXT@@@Z 0000000180029130 f   libucrtd:invalid_parameter.obj
 0001:00028130       capture_current_context    0000000180029130 f   LIBCMTD:gs_report.obj
 0001:000281d0       capture_previous_context   00000001800291d0 f   LIBCMTD:gs_report.obj
 0001:00028290       __get_entropy              0000000180029290 f   LIBCMTD:gs_support.obj
 0001:00028560       ?find_pe_section@@YAPEAU_IMAGE_SECTION_HEADER@@QEAE_K@Z 0000000180029560 f   LIBCMTD:utility.obj
 0001:00028640       ?is_potentially_valid_image_base@@YA_NQEAX@Z 0000000180029640 f   LIBCMTD:utility.obj
 0001:00029620       ??0<lambda_df1553121bfa390f1154bd84936f2730>@@QEAA@AEAV?$__crt_unique_heap_ptr@PEADU__crt_internal_free_policy@@@@@Z 000000018002a620 f i libucrtd:argv_parsing.obj
 0001:00029620       ??0<lambda_9a32fed5bf61b6b509b2d3f6003082a1>@@QEAA@AEBV__crt_stdio_stream@@@Z 000000018002a620 f i libucrtd:fflush.obj
 0001:00029620       ??0<lambda_5533cddd4bda0037814beee657757329>@@QEAA@AEBH@Z 000000018002a620 f i libucrtd:commit.obj
 0001:00029620       ??0<lambda_8d0ee55de4b1038c4002e0adecdf1839>@@QEAA@AEBQEAU__acrt_ptd@@@Z 000000018002a620 f i libucrtd:per_thread_data.obj
 0001:00029620       ??0<lambda_4e7105787b7b0e0227fbf2b2d883fa65>@@QEAA@AEBH@Z 000000018002a620 f i libucrtd:close.obj
 0001:00029620       ??0<lambda_8f455de75cd7d7f24b4096f044d8b9e6>@@QEAA@AEBQEAU__acrt_ptd@@@Z 000000018002a620 f i libucrtd:per_thread_data.obj
 0001:00029620       ??0<lambda_e157831efee4ea0afb0a2ace5dd5fd0d>@@QEAA@AEBQEAU__acrt_ptd@@@Z 000000018002a620 f i libucrtd:per_thread_data.obj
 0001:00029620       ??0<lambda_d121dba8a4adeaf3a9819e48611155df>@@QEAA@AEBQEAU_onexit_table_t@@@Z 000000018002a620 f i libucrtd:onexit.obj
 0001:00029680       ?begin@?$argument_list@D@?A0x5f5c8891@@QEBAPEAPEADXZ 000000018002a680 f i libucrtd:argv_wildcards.obj
 0001:00029850       init_memcpy_functions      000000018002a850 f   libvcruntimed:initialization.obj
 0001:00029860       $$000000                   000000018002a860     libvcruntimed:notify.obj
 0001:00029c70       ??0scoped_get_last_error_reset@?A0xef8ec17e@@QEAA@XZ 000000018002ac70 f   libvcruntimed:per_thread_data.obj
 0001:00029c90       ??1scoped_get_last_error_reset@?A0xef8ec17e@@QEAA@XZ 000000018002ac90 f   libvcruntimed:per_thread_data.obj
 0001:00029ce0       ?store_and_initialize_ptd@@YA_NQEAU__vcrt_ptd@@@Z 000000018002ace0 f   libvcruntimed:per_thread_data.obj
 0001:0002a150       ?invalid_function_sentinel@@YAPEAXXZ 000000018002b150 f   libvcruntimed:winapi_downlevel.obj
 0001:0002a150       ?invalid_function_sentinel@@YAPEAXXZ 000000018002b150 f   libucrtd:winapi_thunks.obj
 0001:0002a160       ?try_get_FlsAlloc@@YAP6AKP6AXPEAX@Z@ZXZ 000000018002b160 f   libvcruntimed:winapi_downlevel.obj
 0001:0002a190       ?try_get_FlsFree@@YAP6AHK@ZXZ 000000018002b190 f   libvcruntimed:winapi_downlevel.obj
 0001:0002a1c0       ?try_get_FlsGetValue@@YAP6APEAXK@ZXZ 000000018002b1c0 f   libvcruntimed:winapi_downlevel.obj
 0001:0002a1f0       ?try_get_FlsSetValue@@YAP6AHKPEAX@ZXZ 000000018002b1f0 f   libvcruntimed:winapi_downlevel.obj
 0001:0002a220       ?try_get_InitializeCriticalSectionEx@@YAP6AHPEAU_RTL_CRITICAL_SECTION@@KK@ZXZ 000000018002b220 f   libvcruntimed:winapi_downlevel.obj
 0001:0002a250       ?try_get_first_available_module@@YAPEAUHINSTANCE__@@QEBW4module_id@?A0xbfd18cd1@@0@Z 000000018002b250 f   libvcruntimed:winapi_downlevel.obj
 0001:0002a2b0       ?try_get_function@@YAPEAXW4function_id@?A0xbfd18cd1@@QEBDQEBW4module_id@2@2@Z 000000018002b2b0 f   libvcruntimed:winapi_downlevel.obj
 0001:0002a450       ?try_get_module@@YAPEAUHINSTANCE__@@W4module_id@?A0xbfd18cd1@@@Z 000000018002b450 f   libvcruntimed:winapi_downlevel.obj
 0001:0002a5b0       ?try_get_proc_address_from_first_available_module@@YAPEAXQEBDQEBW4module_id@?A0xbfd18cd1@@1@Z 000000018002b5b0 f   libvcruntimed:winapi_downlevel.obj
 0001:0002a600       ?try_load_library_from_system_directory@@YAPEAUHINSTANCE__@@QEB_W@Z 000000018002b600 f   libvcruntimed:winapi_downlevel.obj
 0001:0002a600       ?try_load_library_from_system_directory@@YAPEAUHINSTANCE__@@QEB_W@Z 000000018002b600 f   libucrtd:winapi_thunks.obj
 0001:0002a990       $$000000                   000000018002b990     libvcruntimed:memcpy.obj
 0001:0002aa47       MoveSmall                  000000018002ba47     libvcruntimed:memcpy.obj
 0001:0002ae60       ??$SehTransFilter@V__FrameHandler3@@@@YAHPEAU_EXCEPTION_POINTERS@@PEAUEHExceptionRecord@@PEA_KPEAU_CONTEXT@@PEAU_xDISPATCHER_CONTEXT@@PEBU_s_FuncInfo@@PEAH@Z 000000018002be60 f   libvcruntimed:risctrnsctrl.obj
 0001:0002b690       ?end@?$argument_list@D@?A0x5f5c8891@@QEBAPEAPEADXZ 000000018002c690 f i libucrtd:argv_wildcards.obj
 0001:0002bb50       ?adjustIp@@YA_KPEAU_xDISPATCHER_CONTEXT@@_K@Z 000000018002cb50 f   libvcruntimed:ehstate.obj
 0001:0002bb60       ??$BuildCatchObjectHelperInternal@V__FrameHandler3@@@@YAHPEAUEHExceptionRecord@@PEAXPEBU_s_HandlerType@@PEBU_s_CatchableType@@@Z 000000018002cb60 f   libvcruntimed:frame.obj
 0001:0002bfe0       ??$BuildCatchObjectInternal@V__FrameHandler3@@@@YAXPEAUEHExceptionRecord@@PEAXPEBU_s_HandlerType@@PEBU_s_CatchableType@@@Z 000000018002cfe0 f   libvcruntimed:frame.obj
 0001:0002c120       ??$CatchIt@V__FrameHandler3@@@@YAXPEAUEHExceptionRecord@@PEA_KPEAU_CONTEXT@@PEAU_xDISPATCHER_CONTEXT@@PEBU_s_FuncInfo@@PEBU_s_HandlerType@@PEBU_s_CatchableType@@PEBU_s_TryBlockMapEntry@@H1EE@Z 000000018002d120 f   libvcruntimed:frame.obj
 0001:0002c230       ??$FindHandler@V__FrameHandler3@@@@YAXPEAUEHExceptionRecord@@PEA_KPEAU_CONTEXT@@PEAU_xDISPATCHER_CONTEXT@@PEBU_s_FuncInfo@@EH1@Z 000000018002d230 f   libvcruntimed:frame.obj
 0001:0002c9b0       ??$FindHandlerForForeignException@V__FrameHandler3@@@@YAXPEAUEHExceptionRecord@@PEA_KPEAU_CONTEXT@@PEAU_xDISPATCHER_CONTEXT@@PEBU_s_FuncInfo@@HH1@Z 000000018002d9b0 f   libvcruntimed:frame.obj
 0001:0002d360       ??0<lambda_92619d2358a28f41a33ba319515a20b9>@@QEAA@AEBQEAU__acrt_ptd@@AEBQEAPEAU__crt_locale_data@@@Z 000000018002e360 f i libucrtd:per_thread_data.obj
 0001:0002d360       ??0<lambda_bd5a608237428601b7e45fbdc72b1ae8>@@QEAA@AEBQEAU__acrt_ptd@@AEBQEAPEAU__crt_multibyte_data@@@Z 000000018002e360 f i libucrtd:mbctype.obj
 0001:0002d9d0       ?ExFilterRethrow@@YAHPEAU_EXCEPTION_POINTERS@@PEAUEHExceptionRecord@@PEAH@Z 000000018002e9d0 f   libvcruntimed:frame.obj
 0001:0002de30       ?IsInExceptionSpec@@YAEPEAUEHExceptionRecord@@PEBU_s_ESTypeList@@@Z 000000018002ee30 f   libvcruntimed:frame.obj
 0001:0002df60       ?Is_bad_exception_allowed@@YAEPEBU_s_ESTypeList@@@Z 000000018002ef60 f   libvcruntimed:frame.obj
 0001:0002e120       ?__RethrowException@@YAXPEAUEHExceptionRecord@@@Z 000000018002f120 f   libvcruntimed:frame.obj
 0001:0002e340       $$000000                   000000018002f340     libvcruntimed:memset.obj
 0001:0002e43c       MsetTab                    000000018002f43c     libvcruntimed:memset.obj
 0001:0002e500       $$000000                   000000018002f500     libvcruntimed:handlers.obj
 0001:0002e8e0       $$000000                   000000018002f8e0     libucrtd:strncmp.obj
 0001:000304a0       ??$common_fopen_s@D@@YAHQEAPEAU_iobuf@@QEBD1@Z 00000001800314a0 f   libucrtd:fopen.obj
 0001:00030590       ??$common_fsopen@D@@YAPEAU_iobuf@@QEBD0H@Z 0000000180031590 f   libucrtd:fopen.obj
 0001:00031f10       memcpy_s                   0000000180032f10 f   libucrtd:mbctype.obj
 0001:00031f10       memcpy_s                   0000000180032f10 f   libucrtd:assert.obj
 0001:00031f10       memcpy_s                   0000000180032f10 f   libucrtd:cfout.obj
 0001:00031f10       memcpy_s                   0000000180032f10 f   libucrtd:fread.obj
 0001:00032130       ?common_fseek@@YAHV__crt_stdio_stream@@_JH@Z 0000000180033130 f   libucrtd:fseek.obj
 0001:00032300       ?common_fseek_binary_mode_read_only_fast_track_nolock@@YA_NV__crt_stdio_stream@@_JH@Z 0000000180033300 f   libucrtd:fseek.obj
 0001:00032530       ?common_fseek_nolock@@YAHV__crt_stdio_stream@@_JH@Z 0000000180033530 f   libucrtd:fseek.obj
 0001:000327a0       ??$common_ftell@J@@YAJV__crt_stdio_stream@@@Z 00000001800337a0 f   libucrtd:ftell.obj
 0001:000328a0       ??$common_ftell_nolock@J@@YAJV__crt_stdio_stream@@@Z 00000001800338a0 f   libucrtd:ftell.obj
 0001:000328e0       ??$common_ftell_nolock@_J@@YA_JV__crt_stdio_stream@@@Z 00000001800338e0 f   libucrtd:ftell.obj
 0001:00032c00       ??$count_newlines_of_type@D@@YA_JQEBD0@Z 0000000180033c00 f   libucrtd:ftell.obj
 0001:00032cd0       ??$count_newlines_of_type@_W@@YA_JQEBD0@Z 0000000180033cd0 f   libucrtd:ftell.obj
 0001:00032db0       ?buffer_character_size@@YA_KW4__crt_lowio_text_mode@@@Z 0000000180033db0 f   libucrtd:ftell.obj
 0001:00032df0       ?buffer_contains_wide_characters@@YA_NW4__crt_lowio_text_mode@@@Z 0000000180033df0 f   libucrtd:ftell.obj
 0001:00032e20       ?common_ftell_read_mode_nolock@@YA_JV__crt_stdio_stream@@_J1@Z 0000000180033e20 f   libucrtd:ftell.obj
 0001:00033130       ?common_ftell_translated_utf8_nolock@@YA_JV__crt_stdio_stream@@_J@Z 0000000180034130 f   libucrtd:ftell.obj
 0001:000333e0       ?count_newline_bytes@@YA_JQEBD0W4__crt_lowio_text_mode@@@Z 00000001800343e0 f   libucrtd:ftell.obj
 0001:000339c0       ??$common_assert@_W@@YAXQEB_W0IQEAX@Z 00000001800349c0 f   libucrtd:assert.obj
 0001:00033a50       ??$common_assert_to_message_box@_W@@YAXQEB_W0IQEAX@Z 0000000180034a50 f   libucrtd:assert.obj
 0001:00033b50       ??$common_assert_to_message_box_build_string@_W@@YAXQEA_W_KQEB_W2IQEAX@Z 0000000180034b50 f   libucrtd:assert.obj
 0001:00034960       ??$common_assert_to_stderr@_W@@YAXQEB_W0I@Z 0000000180035960 f   libucrtd:assert.obj
 0001:00034d60       ?common_assert_to_stderr_direct@@YAXQEB_W0I@Z 0000000180035d60 f   libucrtd:assert.obj
 0001:00034e60       ?get_assert_format@@YAPEB_W_W@Z 0000000180035e60 f   libucrtd:assert.obj
 0001:00034e70       ?get_banner_text@@YAPEB_W_W@Z 0000000180035e70 f   libucrtd:assert.obj
 0001:00034e80       ?get_box_intro@@YAPEB_W_W@Z 0000000180035e80 f   libucrtd:assert.obj
 0001:00034e90       ?get_dot_dot_dot@@YAPEB_W_W@Z 0000000180035e90 f   libucrtd:assert.obj
 0001:00034ea0       ?get_double_newline@@YAPEB_W_W@Z 0000000180035ea0 f   libucrtd:assert.obj
 0001:00034eb0       ?get_expression_intro@@YAPEB_W_W@Z 0000000180035eb0 f   libucrtd:assert.obj
 0001:00034ec0       ?get_file_intro@@YAPEB_W_W@Z 0000000180035ec0 f   libucrtd:assert.obj
 0001:00034ed0       ?get_help_intro@@YAPEB_W_W@Z 0000000180035ed0 f   libucrtd:assert.obj
 0001:00034ee0       ?get_info_intro@@YAPEB_W_W@Z 0000000180035ee0 f   libucrtd:assert.obj
 0001:00034ef0       ?get_line_intro@@YAPEB_W_W@Z 0000000180035ef0 f   libucrtd:assert.obj
 0001:00034f00       ?get_newline@@YAPEB_W_W@Z  0000000180035f00 f   libucrtd:assert.obj
 0001:00034f10       ?get_program_intro@@YAPEB_W_W@Z 0000000180035f10 f   libucrtd:assert.obj
 0001:00034f20       ?get_program_name_unknown_text@@YAPEB_W_W@Z 0000000180035f20 f   libucrtd:assert.obj
 0001:00034f20       ?get_program_name_unknown_text@@YAPEB_W_W@Z 0000000180035f20 f   libucrtd:dbgrpt.obj
 0001:00035130       $$000000                   0000000180036130     libucrtd:cosf.obj
 0001:00035630       $$000000                   0000000180036630     libucrtd:pow.obj
 0001:00036cd0       $$000000                   0000000180037cd0     libucrtd:sinf.obj
 0001:000374b0       ?xcptlookup@@YAPEAU__crt_signal_action_t@@KQEAU1@@Z 00000001800384b0 f   libucrtd:exception_filter.obj
 0001:000377d0       $LN33                      00000001800387d0     libucrtd:exception_filter.obj
 0001:000377f0       ??$?RV<lambda_d80eeec6fff315bfe5c115232f3240e3>@@AEAV<lambda_6e4b09c48022b2350581041d5f6b0c4c>@@V<lambda_2358e3775559c9db80273638284d5e45>@@@?$__crt_seh_guarded_call@X@@QEAAX$$QEAV<lambda_d80eeec6fff315bfe5c115232f3240e3>@@AEAV<lambda_6e4b09c48022b2350581041d5f6b0c4c>@@$$QEAV<lambda_2358e3775559c9db80273638284d5e45>@@@Z 00000001800387f0 f   libucrtd:exit.obj
 0001:00037830       ??$__acrt_lock_and_call@V<lambda_6e4b09c48022b2350581041d5f6b0c4c>@@@@YAXW4__acrt_lock_id@@$$QEAV<lambda_6e4b09c48022b2350581041d5f6b0c4c>@@@Z 0000000180038830 f   libucrtd:exit.obj
 0001:000378b0       ??0<lambda_6992ecaafeb10aed2b74cb1fae11a551>@@QEAA@AEBW4__acrt_lock_id@@@Z 00000001800388b0 f   libucrtd:per_thread_data.obj
 0001:000378b0       ??0<lambda_0ae27a3a962d80f24befdcbee591983d>@@QEAA@AEBW4__acrt_lock_id@@@Z 00000001800388b0 f   libucrtd:per_thread_data.obj
 0001:000378b0       ??0<lambda_dc504788e8f1664fe9b84e20bfb512f2>@@QEAA@AEBW4__acrt_lock_id@@@Z 00000001800388b0 f   libucrtd:per_thread_data.obj
 0001:000378b0       ??0<lambda_6aaa2265f5b6a89667e7d7630012e97a>@@QEAA@AEBW4__acrt_lock_id@@@Z 00000001800388b0 f   libucrtd:onexit.obj
 0001:000378b0       ??0<lambda_2358e3775559c9db80273638284d5e45>@@QEAA@AEBW4__acrt_lock_id@@@Z 00000001800388b0 f   libucrtd:exit.obj
 0001:000378b0       ??0<lambda_886d6c58226a84441f68b9f2b8217b83>@@QEAA@AEBW4__acrt_lock_id@@@Z 00000001800388b0 f   libucrtd:fflush.obj
 0001:000378b0       ??0<lambda_8ddc48ad9d26c778cb15812d1d88fc8a>@@QEAA@AEBH@Z 00000001800388b0 f   libucrtd:close.obj
 0001:000378b0       ??0<lambda_f7f22ab5edc0698d5f6905b0d3f44752>@@QEAA@AEBW4__acrt_lock_id@@@Z 00000001800388b0 f   libucrtd:fflush.obj
 0001:000378b0       ??0<lambda_38119f0e861e05405d8a144b9b982f0a>@@QEAA@AEBW4__acrt_lock_id@@@Z 00000001800388b0 f   libucrtd:wsetlocale.obj
 0001:000378b0       ??0<lambda_601a2a7da3b7a96e9554ac7215c4b07c>@@QEAA@AEBW4__acrt_lock_id@@@Z 00000001800388b0 f   libucrtd:signal.obj
 0001:000378b0       ??0<lambda_53fc7fc888e23d815d7080162c0aeeb2>@@QEAA@AEBH@Z 00000001800388b0 f   libucrtd:close.obj
 0001:000378b0       ??0<lambda_450d765d439847d4c735a33c368b5fc0>@@QEAA@AEBW4__acrt_lock_id@@@Z 00000001800388b0 f   libucrtd:signal.obj
 0001:000378b0       ??0<lambda_410d79af7f07d98d83a3f525b3859a53>@@QEAA@AEBW4__acrt_lock_id@@@Z 00000001800388b0 f   libucrtd:wsetlocale.obj
 0001:000378b0       ??0<lambda_aa87e3671a710a21b5dc78c0bdf72e11>@@QEAA@AEBW4__acrt_lock_id@@@Z 00000001800388b0 f   libucrtd:per_thread_data.obj
 0001:000378b0       ??0<lambda_04ddeca75b7c13fd67716e8dfcef87ee>@@QEAA@AEBW4__acrt_lock_id@@@Z 00000001800388b0 f   libucrtd:per_thread_data.obj
 0001:000378b0       ??0<lambda_2d41944a1d46af3157314b8a01080d33>@@QEAA@AEBW4__acrt_lock_id@@@Z 00000001800388b0 f   libucrtd:per_thread_data.obj
 0001:000378b0       ??0<lambda_d80eeec6fff315bfe5c115232f3240e3>@@QEAA@AEBW4__acrt_lock_id@@@Z 00000001800388b0 f   libucrtd:exit.obj
 0001:000378b0       ??0<lambda_4e3dbe6921bc0b5a1a6bc6573fdc859e>@@QEAA@AEBH@Z 00000001800388b0 f   libucrtd:commit.obj
 0001:000378b0       ??0<lambda_aa500f224e6afead328df44964fe2772>@@QEAA@AEBW4__acrt_lock_id@@@Z 00000001800388b0 f   libucrtd:per_thread_data.obj
 0001:000378b0       ??0<lambda_6a47f4c8fd0152770a780fc1d70204eb>@@QEAA@AEBW4__acrt_lock_id@@@Z 00000001800388b0 f   libucrtd:onexit.obj
 0001:000378b0       ??0<lambda_728235dc0fc2b1f82d1fa5b3e7102d8f>@@QEAA@AEBW4__acrt_lock_id@@@Z 00000001800388b0 f   libucrtd:mbctype.obj
 0001:000378b0       ??0<lambda_efa02eb69bf647d2f7ff0dd6f1103f72>@@QEAA@AEBW4__acrt_lock_id@@@Z 00000001800388b0 f   libucrtd:mbctype.obj
 0001:000378b0       ??0<lambda_74a0ef281e44d15e1136f792f539efb3>@@QEAA@AEBW4__acrt_lock_id@@@Z 00000001800388b0 f   libucrtd:per_thread_data.obj
 0001:000378b0       ??0<lambda_47cffbaa968af5c721c38a4a6f8da44d>@@QEAA@AEBH@Z 00000001800388b0 f   libucrtd:commit.obj
 0001:000378d0       ??0<lambda_6e4b09c48022b2350581041d5f6b0c4c>@@QEAA@AEBW4_crt_exit_cleanup_mode@@AEBW4_crt_exit_return_mode@@AEA_N@Z 00000001800388d0 f   libucrtd:exit.obj
 0001:000378d0       ??0<lambda_ab61a845afdef5b7c387490eaf3616ee>@@QEAA@AEAHAEB_N0@Z 00000001800388d0 f   libucrtd:fflush.obj
 0001:00037940       ??R<lambda_04ddeca75b7c13fd67716e8dfcef87ee>@@QEBAXXZ 0000000180038940 f   libucrtd:per_thread_data.obj
 0001:00037940       ??R<lambda_601a2a7da3b7a96e9554ac7215c4b07c>@@QEBAXXZ 0000000180038940 f   libucrtd:signal.obj
 0001:00037940       ??R<lambda_6aaa2265f5b6a89667e7d7630012e97a>@@QEBAXXZ 0000000180038940 f   libucrtd:onexit.obj
 0001:00037940       ??R<lambda_38119f0e861e05405d8a144b9b982f0a>@@QEBAXXZ 0000000180038940 f   libucrtd:wsetlocale.obj
 0001:00037940       ??R<lambda_6992ecaafeb10aed2b74cb1fae11a551>@@QEBAXXZ 0000000180038940 f   libucrtd:per_thread_data.obj
 0001:00037940       ??R<lambda_dc504788e8f1664fe9b84e20bfb512f2>@@QEBAXXZ 0000000180038940 f   libucrtd:per_thread_data.obj
 0001:00037940       ??R<lambda_f7f22ab5edc0698d5f6905b0d3f44752>@@QEBAXXZ 0000000180038940 f   libucrtd:fflush.obj
 0001:00037940       ??R<lambda_2358e3775559c9db80273638284d5e45>@@QEBAXXZ 0000000180038940 f   libucrtd:exit.obj
 0001:00037940       ??R<lambda_728235dc0fc2b1f82d1fa5b3e7102d8f>@@QEBAXXZ 0000000180038940 f   libucrtd:mbctype.obj
 0001:00037940       ??R<lambda_aa500f224e6afead328df44964fe2772>@@QEBAXXZ 0000000180038940 f   libucrtd:per_thread_data.obj
 0001:00037960       ??R<lambda_6e4b09c48022b2350581041d5f6b0c4c>@@QEBA@XZ 0000000180038960 f   libucrtd:exit.obj
 0001:00037a60       ??R<lambda_efa02eb69bf647d2f7ff0dd6f1103f72>@@QEBAXXZ 0000000180038a60 f   libucrtd:mbctype.obj
 0001:00037a60       ??R<lambda_6a47f4c8fd0152770a780fc1d70204eb>@@QEBAXXZ 0000000180038a60 f   libucrtd:onexit.obj
 0001:00037a60       ??R<lambda_0ae27a3a962d80f24befdcbee591983d>@@QEBAXXZ 0000000180038a60 f   libucrtd:per_thread_data.obj
 0001:00037a60       ??R<lambda_2d41944a1d46af3157314b8a01080d33>@@QEBAXXZ 0000000180038a60 f   libucrtd:per_thread_data.obj
 0001:00037a60       ??R<lambda_74a0ef281e44d15e1136f792f539efb3>@@QEBAXXZ 0000000180038a60 f   libucrtd:per_thread_data.obj
 0001:00037a60       ??R<lambda_aa87e3671a710a21b5dc78c0bdf72e11>@@QEBAXXZ 0000000180038a60 f   libucrtd:per_thread_data.obj
 0001:00037a60       ??R<lambda_d80eeec6fff315bfe5c115232f3240e3>@@QEBAXXZ 0000000180038a60 f   libucrtd:exit.obj
 0001:00037a60       ??R<lambda_886d6c58226a84441f68b9f2b8217b83>@@QEBAXXZ 0000000180038a60 f   libucrtd:fflush.obj
 0001:00037a60       ??R<lambda_410d79af7f07d98d83a3f525b3859a53>@@QEBAXXZ 0000000180038a60 f   libucrtd:wsetlocale.obj
 0001:00037a60       ??R<lambda_450d765d439847d4c735a33c368b5fc0>@@QEBAXXZ 0000000180038a60 f   libucrtd:signal.obj
 0001:00037a90       ?atexit_exception_filter@@YAHK@Z 0000000180038a90 f   libucrtd:exit.obj
 0001:00037b30       ?common_exit@@YAXHW4_crt_exit_cleanup_mode@@W4_crt_exit_return_mode@@@Z 0000000180038b30 f   libucrtd:exit.obj
 0001:00037bc0       ?exit_or_terminate_process@@YAXI@Z 0000000180038bc0 f   libucrtd:exit.obj
 0001:00037c10       ?is_managed_app@@YA_NXZ    0000000180038c10 f   libucrtd:exit.obj
 0001:00037cc0       ?should_call_terminate_process@@YA_NXZ 0000000180038cc0 f   libucrtd:exit.obj
 0001:00037d20       ?try_cor_exit_process@@YAXI@Z 0000000180038d20 f   libucrtd:exit.obj
 0001:00037e40       ??$common_configure_argv@D@@YAHW4_crt_argv_mode@@@Z 0000000180038e40 f   libucrtd:argv_parsing.obj
 0001:000381d0       ??$parse_command_line@D@@YAXPEADPEAPEAD0PEA_K2@Z 00000001800391d0 f   libucrtd:argv_parsing.obj
 0001:00038680       ??R<lambda_df1553121bfa390f1154bd84936f2730>@@QEBAHXZ 0000000180039680 f   libucrtd:argv_parsing.obj
 0001:000386e0       ?do_locale_initialization@@YAXD@Z 00000001800396e0 f   libucrtd:argv_parsing.obj
 0001:00038700       ?expand_argv_wildcards@@YAHQEAPEADQEAPEAPEAD@Z 0000000180039700 f   libucrtd:argv_parsing.obj
 0001:00038730       ?get_argv@@YAAEAPEAPEADD@Z 0000000180039730 f   libucrtd:argv_parsing.obj
 0001:00038740       ?get_command_line@@YAPEADD@Z 0000000180039740 f   libucrtd:argv_parsing.obj
 0001:00038750       ?should_copy_another_character@@YA_ND@Z 0000000180039750 f   libucrtd:argv_parsing.obj
 0001:000388e4       ??$common_initialize_environment_nolock@D@@YAHXZ 00000001800398e4 f   libucrtd:environment_initialization.obj
 0001:0003895c       ??$create_environment@D@@YAQEAPEADQEAD@Z 000000018003995c f   libucrtd:environment_initialization.obj
 0001:00038ab8       ??$free_environment@D@@YAXQEAPEAD@Z 0000000180039ab8 f   libucrtd:environment_initialization.obj
 0001:00038ab8       ??$free_environment@_W@@YAXQEAPEA_W@Z 0000000180039ab8 f   libucrtd:environment_initialization.obj
 0001:00038b14       ??$uninitialize_environment_internal@D@@YAXAEAPEAPEAD@Z 0000000180039b14 f   libucrtd:environment_initialization.obj
 0001:00038b30       ??$uninitialize_environment_internal@_W@@YAXAEAPEAPEA_W@Z 0000000180039b30 f   libucrtd:environment_initialization.obj
 0001:00038ba0       ??$?RV<lambda_6a47f4c8fd0152770a780fc1d70204eb>@@AEAV<lambda_d121dba8a4adeaf3a9819e48611155df>@@V<lambda_6aaa2265f5b6a89667e7d7630012e97a>@@@?$__crt_seh_guarded_call@H@@QEAAH$$QEAV<lambda_6a47f4c8fd0152770a780fc1d70204eb>@@AEAV<lambda_d121dba8a4adeaf3a9819e48611155df>@@$$QEAV<lambda_6aaa2265f5b6a89667e7d7630012e97a>@@@Z 0000000180039ba0 f   libucrtd:onexit.obj
 0001:00038bf0       ??$__acrt_lock_and_call@V<lambda_d121dba8a4adeaf3a9819e48611155df>@@@@YAHW4__acrt_lock_id@@$$QEAV<lambda_d121dba8a4adeaf3a9819e48611155df>@@@Z 0000000180039bf0 f   libucrtd:onexit.obj
 0001:00038c40       ??R<lambda_d121dba8a4adeaf3a9819e48611155df>@@QEBAHXZ 0000000180039c40 f   libucrtd:onexit.obj
 0001:00038f30       initialize_global_variables 0000000180039f30 f   libucrtd:initialization.obj
 0001:00038f50       initialize_c               0000000180039f50 f   libucrtd:initialization.obj
 0001:00038f80       uninitialize_c             0000000180039f80 f   libucrtd:initialization.obj
 0001:00038f80       uninitialize_global_state_isolation 0000000180039f80 f   libucrtd:initialization.obj
 0001:00038f90       initialize_environment     0000000180039f90 f   libucrtd:initialization.obj
 0001:00038f90       initialize_global_state_isolation 0000000180039f90 f   libucrtd:initialization.obj
 0001:00038fa0       uninitialize_environment   0000000180039fa0 f   libucrtd:initialization.obj
 0001:00038fd0       initialize_pointers        0000000180039fd0 f   libucrtd:initialization.obj
 0001:00039030       uninitialize_vcruntime     000000018003a030 f   libucrtd:initialization.obj
 0001:00039050       uninitialize_allocated_memory 000000018003a050 f   libucrtd:initialization.obj
 0001:00039090       uninitialize_allocated_io_buffers 000000018003a090 f   libucrtd:initialization.obj
 0001:00039110       report_memory_leaks        000000018003a110 f   libucrtd:initialization.obj
 0001:00039140       ??$uninitialize@V<lambda_af27fe6ede5d83bbdbd622796c194e9c>@@@?$dual_state_global@PEAU__crt_multibyte_data@@@__crt_state_management@@QEAAX$$QEAV<lambda_af27fe6ede5d83bbdbd622796c194e9c>@@@Z 000000018003a140 f   libucrtd:initialization.obj
 0001:00039190       ??R<lambda_af27fe6ede5d83bbdbd622796c194e9c>@@QEBAXAEAPEAU__crt_multibyte_data@@@Z 000000018003a190 f   libucrtd:initialization.obj
 0001:00039330       ?block_from_header@@YAPEAEQEAU_CrtMemBlockHeader@@@Z 000000018003a330 f   libucrtd:debug_heap.obj
 0001:00039340       ?check_block@@YA_NQEAU_CrtMemBlockHeader@@@Z 000000018003a340 f   libucrtd:debug_heap.obj
 0001:00039700       ?check_bytes@@YA_NQEBEE_K@Z 000000018003a700 f   libucrtd:debug_heap.obj
 0001:00039770       ?dump_all_object_since_nolock@@YAXQEBU_CrtMemState@@@Z 000000018003a770 f   libucrtd:debug_heap.obj
 0001:00039b30       ?free_dbg_nolock@@YAXQEAXH@Z 000000018003ab30 f   libucrtd:debug_heap.obj
 0001:0003a180       ?header_from_block@@YAPEAU_CrtMemBlockHeader@@QEBX@Z 000000018003b180 f   libucrtd:debug_heap.obj
 0001:0003a190       ?heap_alloc_dbg@@YAPEAX_KHQEBDH@Z 000000018003b190 f   libucrtd:debug_heap.obj
 0001:0003a230       ?heap_alloc_dbg_internal@@YAPEAX_KHQEBDH@Z 000000018003b230 f   libucrtd:debug_heap.obj
 0001:0003a670       ?is_bad_read_pointer@@YA_NQEBX_K@Z 000000018003b670 f   libucrtd:debug_heap.obj
 0001:0003a780       ?is_block_an_aligned_allocation@@YA_NQEBX@Z 000000018003b780 f   libucrtd:debug_heap.obj
 0001:0003a7c0       ?is_block_type_valid@@YA_NH@Z 000000018003b7c0 f   libucrtd:debug_heap.obj
 0001:0003a810       ?print_block_data@@YAXQEAU__crt_locale_pointers@@QEAU_CrtMemBlockHeader@@@Z 000000018003b810 f   libucrtd:debug_heap.obj
 0001:0003aa40       ?realloc_dbg_nolock@@YAPEAXQEAXQEA_KHQEBDH_N@Z 000000018003ba40 f   libucrtd:debug_heap.obj
 0001:0003b260       ?validate_heap_if_required_nolock@@YAXXZ 000000018003c260 f   libucrtd:debug_heap.obj
 0001:0003bf00       ??$common_tcscpy_s@D@@YAHQEAD_KQEBD@Z 000000018003cf00 f   libucrtd:strcpy_s.obj
 0001:0003c400       $$000000                   000000018003d400     libucrtd:strcmp.obj
 0001:0003c480       $$000000                   000000018003d480     libucrtd:strlen.obj
 0001:0003c6c0       ??$?RV<lambda_676bd5779251ec186b530f0a904b4b35>@@AEAV<lambda_b579ea784fd840951dfbcbdaebf709fd>@@V<lambda_10027885da78ada7fb00668d7e2e96b5>@@@?$__crt_seh_guarded_call@H@@QEAAH$$QEAV<lambda_676bd5779251ec186b530f0a904b4b35>@@AEAV<lambda_b579ea784fd840951dfbcbdaebf709fd>@@$$QEAV<lambda_10027885da78ada7fb00668d7e2e96b5>@@@Z 000000018003d6c0 f   libucrtd:output.obj
 0001:0003c710       ??$__acrt_lock_stream_and_call@V<lambda_b579ea784fd840951dfbcbdaebf709fd>@@@@YAHQEAU_iobuf@@$$QEAV<lambda_b579ea784fd840951dfbcbdaebf709fd>@@@Z 000000018003d710 f   libucrtd:output.obj
 0001:0003c760       ??$common_vfprintf@Vstandard_base@__crt_stdio_output@@_W@@YAH_KQEAU_iobuf@@QEB_WQEAU__crt_locale_pointers@@QEAD@Z 000000018003d760 f   libucrtd:output.obj
 0001:0003c920       ??$common_vsnprintf_s@D@@YAH_KQEAD00QEBDQEAU__crt_locale_pointers@@1@Z 000000018003d920 f   libucrtd:output.obj
 0001:0003cee0       ??$common_vsnprintf_s@_W@@YAH_KQEA_W00QEB_WQEAU__crt_locale_pointers@@QEAD@Z 000000018003dee0 f   libucrtd:output.obj
 0001:0003d4b0       ??$common_vsprintf@Vformat_validation_base@__crt_stdio_output@@D@@YAH_KQEAD0QEBDQEAU__crt_locale_pointers@@1@Z 000000018003e4b0 f   libucrtd:output.obj
 0001:0003d990       ??$common_vsprintf@Vformat_validation_base@__crt_stdio_output@@_W@@YAH_KQEA_W0QEB_WQEAU__crt_locale_pointers@@QEAD@Z 000000018003e990 f   libucrtd:output.obj
 0001:0003de60       ??$common_vsprintf@Vstandard_base@__crt_stdio_output@@_W@@YAH_KQEA_W0QEB_WQEAU__crt_locale_pointers@@QEAD@Z 000000018003ee60 f   libucrtd:output.obj
 0001:0003e330       ??$common_vsprintf_s@D@@YAH_KQEAD0QEBDQEAU__crt_locale_pointers@@1@Z 000000018003f330 f   libucrtd:output.obj
 0001:0003f730       ??0<lambda_05f0559a8855835fc49fa2f838446407>@@QEAA@AEBQEAU_iobuf@@@Z 0000000180040730 f   libucrtd:setvbuf.obj
 0001:0003f730       ??0<lambda_d90129c13df834fdcbf8d2b88dafcf2d>@@QEAA@AEBQEAU_iobuf@@@Z 0000000180040730 f   libucrtd:fflush.obj
 0001:0003f730       ??0<lambda_c376a267cfb53b6959b3b692ec76b120>@@QEAA@AEBQEAU_iobuf@@@Z 0000000180040730 f   libucrtd:fflush.obj
 0001:0003f730       ??0<lambda_ee69b802af549e3a94c3585db2bd6467>@@QEAA@AEBQEAU_iobuf@@@Z 0000000180040730 f   libucrtd:setvbuf.obj
 0001:0003f730       ??0<lambda_572fbb9fa0ab338edf41edfd4b5fcc8d>@@QEAA@AEBQEAU_iobuf@@@Z 0000000180040730 f   libucrtd:fflush.obj
 0001:0003f730       ??0<lambda_10027885da78ada7fb00668d7e2e96b5>@@QEAA@AEBQEAU_iobuf@@@Z 0000000180040730 f   libucrtd:output.obj
 0001:0003f730       ??0<lambda_842d9ff0dc9ef11c61343bbaebe7f885>@@QEAA@AEBQEAU_iobuf@@@Z 0000000180040730 f   libucrtd:fflush.obj
 0001:0003f730       ??0<lambda_676bd5779251ec186b530f0a904b4b35>@@QEAA@AEBQEAU_iobuf@@@Z 0000000180040730 f   libucrtd:output.obj
 0001:0003f750       ??0<lambda_b579ea784fd840951dfbcbdaebf709fd>@@QEAA@AEBQEAU_iobuf@@AEBQEAU__crt_locale_pointers@@AEB_KAEBQEB_WAEBQEAD@Z 0000000180040750 f   libucrtd:output.obj
 0001:0003fde0       ??R<lambda_572fbb9fa0ab338edf41edfd4b5fcc8d>@@QEBAXXZ 0000000180040de0 f   libucrtd:fflush.obj
 0001:0003fde0       ??R<lambda_d90129c13df834fdcbf8d2b88dafcf2d>@@QEBAXXZ 0000000180040de0 f   libucrtd:fflush.obj
 0001:0003fde0       ??R<lambda_05f0559a8855835fc49fa2f838446407>@@QEBAXXZ 0000000180040de0 f   libucrtd:setvbuf.obj
 0001:0003fde0       ??R<lambda_10027885da78ada7fb00668d7e2e96b5>@@QEBAXXZ 0000000180040de0 f   libucrtd:output.obj
 0001:0003fe00       ??R<lambda_842d9ff0dc9ef11c61343bbaebe7f885>@@QEBAXXZ 0000000180040e00 f   libucrtd:fflush.obj
 0001:0003fe00       ??R<lambda_ee69b802af549e3a94c3585db2bd6467>@@QEBAXXZ 0000000180040e00 f   libucrtd:setvbuf.obj
 0001:0003fe00       ??R<lambda_c376a267cfb53b6959b3b692ec76b120>@@QEBAXXZ 0000000180040e00 f   libucrtd:fflush.obj
 0001:0003fe00       ??R<lambda_676bd5779251ec186b530f0a904b4b35>@@QEBAXXZ 0000000180040e00 f   libucrtd:output.obj
 0001:0003fe20       ??R<lambda_b579ea784fd840951dfbcbdaebf709fd>@@QEBAHXZ 0000000180040e20 f   libucrtd:output.obj
 0001:0004097c       $LN39                      000000018004197c     libucrtd:output.obj
 0001:00040cdc       $LN39                      0000000180041cdc     libucrtd:output.obj
 0001:0004103c       $LN39                      000000018004203c     libucrtd:output.obj
 0001:0004139c       $LN39                      000000018004239c     libucrtd:output.obj
 0001:00042098       $LN54                      0000000180043098     libucrtd:output.obj
 0001:000420c0       $LN53                      00000001800430c0     libucrtd:output.obj
 0001:00042518       $LN54                      0000000180043518     libucrtd:output.obj
 0001:00042540       $LN53                      0000000180043540     libucrtd:output.obj
 0001:00042998       $LN54                      0000000180043998     libucrtd:output.obj
 0001:000429c0       $LN53                      00000001800439c0     libucrtd:output.obj
 0001:00042e18       $LN54                      0000000180043e18     libucrtd:output.obj
 0001:00042e40       $LN53                      0000000180043e40     libucrtd:output.obj
 0001:000432b4       $LN44                      00000001800442b4     libucrtd:output.obj
 0001:000432e4       $LN43                      00000001800442e4     libucrtd:output.obj
 0001:0004380c       $LN44                      000000018004480c     libucrtd:output.obj
 0001:0004383c       $LN43                      000000018004483c     libucrtd:output.obj
 0001:00043d6c       $LN44                      0000000180044d6c     libucrtd:output.obj
 0001:00043d9c       $LN43                      0000000180044d9c     libucrtd:output.obj
 0001:000442cc       $LN44                      00000001800452cc     libucrtd:output.obj
 0001:000442fc       $LN43                      00000001800452fc     libucrtd:output.obj
 0001:000445a0       $LN19                      00000001800455a0     libucrtd:output.obj
 0001:000486e0       ??$common_message_window@D@@YAHHQEAXQEBD111@Z 00000001800496e0 f   libucrtd:dbgrpt.obj
 0001:00048db0       ??$common_message_window@_W@@YAHHQEAXQEB_W111@Z 0000000180049db0 f   libucrtd:dbgrpt.obj
 0001:00049490       ?get_output_message_format@@YAPEB_WD@Z 000000018004a490 f   libucrtd:dbgrpt.obj
 0001:000494a0       ?get_output_message_format@@YAPEB_W_W@Z 000000018004a4a0 f   libucrtd:dbgrpt.obj
 0001:000494b0       ?get_program_name_unknown_text@@YAPEBDD@Z 000000018004a4b0 f   libucrtd:dbgrpt.obj
 0001:0004a010       ??$?RV<lambda_0ae27a3a962d80f24befdcbee591983d>@@AEAV<lambda_8d0ee55de4b1038c4002e0adecdf1839>@@V<lambda_dc504788e8f1664fe9b84e20bfb512f2>@@@?$__crt_seh_guarded_call@X@@QEAAX$$QEAV<lambda_0ae27a3a962d80f24befdcbee591983d>@@AEAV<lambda_8d0ee55de4b1038c4002e0adecdf1839>@@$$QEAV<lambda_dc504788e8f1664fe9b84e20bfb512f2>@@@Z 000000018004b010 f   libucrtd:per_thread_data.obj
 0001:0004a050       ??$?RV<lambda_2d41944a1d46af3157314b8a01080d33>@@AEAV<lambda_8f455de75cd7d7f24b4096f044d8b9e6>@@V<lambda_aa500f224e6afead328df44964fe2772>@@@?$__crt_seh_guarded_call@X@@QEAAX$$QEAV<lambda_2d41944a1d46af3157314b8a01080d33>@@AEAV<lambda_8f455de75cd7d7f24b4096f044d8b9e6>@@$$QEAV<lambda_aa500f224e6afead328df44964fe2772>@@@Z 000000018004b050 f   libucrtd:per_thread_data.obj
 0001:0004a090       ??$?RV<lambda_74a0ef281e44d15e1136f792f539efb3>@@AEAV<lambda_e157831efee4ea0afb0a2ace5dd5fd0d>@@V<lambda_04ddeca75b7c13fd67716e8dfcef87ee>@@@?$__crt_seh_guarded_call@X@@QEAAX$$QEAV<lambda_74a0ef281e44d15e1136f792f539efb3>@@AEAV<lambda_e157831efee4ea0afb0a2ace5dd5fd0d>@@$$QEAV<lambda_04ddeca75b7c13fd67716e8dfcef87ee>@@@Z 000000018004b090 f   libucrtd:per_thread_data.obj
 0001:0004a0d0       ??$?RV<lambda_aa87e3671a710a21b5dc78c0bdf72e11>@@AEAV<lambda_92619d2358a28f41a33ba319515a20b9>@@V<lambda_6992ecaafeb10aed2b74cb1fae11a551>@@@?$__crt_seh_guarded_call@X@@QEAAX$$QEAV<lambda_aa87e3671a710a21b5dc78c0bdf72e11>@@AEAV<lambda_92619d2358a28f41a33ba319515a20b9>@@$$QEAV<lambda_6992ecaafeb10aed2b74cb1fae11a551>@@@Z 000000018004b0d0 f   libucrtd:per_thread_data.obj
 0001:0004a110       ??$__acrt_lock_and_call@V<lambda_8d0ee55de4b1038c4002e0adecdf1839>@@@@YAXW4__acrt_lock_id@@$$QEAV<lambda_8d0ee55de4b1038c4002e0adecdf1839>@@@Z 000000018004b110 f   libucrtd:per_thread_data.obj
 0001:0004a160       ??$__acrt_lock_and_call@V<lambda_8f455de75cd7d7f24b4096f044d8b9e6>@@@@YAXW4__acrt_lock_id@@$$QEAV<lambda_8f455de75cd7d7f24b4096f044d8b9e6>@@@Z 000000018004b160 f   libucrtd:per_thread_data.obj
 0001:0004a1b0       ??$__acrt_lock_and_call@V<lambda_92619d2358a28f41a33ba319515a20b9>@@@@YAXW4__acrt_lock_id@@$$QEAV<lambda_92619d2358a28f41a33ba319515a20b9>@@@Z 000000018004b1b0 f   libucrtd:per_thread_data.obj
 0001:0004a200       ??$__acrt_lock_and_call@V<lambda_e157831efee4ea0afb0a2ace5dd5fd0d>@@@@YAXW4__acrt_lock_id@@$$QEAV<lambda_e157831efee4ea0afb0a2ace5dd5fd0d>@@@Z 000000018004b200 f   libucrtd:per_thread_data.obj
 0001:0004a290       ??R<lambda_8d0ee55de4b1038c4002e0adecdf1839>@@QEBAXXZ 000000018004b290 f   libucrtd:per_thread_data.obj
 0001:0004a2b0       ??R<lambda_8f455de75cd7d7f24b4096f044d8b9e6>@@QEBAXXZ 000000018004b2b0 f   libucrtd:per_thread_data.obj
 0001:0004a2d0       ??R<lambda_92619d2358a28f41a33ba319515a20b9>@@QEBAXXZ 000000018004b2d0 f   libucrtd:per_thread_data.obj
 0001:0004a300       ??R<lambda_e157831efee4ea0afb0a2ace5dd5fd0d>@@QEBAXXZ 000000018004b300 f   libucrtd:per_thread_data.obj
 0001:0004a370       ?construct_ptd@@YAXQEAU__acrt_ptd@@QEAPEAU__crt_locale_data@@@Z 000000018004b370 f   libucrtd:per_thread_data.obj
 0001:0004a450       ?construct_ptd_array@@YAXQEAU__acrt_ptd@@@Z 000000018004b450 f   libucrtd:per_thread_data.obj
 0001:0004a4c0       ?destroy_fls@@YAXPEAX@Z    000000018004b4c0 f   libucrtd:per_thread_data.obj
 0001:0004a500       ?destroy_ptd@@YAXQEAU__acrt_ptd@@@Z 000000018004b500 f   libucrtd:per_thread_data.obj
 0001:0004a620       ?destroy_ptd_array@@YAXQEAU__acrt_ptd@@@Z 000000018004b620 f   libucrtd:per_thread_data.obj
 0001:0004a680       ?internal_get_ptd_head@@YAPEAU__acrt_ptd@@XZ 000000018004b680 f   libucrtd:per_thread_data.obj
 0001:0004a7b0       ?internal_getptd_noexit@@YAPEAU__acrt_ptd@@XZ 000000018004b7b0 f   libucrtd:per_thread_data.obj
 0001:0004a820       ?replace_current_thread_locale_nolock@@YAXQEAU__acrt_ptd@@QEAU__crt_locale_data@@@Z 000000018004b820 f   libucrtd:per_thread_data.obj
 0001:0004a8e0       ?try_get_ptd_head@@YAPEAU__acrt_ptd@@XZ 000000018004b8e0 f   libucrtd:per_thread_data.obj
 0001:0004ab20       ??$?RV<lambda_410d79af7f07d98d83a3f525b3859a53>@@AEAV<lambda_3e16ef9562a7dcce91392c22ab16ea36>@@V<lambda_38119f0e861e05405d8a144b9b982f0a>@@@?$__crt_seh_guarded_call@X@@QEAAX$$QEAV<lambda_410d79af7f07d98d83a3f525b3859a53>@@AEAV<lambda_3e16ef9562a7dcce91392c22ab16ea36>@@$$QEAV<lambda_38119f0e861e05405d8a144b9b982f0a>@@@Z 000000018004bb20 f   libucrtd:wsetlocale.obj
 0001:0004ab60       ??$__acrt_lock_and_call@V<lambda_3e16ef9562a7dcce91392c22ab16ea36>@@@@YAXW4__acrt_lock_id@@$$QEAV<lambda_3e16ef9562a7dcce91392c22ab16ea36>@@@Z 000000018004bb60 f   libucrtd:wsetlocale.obj
 0001:0004abb0       ??$uninitialize@V<lambda_363eea9039da1e8169e2d060c7fe5cbc>@@@?$dual_state_global@PEAU__crt_locale_data@@@__crt_state_management@@QEAAX$$QEAV<lambda_363eea9039da1e8169e2d060c7fe5cbc>@@@Z 000000018004bbb0 f   libucrtd:wsetlocale.obj
 0001:0004ac00       ??R<lambda_363eea9039da1e8169e2d060c7fe5cbc>@@QEBAXAEAPEAU__crt_locale_data@@@Z 000000018004bc00 f   libucrtd:wsetlocale.obj
 0001:0004ac40       ??R<lambda_3e16ef9562a7dcce91392c22ab16ea36>@@QEBA@XZ 000000018004bc40 f   libucrtd:wsetlocale.obj
 0001:0004b190       _get_fname                 000000018004c190 f   libucrtd:fpexcept.obj
 0001:0004c4d0       ?find_or_allocate_unused_stream_nolock@@YA?AV__crt_stdio_stream@@XZ 000000018004d4d0 f   libucrtd:stream.obj
 0001:0004d188       $LN90                      000000018004e188     libucrtd:openfile.obj
 0001:0004d1c0       $LN89                      000000018004e1c0     libucrtd:openfile.obj
 0001:0004d220       ??$common_openfile@D@@YAPEAU_iobuf@@QEBD0HV__crt_stdio_stream@@@Z 000000018004e220 f   libucrtd:openfile.obj
 0001:0004d810       ??$?RV<lambda_53fc7fc888e23d815d7080162c0aeeb2>@@AEAV<lambda_4e7105787b7b0e0227fbf2b2d883fa65>@@V<lambda_8ddc48ad9d26c778cb15812d1d88fc8a>@@@?$__crt_seh_guarded_call@H@@QEAAH$$QEAV<lambda_53fc7fc888e23d815d7080162c0aeeb2>@@AEAV<lambda_4e7105787b7b0e0227fbf2b2d883fa65>@@$$QEAV<lambda_8ddc48ad9d26c778cb15812d1d88fc8a>@@@Z 000000018004e810 f   libucrtd:close.obj
 0001:0004d860       ??$__acrt_lowio_lock_fh_and_call@V<lambda_4e7105787b7b0e0227fbf2b2d883fa65>@@@@YAHH$$QEAV<lambda_4e7105787b7b0e0227fbf2b2d883fa65>@@@Z 000000018004e860 f   libucrtd:close.obj
 0001:0004d8b0       ??R<lambda_4e7105787b7b0e0227fbf2b2d883fa65>@@QEBAHXZ 000000018004e8b0 f   libucrtd:close.obj
 0001:0004d960       ??R<lambda_4e3dbe6921bc0b5a1a6bc6573fdc859e>@@QEBAXXZ 000000018004e960 f   libucrtd:commit.obj
 0001:0004d960       ??R<lambda_53fc7fc888e23d815d7080162c0aeeb2>@@QEBAXXZ 000000018004e960 f   libucrtd:close.obj
 0001:0004d980       ??R<lambda_47cffbaa968af5c721c38a4a6f8da44d>@@QEBAXXZ 000000018004e980 f   libucrtd:commit.obj
 0001:0004d980       ??R<lambda_8ddc48ad9d26c778cb15812d1d88fc8a>@@QEBAXXZ 000000018004e980 f   libucrtd:close.obj
 0001:0004d9a0       ?close_os_handle_nolock@@YAKH@Z 000000018004e9a0 f   libucrtd:close.obj
 0001:0004dea0       ??$?RV<lambda_842d9ff0dc9ef11c61343bbaebe7f885>@@AEAV<lambda_c5860995281e5c4ce005b3de8f5874ee>@@V<lambda_d90129c13df834fdcbf8d2b88dafcf2d>@@@?$__crt_seh_guarded_call@X@@QEAAX$$QEAV<lambda_842d9ff0dc9ef11c61343bbaebe7f885>@@AEAV<lambda_c5860995281e5c4ce005b3de8f5874ee>@@$$QEAV<lambda_d90129c13df834fdcbf8d2b88dafcf2d>@@@Z 000000018004eea0 f   libucrtd:fflush.obj
 0001:0004dee0       ??$?RV<lambda_886d6c58226a84441f68b9f2b8217b83>@@AEAV<lambda_ab61a845afdef5b7c387490eaf3616ee>@@V<lambda_f7f22ab5edc0698d5f6905b0d3f44752>@@@?$__crt_seh_guarded_call@X@@QEAAX$$QEAV<lambda_886d6c58226a84441f68b9f2b8217b83>@@AEAV<lambda_ab61a845afdef5b7c387490eaf3616ee>@@$$QEAV<lambda_f7f22ab5edc0698d5f6905b0d3f44752>@@@Z 000000018004eee0 f   libucrtd:fflush.obj
 0001:0004df20       ??$?RV<lambda_c376a267cfb53b6959b3b692ec76b120>@@AEAV<lambda_9a32fed5bf61b6b509b2d3f6003082a1>@@V<lambda_572fbb9fa0ab338edf41edfd4b5fcc8d>@@@?$__crt_seh_guarded_call@H@@QEAAH$$QEAV<lambda_c376a267cfb53b6959b3b692ec76b120>@@AEAV<lambda_9a32fed5bf61b6b509b2d3f6003082a1>@@$$QEAV<lambda_572fbb9fa0ab338edf41edfd4b5fcc8d>@@@Z 000000018004ef20 f   libucrtd:fflush.obj
 0001:0004df70       ??$__acrt_lock_and_call@V<lambda_ab61a845afdef5b7c387490eaf3616ee>@@@@YAXW4__acrt_lock_id@@$$QEAV<lambda_ab61a845afdef5b7c387490eaf3616ee>@@@Z 000000018004ef70 f   libucrtd:fflush.obj
 0001:0004dfc0       ??$__acrt_lock_stream_and_call@V<lambda_9a32fed5bf61b6b509b2d3f6003082a1>@@@@YAHQEAU_iobuf@@$$QEAV<lambda_9a32fed5bf61b6b509b2d3f6003082a1>@@@Z 000000018004efc0 f   libucrtd:fflush.obj
 0001:0004e010       ??$__acrt_lock_stream_and_call@V<lambda_c5860995281e5c4ce005b3de8f5874ee>@@@@YAXQEAU_iobuf@@$$QEAV<lambda_c5860995281e5c4ce005b3de8f5874ee>@@@Z 000000018004f010 f   libucrtd:fflush.obj
 0001:0004e060       ??0<lambda_c5860995281e5c4ce005b3de8f5874ee>@@QEAA@AEBV__crt_stdio_stream@@AEAHAEB_N1@Z 000000018004f060 f   libucrtd:fflush.obj
 0001:0004e060       ??0<lambda_7d656854fecfa268884b8692ea29008b>@@QEAA@AEB_KAEBV__crt_stdio_stream@@AEBHAEBQEAD@Z 000000018004f060 f   libucrtd:setvbuf.obj
 0001:0004e0c0       ??R<lambda_9a32fed5bf61b6b509b2d3f6003082a1>@@QEBAHXZ 000000018004f0c0 f   libucrtd:fflush.obj
 0001:0004e0f0       ??R<lambda_ab61a845afdef5b7c387490eaf3616ee>@@QEBA@XZ 000000018004f0f0 f   libucrtd:fflush.obj
 0001:0004e1e0       ??R<lambda_c5860995281e5c4ce005b3de8f5874ee>@@QEBAXXZ 000000018004f1e0 f   libucrtd:fflush.obj
 0001:0004e280       ?common_flush_all@@YAH_N@Z 000000018004f280 f   libucrtd:fflush.obj
 0001:0004e2f0       ?common_flush_all_should_try_to_flush_stream@@YA_NV__crt_stdio_stream@@QEAH@Z 000000018004f2f0 f   libucrtd:fflush.obj
 0001:0004e360       ?is_stream_allocated@@YA_NJ@Z 000000018004f360 f   libucrtd:fflush.obj
 0001:0004e390       ?is_stream_flushable@@YA_NJ@Z 000000018004f390 f   libucrtd:fflush.obj
 0001:0004e3c0       ?is_stream_flushable_or_commitable@@YA_NJ@Z 000000018004f3c0 f   libucrtd:fflush.obj
 0001:0004e640       ??$common_refill_and_read_nolock@D@@YAHV__crt_stdio_stream@@@Z 000000018004f640 f   libucrtd:_filbuf.obj
 0001:0004ea10       ?get_context_nolock@@YAHV__crt_stdio_stream@@D@Z 000000018004fa10 f   libucrtd:_filbuf.obj
 0001:0004ea20       ?is_buffer_valid_nolock@@YA_NV__crt_stdio_stream@@D@Z 000000018004fa20 f   libucrtd:_filbuf.obj
 0001:0004ea70       ?read_character_nolock@@YAEV__crt_stdio_stream@@HD@Z 000000018004fa70 f   libucrtd:_filbuf.obj
 0001:0004eb10       ?get_std_handle_id@@YAKH@Z 000000018004fb10 f   libucrtd:ioinit.obj
 0001:0004eb60       ?initialize_inherited_file_handles_nolock@@YAXXZ 000000018004fb60 f   libucrtd:ioinit.obj
 0001:0004ed10       ?initialize_stdio_handles_nolock@@YAXXZ 000000018004fd10 f   libucrtd:ioinit.obj
 0001:0004ef80       ??$translate_text_mode_nolock@D@@YAHHQEAD_K@Z 000000018004ff80 f   libucrtd:read.obj
 0001:0004f370       ??$translate_text_mode_nolock@_W@@YAHHQEA_W_K@Z 0000000180050370 f   libucrtd:read.obj
 0001:0004f7a0       ?store_lookahead@@YAXHD@Z  00000001800507a0 f   libucrtd:read.obj
 0001:0004f7e0       ?store_lookahead@@YAXH_W@Z 00000001800507e0 f   libucrtd:read.obj
 0001:0004f8c0       ?translate_ansi_or_utf8_nolock@@YAHHQEAD_KQEA_W1@Z 00000001800508c0 f   libucrtd:read.obj
 0001:0004fc30       ?translate_utf16_from_console_nolock@@YAHHQEA_W_K@Z 0000000180050c30 f   libucrtd:read.obj
 0001:00050e80       ??$common_lseek@_J@@YA_JH_JH@Z 0000000180051e80 f   libucrtd:lseek.obj
 0001:00051120       ??$common_lseek_nolock@_J@@YA_JH_JH@Z 0000000180052120 f   libucrtd:lseek.obj
 0001:00051230       ?common_lseek_do_seek_nolock@@YA_JQEAX_JH@Z 0000000180052230 f   libucrtd:lseek.obj
 0001:00051470       ?issue_debug_notification@@YA_NQEB_W@Z 0000000180052470 f   libucrtd:report_runtime_error.obj
 0001:000514d0       ?should_write_error_to_console@@YA_NXZ 00000001800524d0 f   libucrtd:report_runtime_error.obj
 0001:00051510       ?write_string_to_console@@YAXQEB_W@Z 0000000180052510 f   libucrtd:report_runtime_error.obj
 0001:000518d0       ??$common_xtox@KD@@YAHKQEAD_KI_N@Z 00000001800528d0 f   libucrtd:xtoa.obj
 0001:00051b10       ??$common_xtox@K_W@@YAHKQEA_W_KI_N@Z 0000000180052b10 f   libucrtd:xtoa.obj
 0001:00051d60       ??$common_xtox_s@KD@@YAHKQEAD_KI_N@Z 0000000180052d60 f   libucrtd:xtoa.obj
 0001:00052110       ??$common_xtox_s@K_W@@YAHKQEA_W_KI_N@Z 0000000180053110 f   libucrtd:xtoa.obj
 0001:00052680       ??$common_tcscat_s@_W@@YAHQEA_W_KQEB_W@Z 0000000180053680 f   libucrtd:wcscat_s.obj
 0001:00052d30       ??$common_tcscpy_s@_W@@YAHQEA_W_KQEB_W@Z 0000000180053d30 f   libucrtd:wcscpy_s.obj
 0001:00053240       ??$common_tcsncat_s@_W@@YAHQEA_W_KQEB_W1@Z 0000000180054240 f   libucrtd:wcsncat_s.obj
 0001:00053a10       ??$common_strnlen@$00G@@YA_KQEBG_K@Z 0000000180054a10 f   libucrtd:strnlen.obj
 0001:00053a70       ??$common_strnlen@$0A@E@@YA_KQEBE_K@Z 0000000180054a70 f   libucrtd:strnlen.obj
 0001:00053ad0       ??$common_strnlen@$0A@G@@YA_KQEBG_K@Z 0000000180054ad0 f   libucrtd:strnlen.obj
 0001:00053b30       ??$common_strnlen_c@$00G@@YA_KQEBG_K@Z 0000000180054b30 f   libucrtd:strnlen.obj
 0001:00053bb0       ??$common_strnlen_c@$0A@E@@YA_KQEBE_K@Z 0000000180054bb0 f   libucrtd:strnlen.obj
 0001:00053c30       ??$common_strnlen_c@$0A@G@@YA_KQEBG_K@Z 0000000180054c30 f   libucrtd:strnlen.obj
 0001:00053cb0       ??$common_strnlen_simd@$00$00G@@YA_KQEBG_K@Z 0000000180054cb0 f   libucrtd:strnlen.obj
 0001:00053f50       ??$common_strnlen_simd@$00$0A@G@@YA_KQEBG_K@Z 0000000180054f50 f   libucrtd:strnlen.obj
 0001:00054240       ??$common_strnlen_simd@$0A@$00E@@YA_KQEBE_K@Z 0000000180055240 f   libucrtd:strnlen.obj
 0001:000544c0       ??$common_strnlen_simd@$0A@$00G@@YA_KQEBG_K@Z 00000001800554c0 f   libucrtd:strnlen.obj
 0001:00054760       ??$common_strnlen_simd@$0A@$0A@E@@YA_KQEBE_K@Z 0000000180055760 f   libucrtd:strnlen.obj
 0001:00054a30       ??$common_strnlen_simd@$0A@$0A@G@@YA_KQEBG_K@Z 0000000180055a30 f   libucrtd:strnlen.obj
 0001:00054d20       ??$last_reached@$00@@YA_NQEBX0@Z 0000000180055d20 f   libucrtd:strnlen.obj
 0001:00054d30       ??$last_reached@$0A@@@YA_NQEBX0@Z 0000000180055d30 f   libucrtd:strnlen.obj
 0001:00054f70       ??$common_tcscat_s@D@@YAHQEAD_KQEBD@Z 0000000180055f70 f   libucrtd:strcat_s.obj
 0001:00055610       ??$__acrt_convert_wcs_mbs_cp@_WDV<lambda_f788ae46380686e8b737efdd8c720d07>@@U__crt_win32_buffer_no_resizing@@@@YAHQEB_WAEAV?$__crt_win32_buffer@DU__crt_win32_buffer_no_resizing@@@@AEBV<lambda_f788ae46380686e8b737efdd8c720d07>@@I@Z 0000000180056610 f   libucrtd:getmodulefilenamea.obj
 0001:000558a0       ??R<lambda_f788ae46380686e8b737efdd8c720d07>@@QEBAHIQEB_WQEAD_K@Z 00000001800568a0 f   libucrtd:getmodulefilenamea.obj
 0001:000558a0       ??R<lambda_d8593a27d1aa8c02be35c86a17d324c4>@@QEBAHIQEB_WQEAD_K@Z 00000001800568a0 f   libucrtd:argv_wildcards.obj
 0001:00055c10       ??$common_show_message_box@_W@@YAHQEB_W0I@Z 0000000180056c10 f   libucrtd:crtmbox.obj
 0001:00055df0       ??$?RV<lambda_ee69b802af549e3a94c3585db2bd6467>@@AEAV<lambda_7d656854fecfa268884b8692ea29008b>@@V<lambda_05f0559a8855835fc49fa2f838446407>@@@?$__crt_seh_guarded_call@H@@QEAAH$$QEAV<lambda_ee69b802af549e3a94c3585db2bd6467>@@AEAV<lambda_7d656854fecfa268884b8692ea29008b>@@$$QEAV<lambda_05f0559a8855835fc49fa2f838446407>@@@Z 0000000180056df0 f   libucrtd:setvbuf.obj
 0001:00055e40       ??$__acrt_lock_stream_and_call@V<lambda_7d656854fecfa268884b8692ea29008b>@@@@YAHQEAU_iobuf@@$$QEAV<lambda_7d656854fecfa268884b8692ea29008b>@@@Z 0000000180056e40 f   libucrtd:setvbuf.obj
 0001:00055e90       ??R<lambda_7d656854fecfa268884b8692ea29008b>@@QEBAHXZ 0000000180056e90 f   libucrtd:setvbuf.obj
 0001:00056010       ?set_buffer@@YAHV__crt_stdio_stream@@QEAD_KH@Z 0000000180057010 f   libucrtd:setvbuf.obj
 0001:00056350       ??$?RV<lambda_450d765d439847d4c735a33c368b5fc0>@@AEAV<lambda_44731a7d0e6d81c3e6aa82d741081786>@@V<lambda_601a2a7da3b7a96e9554ac7215c4b07c>@@@?$__crt_seh_guarded_call@P6AXH@Z@@QEAAP6AXH@Z$$QEAV<lambda_450d765d439847d4c735a33c368b5fc0>@@AEAV<lambda_44731a7d0e6d81c3e6aa82d741081786>@@$$QEAV<lambda_601a2a7da3b7a96e9554ac7215c4b07c>@@@Z 0000000180057350 f   libucrtd:signal.obj
 0001:000563a0       ??$__acrt_lock_and_call@V<lambda_44731a7d0e6d81c3e6aa82d741081786>@@@@YAP6AXH@ZW4__acrt_lock_id@@$$QEAV<lambda_44731a7d0e6d81c3e6aa82d741081786>@@@Z 00000001800573a0 f   libucrtd:signal.obj
 0001:000563f0       ??R<lambda_44731a7d0e6d81c3e6aa82d741081786>@@QEBAP6AXH@ZXZ 00000001800573f0 f   libucrtd:signal.obj
 0001:00056420       ?get_global_action_nolock@@YAPEAP6AXH@ZH@Z 0000000180057420 f   libucrtd:signal.obj
 0001:000564b0       ?siglookup@@YAPEAU__crt_signal_action_t@@HQEAU1@@Z 00000001800574b0 f   libucrtd:signal.obj
 0001:00056a50       $LN58                      0000000180057a50     libucrtd:signal.obj
 0001:00056a5c       $LN57                      0000000180057a5c     libucrtd:signal.obj
 0001:00056a80       $$000000                   0000000180057a80     libucrtd:remainder_piby2f_forasm.obj
 0001:00056bd0       $$000000                   0000000180057bd0     libucrtd:remainder_piby2_forfma3.obj
 0001:00056e70       _sincosf_special           0000000180057e70 f   libucrtd:sincos_special.obj
 0001:000572b4       $LN14                      00000001800582b4     libucrtd:pow_special.obj
 0001:000572e0       $$000000                   00000001800582e0     libucrtd:remainder_piby2f_forc.obj
 0001:000575a0       ??$get_cached_win_policy@Udeveloper_information_policy_properties@?1??__acrt_get_developer_information_policy@@YA?AW4developer_information_policy@@XZ@@@YA?AW4developer_information_policy@@W4AppPolicyShowDeveloperDiagnostic@@@Z 00000001800585a0 f   libucrtd:win_policies.obj
 0001:00057670       ??$get_cached_win_policy@Uwindowing_model_policy_properties@?1??__acrt_get_windowing_model_policy@@YA?AW4windowing_model_policy@@XZ@@@YA?AW4windowing_model_policy@@W4AppPolicyWindowingModel@@@Z 0000000180058670 f   libucrtd:win_policies.obj
 0001:00057740       ??$get_win_policy@Uprocess_end_policy_properties@?1??__acrt_get_process_end_policy@@YA?AW4process_end_policy@@XZ@@@YA?AW4process_end_policy@@W4AppPolicyProcessTerminationMethod@@@Z 0000000180058740 f   libucrtd:win_policies.obj
 0001:00057790       ?appmodel_get_policy@developer_information_policy_properties@?1??__acrt_get_developer_information_policy@@YA?AW4developer_information_policy@@XZ@SAJPEAW4AppPolicyShowDeveloperDiagnostic@@@Z 0000000180058790 f   libucrtd:win_policies.obj
 0001:000577b0       ?appmodel_get_policy@process_end_policy_properties@?1??__acrt_get_process_end_policy@@YA?AW4process_end_policy@@XZ@SAJPEAW4AppPolicyProcessTerminationMethod@@@Z 00000001800587b0 f   libucrtd:win_policies.obj
 0001:000577d0       ?appmodel_get_policy@windowing_model_policy_properties@?1??__acrt_get_windowing_model_policy@@YA?AW4windowing_model_policy@@XZ@SAJPEAW4AppPolicyWindowingModel@@@Z 00000001800587d0 f   libucrtd:win_policies.obj
 0001:000577f0       ?appmodel_policy_to_policy_type@developer_information_policy_properties@?1??__acrt_get_developer_information_policy@@YA?AW4developer_information_policy@@XZ@SA?AW43@J@Z 00000001800587f0 f   libucrtd:win_policies.obj
 0001:00057810       ?appmodel_policy_to_policy_type@process_end_policy_properties@?1??__acrt_get_process_end_policy@@YA?AW4process_end_policy@@XZ@SA?AW43@W4AppPolicyProcessTerminationMethod@@@Z 0000000180058810 f   libucrtd:win_policies.obj
 0001:00057830       ?appmodel_policy_to_policy_type@windowing_model_policy_properties@?1??__acrt_get_windowing_model_policy@@YA?AW4windowing_model_policy@@XZ@SA?AW43@J@Z 0000000180058830 f   libucrtd:win_policies.obj
 0001:000578d0       ?<lambda_invoker_cdecl>@<lambda_a1ce4c8ae42411fd470c77163914f50e>@@CAHPEBX0@Z 00000001800588d0 f   libucrtd:argv_wildcards.obj
 0001:00057900       ??$__acrt_convert_wcs_mbs_cp@D_WV<lambda_7c9dea7b4ca7285d2cdb541a38da6275>@@U__crt_win32_buffer_internal_dynamic_resizing@@@@YAHQEBDAEAV?$__crt_win32_buffer@_WU__crt_win32_buffer_internal_dynamic_resizing@@@@AEBV<lambda_7c9dea7b4ca7285d2cdb541a38da6275>@@I@Z 0000000180058900 f   libucrtd:argv_wildcards.obj
 0001:00057aa0       ??$__acrt_convert_wcs_mbs_cp@_WDV<lambda_d8593a27d1aa8c02be35c86a17d324c4>@@U__crt_win32_buffer_internal_dynamic_resizing@@@@YAHQEB_WAEAV?$__crt_win32_buffer@DU__crt_win32_buffer_internal_dynamic_resizing@@@@AEBV<lambda_d8593a27d1aa8c02be35c86a17d324c4>@@I@Z 0000000180058aa0 f   libucrtd:argv_wildcards.obj
 0001:00057ce0       ??$common_expand_argv_wildcards@D@@YAHQEAPEADQEAPEAPEAD@Z 0000000180058ce0 f   libucrtd:argv_wildcards.obj
 0001:00058110       ??$copy_and_add_argument_to_buffer@D@@YAHQEBD0_KAEAV?$argument_list@D@?A0x5f5c8891@@@Z 0000000180059110 f   libucrtd:argv_wildcards.obj
 0001:000582c0       ??$expand_argument_wildcards@D@@YAHQEAD0AEAV?$argument_list@D@?A0x5f5c8891@@@Z 00000001800592c0 f   libucrtd:argv_wildcards.obj
 0001:000587c0       ??0?$argument_list@D@?A0x5f5c8891@@QEAA@XZ 00000001800597c0 f   libucrtd:argv_wildcards.obj
 0001:00058850       ??1?$argument_list@D@?A0x5f5c8891@@QEAA@XZ 0000000180059850 f   libucrtd:argv_wildcards.obj
 0001:000588c0       ??B<lambda_a1ce4c8ae42411fd470c77163914f50e>@@QEBAP6AHPEBX0@ZXZ 00000001800598c0 f   libucrtd:argv_wildcards.obj
 0001:000588d0       ??R<lambda_7c9dea7b4ca7285d2cdb541a38da6275>@@QEBAHIQEBDQEA_W_K@Z 00000001800598d0 f   libucrtd:argv_wildcards.obj
 0001:00058920       ??R<lambda_a1ce4c8ae42411fd470c77163914f50e>@@QEBAHPEBX0@Z 0000000180059920 f   libucrtd:argv_wildcards.obj
 0001:00058960       ??R<lambda_cfae5a0e6efa98e0d1aa03c4cec8f74e>@@QEBA_ND@Z 0000000180059960 f   libucrtd:argv_wildcards.obj
 0001:00058b60       ?append@?$argument_list@D@?A0x5f5c8891@@QEAAHQEAD@Z 0000000180059b60 f   libucrtd:argv_wildcards.obj
 0001:00058c80       ?expand_if_necessary@?$argument_list@D@?A0x5f5c8891@@AEAAHXZ 0000000180059c80 f   libucrtd:argv_wildcards.obj
 0001:00058e60       ?get_file_name@@YAPEADQEAV?$__crt_win32_buffer@DU__crt_win32_buffer_internal_dynamic_resizing@@@@QEA_W@Z 0000000180059e60 f   libucrtd:argv_wildcards.obj
 0001:00058eb0       ?get_wide@@YAPEA_WQEAV?$__crt_win32_buffer@_WU__crt_win32_buffer_internal_dynamic_resizing@@@@QEAD@Z 0000000180059eb0 f   libucrtd:argv_wildcards.obj
 0001:00058f00       ?previous_character@@YAPEADQEAD0@Z 0000000180059f00 f   libucrtd:argv_wildcards.obj
 0001:00058f70       ?size@?$argument_list@D@?A0x5f5c8891@@QEBA_KXZ 0000000180059f70 f   libucrtd:argv_wildcards.obj
 0001:00058ff0       ??$?RV<lambda_efa02eb69bf647d2f7ff0dd6f1103f72>@@AEAV<lambda_bd5a608237428601b7e45fbdc72b1ae8>@@V<lambda_728235dc0fc2b1f82d1fa5b3e7102d8f>@@@?$__crt_seh_guarded_call@X@@QEAAX$$QEAV<lambda_efa02eb69bf647d2f7ff0dd6f1103f72>@@AEAV<lambda_bd5a608237428601b7e45fbdc72b1ae8>@@$$QEAV<lambda_728235dc0fc2b1f82d1fa5b3e7102d8f>@@@Z 0000000180059ff0 f   libucrtd:mbctype.obj
 0001:00059030       ??$__acrt_lock_and_call@V<lambda_bd5a608237428601b7e45fbdc72b1ae8>@@@@YAXW4__acrt_lock_id@@$$QEAV<lambda_bd5a608237428601b7e45fbdc72b1ae8>@@@Z 000000018005a030 f   libucrtd:mbctype.obj
 0001:00059160       ??R<lambda_bd5a608237428601b7e45fbdc72b1ae8>@@QEBAXXZ 000000018005a160 f   libucrtd:mbctype.obj
 0001:00059280       ?CPtoLocaleName@@YAPEB_WH@Z 000000018005a280 f   libucrtd:mbctype.obj
 0001:00059320       ?getSystemCP@@YAHH@Z       000000018005a320 f   libucrtd:mbctype.obj
 0001:00059400       ?setSBCS@@YAXPEAU__crt_multibyte_data@@@Z 000000018005a400 f   libucrtd:mbctype.obj
 0001:00059500       ?setSBUpLow@@YAXPEAU__crt_multibyte_data@@@Z 000000018005a500 f   libucrtd:mbctype.obj
 0001:000598f0       ?setmbcp_internal@@YAHH_NQEAU__acrt_ptd@@QEAPEAU__crt_multibyte_data@@@Z 000000018005a8f0 f   libucrtd:mbctype.obj
 0001:00059b50       ?update_thread_multibyte_data_internal@@YAPEAU__crt_multibyte_data@@QEAU__acrt_ptd@@QEAPEAU1@@Z 000000018005ab50 f   libucrtd:mbctype.obj
 0001:0005a248       ?x_ismbbtype_l@@YAHPEAU__crt_locale_pointers@@IHH@Z 000000018005b248 f   libucrtd:ismbbyte.obj
 0001:0005a310       ?filter_mbtowcs_flags@@YAKIK@Z 000000018005b310 f   libucrtd:multibytetowidechar.obj
 0001:0005a410       ?filter_wcstomb_flags@@YAKIK@Z 000000018005b410 f   libucrtd:widechartomultibyte.obj
 0001:0005a700       ?try_get_AppPolicyGetProcessTerminationMethod@@YAP6AJPEAXPEAW4AppPolicyProcessTerminationMethod@@@ZXZ 000000018005b700 f   libucrtd:winapi_thunks.obj
 0001:0005a730       ?try_get_AppPolicyGetShowDeveloperDiagnostic@@YAP6AJPEAXPEAW4AppPolicyShowDeveloperDiagnostic@@@ZXZ 000000018005b730 f   libucrtd:winapi_thunks.obj
 0001:0005a760       ?try_get_AppPolicyGetWindowingModel@@YAP6AJPEAXPEAW4AppPolicyWindowingModel@@@ZXZ 000000018005b760 f   libucrtd:winapi_thunks.obj
 0001:0005a790       ?try_get_AreFileApisANSI@@YAP6AHXZXZ 000000018005b790 f   libucrtd:winapi_thunks.obj
 0001:0005a7c0       ?try_get_FlsAlloc@@YAP6AKP6AXPEAX@Z@ZXZ 000000018005b7c0 f   libucrtd:winapi_thunks.obj
 0001:0005a7f0       ?try_get_FlsFree@@YAP6AHK@ZXZ 000000018005b7f0 f   libucrtd:winapi_thunks.obj
 0001:0005a820       ?try_get_FlsGetValue@@YAP6APEAXK@ZXZ 000000018005b820 f   libucrtd:winapi_thunks.obj
 0001:0005a850       ?try_get_FlsSetValue@@YAP6AHKPEAX@ZXZ 000000018005b850 f   libucrtd:winapi_thunks.obj
 0001:0005a880       ?try_get_GetActiveWindow@@YAP6APEAUHWND__@@XZXZ 000000018005b880 f   libucrtd:winapi_thunks.obj
 0001:0005a8b0       ?try_get_GetLastActivePopup@@YAP6APEAUHWND__@@PEAU1@@ZXZ 000000018005b8b0 f   libucrtd:winapi_thunks.obj
 0001:0005a8e0       ?try_get_GetProcessWindowStation@@YAP6APEAUHWINSTA__@@XZXZ 000000018005b8e0 f   libucrtd:winapi_thunks.obj
 0001:0005a910       ?try_get_GetUserObjectInformationW@@YAP6AHPEAXH0KPEAK@ZXZ 000000018005b910 f   libucrtd:winapi_thunks.obj
 0001:0005a940       ?try_get_InitializeCriticalSectionEx@@YAP6AHPEAU_RTL_CRITICAL_SECTION@@KK@ZXZ 000000018005b940 f   libucrtd:winapi_thunks.obj
 0001:0005a970       ?try_get_LCMapStringEx@@YAP6AHPEB_WK0HPEA_WHPEAU_nlsversioninfo@@PEAX_J@ZXZ 000000018005b970 f   libucrtd:winapi_thunks.obj
 0001:0005a9a0       ?try_get_LocaleNameToLCID@@YAP6AKPEB_WK@ZXZ 000000018005b9a0 f   libucrtd:winapi_thunks.obj
 0001:0005a9d0       ?try_get_MessageBoxA@@YAP6AHPEAUHWND__@@PEBD1I@ZXZ 000000018005b9d0 f   libucrtd:winapi_thunks.obj
 0001:0005aa00       ?try_get_MessageBoxW@@YAP6AHPEAUHWND__@@PEB_W1I@ZXZ 000000018005ba00 f   libucrtd:winapi_thunks.obj
 0001:0005aa30       ?try_get_first_available_module@@YAPEAUHINSTANCE__@@QEBW4module_id@?A0x391cf84c@@0@Z 000000018005ba30 f   libucrtd:winapi_thunks.obj
 0001:0005aa90       ?try_get_function@@YAPEAXW4function_id@?A0x391cf84c@@QEBDQEBW4module_id@2@2@Z 000000018005ba90 f   libucrtd:winapi_thunks.obj
 0001:0005ac30       ?try_get_module@@YAPEAUHINSTANCE__@@W4module_id@?A0x391cf84c@@@Z 000000018005bc30 f   libucrtd:winapi_thunks.obj
 0001:0005ad90       ?try_get_proc_address_from_first_available_module@@YAPEAXQEBDQEBW4module_id@?A0x391cf84c@@1@Z 000000018005bd90 f   libucrtd:winapi_thunks.obj
 0001:0005bb90       ?select_heap@@YAPEAXQEAX@Z 000000018005cb90 f   libucrtd:free_base.obj
 0001:0005bcb0       ?is_contraction_possible@@YA_N_K@Z 000000018005ccb0 f   libucrtd:expand.obj
 0001:0005cad0       ?fe_to_nearest@@YA_NQEBN_KF@Z 000000018005dad0 f   libucrtd:cvt.obj
 0001:0005cc20       ?fp_format_a@@YAHQEBNPEAD_KQEAD2H_NIQEAU__crt_locale_pointers@@W4__acrt_rounding_mode@@@Z 000000018005dc20 f   libucrtd:cvt.obj
 0001:0005d4c0       ?fp_format_e@@YAHQEBNQEAD_K12H_NIQEAU__crt_locale_pointers@@W4__acrt_rounding_mode@@@Z 000000018005e4c0 f   libucrtd:cvt.obj
 0001:0005d6e0       ?fp_format_e_internal@@YAHQEAD_KH_NIQEAU_strflt@@2QEAU__crt_locale_pointers@@@Z 000000018005e6e0 f   libucrtd:cvt.obj
 0001:0005db10       ?fp_format_f@@YAHQEBNQEAD_K12HQEAU__crt_locale_pointers@@W4__acrt_rounding_mode@@@Z 000000018005eb10 f   libucrtd:cvt.obj
 0001:0005dc70       ?fp_format_f_internal@@YAHQEAD_KHQEAU_strflt@@_NQEAU__crt_locale_pointers@@@Z 000000018005ec70 f   libucrtd:cvt.obj
 0001:0005df10       ?fp_format_g@@YAHQEBNQEAD_K12H_NIQEAU__crt_locale_pointers@@@Z 000000018005ef10 f   libucrtd:cvt.obj
 0001:0005e150       ?fp_format_nan_or_infinity@@YAHW4__acrt_fp_class@@_NPEAD_K1@Z 000000018005f150 f   libucrtd:cvt.obj
 0001:0005e2c0       ?shift_bytes@@YAXQEAD_K0H@Z 000000018005f2c0 f   libucrtd:cvt.obj
 0001:0005e310       ?should_round_up@@YA_NQEBN_KFW4__acrt_rounding_mode@@@Z 000000018005f310 f   libucrtd:cvt.obj
 0001:0005ea28       $LN42                      000000018005fa28     libucrtd:cvt.obj
 0001:0005ea3c       $LN41                      000000018005fa3c     libucrtd:cvt.obj
 0001:0005ea70       ?fputwc_binary_nolock@@YAG_WV__crt_stdio_stream@@@Z 000000018005fa70 f   libucrtd:fputwc.obj
 0001:00061470       ??$free_crt_array@D$01@@YAXAEAY01PEAD@Z 0000000180062470 f   libucrtd:inittime.obj
 0001:00061470       ??$free_crt_array@_W$01@@YAXAEAY01PEA_W@Z 0000000180062470 f   libucrtd:inittime.obj
 0001:00061490       ??$free_crt_array@D$06@@YAXAEAY06PEAD@Z 0000000180062490 f   libucrtd:inittime.obj
 0001:00061490       ??$free_crt_array@_W$06@@YAXAEAY06PEA_W@Z 0000000180062490 f   libucrtd:inittime.obj
 0001:000614b0       ??$free_crt_array@D$0M@@@YAXAEAY0M@PEAD@Z 00000001800624b0 f   libucrtd:inittime.obj
 0001:000614b0       ??$free_crt_array@_W$0M@@@YAXAEAY0M@PEA_W@Z 00000001800624b0 f   libucrtd:inittime.obj
 0001:000614d0       ?free_crt_array_internal@@YAXQEAPEBX_K@Z 00000001800624d0 f   libucrtd:inittime.obj
 0001:000616a0       ??$common_tcsncpy_s@_W@@YAHQEA_W_KQEB_W1@Z 00000001800626a0 f   libucrtd:wcsncpy_s.obj
 0001:00061d80       $$000000                   0000000180062d80     libucrtd:fpsr.obj
 0001:00062610       ??$common_sopen_dispatch@D@@YAHQEBDHHHQEAHH@Z 0000000180063610 f   libucrtd:open.obj
 0001:000629d0       ?configure_text_mode@@YAHHUfile_options@?A0xa9d50aae@@HAEAW4__crt_lowio_text_mode@@@Z 00000001800639d0 f   libucrtd:open.obj
 0001:00062f70       ?create_file@@YAPEAXQEB_WQEAU_SECURITY_ATTRIBUTES@@Ufile_options@?A0xa9d50aae@@@Z 0000000180063f70 f   libucrtd:open.obj
 0001:00062fe0       ?decode_access_flags@@YAKH@Z 0000000180063fe0 f   libucrtd:open.obj
 0001:00063100       ?decode_open_create_flags@@YAKH@Z 0000000180064100 f   libucrtd:open.obj
 0001:00063250       ?decode_options@@YA?AUfile_options@?A0xa9d50aae@@HHH@Z 0000000180064250 f   libucrtd:open.obj
 0001:000633e0       ?decode_sharing_flags@@YAKHH@Z 00000001800643e0 f   libucrtd:open.obj
 0001:00063510       ?is_text_mode@@YA_NH@Z     0000000180064510 f   libucrtd:open.obj
 0001:00063590       ?truncate_ctrl_z_if_present@@YAHH@Z 0000000180064590 f   libucrtd:open.obj
 0001:00064a00       ??$?RV<lambda_4e3dbe6921bc0b5a1a6bc6573fdc859e>@@AEAV<lambda_5533cddd4bda0037814beee657757329>@@V<lambda_47cffbaa968af5c721c38a4a6f8da44d>@@@?$__crt_seh_guarded_call@H@@QEAAH$$QEAV<lambda_4e3dbe6921bc0b5a1a6bc6573fdc859e>@@AEAV<lambda_5533cddd4bda0037814beee657757329>@@$$QEAV<lambda_47cffbaa968af5c721c38a4a6f8da44d>@@@Z 0000000180065a00 f   libucrtd:commit.obj
 0001:00064a50       ??$__acrt_lowio_lock_fh_and_call@V<lambda_5533cddd4bda0037814beee657757329>@@@@YAHH$$QEAV<lambda_5533cddd4bda0037814beee657757329>@@@Z 0000000180065a50 f   libucrtd:commit.obj
 0001:00064aa0       ??R<lambda_5533cddd4bda0037814beee657757329>@@QEBAHXZ 0000000180065aa0 f   libucrtd:commit.obj
 0001:00064d40       ?write_binary_nolock@@YA?AUwrite_result@?A0x17268360@@HQEBDI@Z 0000000180065d40 f   libucrtd:write.obj
 0001:00064e10       ?write_double_translated_ansi_nolock@@YA?AUwrite_result@?A0x17268360@@HQEBDI@Z 0000000180065e10 f   libucrtd:write.obj
 0001:00065d70       ?write_double_translated_unicode_nolock@@YA?AUwrite_result@?A0x17268360@@QEBDI@Z 0000000180066d70 f   libucrtd:write.obj
 0001:00065ed0       ?write_requires_double_translation_nolock@@YA_NH@Z 0000000180066ed0 f   libucrtd:write.obj
 0001:00065ff0       ?write_text_ansi_nolock@@YA?AUwrite_result@?A0x17268360@@HQEBDI@Z 0000000180066ff0 f   libucrtd:write.obj
 0001:00066220       ?write_text_utf16le_nolock@@YA?AUwrite_result@?A0x17268360@@HQEBDI@Z 0000000180067220 f   libucrtd:write.obj
 0001:00066460       ?write_text_utf8_nolock@@YA?AUwrite_result@?A0x17268360@@HQEBDI@Z 0000000180067460 f   libucrtd:write.obj
 0001:00067190       _call_matherr              0000000180068190 f   libucrtd:libm_error.obj
 0001:00067220       _exception_enabled         0000000180068220 f   libucrtd:libm_error.obj
 0001:000676d0       ?shortsort@@YAXPEAD0_KP6AHPEBX2@Z@Z 00000001800686d0 f   libucrtd:qsort.obj
 0001:000677b0       ?swap@@YAXPEAD0_K@Z        00000001800687b0 f   libucrtd:qsort.obj
 0001:00067f50       ??$common_tcsncpy_s@D@@YAHQEAD_KQEBD1@Z 0000000180068f50 f   libucrtd:strncpy_s.obj
 0001:00068610       fallbackMethod             0000000180069610 f   libucrtd:strpbrk.obj
 0001:00068f74       $LN85                      0000000180069f74     libucrtd:strpbrk.obj
 0001:00068fb0       $LN84                      0000000180069fb0     libucrtd:strpbrk.obj
 0001:00068ff0       $LN83                      0000000180069ff0     libucrtd:strpbrk.obj
 0001:00069130       ?__acrt_LCMapStringA_stat@@YAHPEAU__crt_locale_pointers@@PEB_WKPEBDHPEADHHH@Z 000000018006a130 f   libucrtd:lcmapstringa.obj
 0001:000697d0       ?initialize_multibyte@@YAHXZ 000000018006a7d0 f   libucrtd:multibyte_initializer.obj
 0001:00069800       ?GetTableIndexFromLocaleName@@YAHPEB_W@Z 000000018006a800 f   libucrtd:lcidtoname_downlevel.obj
 0001:00069a10       ??R<lambda_88e6d024674186fe9d3f7283b675e4c3>@@QEBA_KPEBD@Z 000000018006aa10 f   libucrtd:mbrtowc.obj
 0001:0006a120       ?should_round_up@@YA_NQEBDHW4__acrt_has_trailing_digits@@W4__acrt_rounding_mode@@@Z 000000018006b120 f   libucrtd:_fptostr.obj
 0001:0006a6d0       ??$convert_to_fos_high_precision@N@@YA?AW4__acrt_has_trailing_digits@@NIQEAHQEAD_K@Z 000000018006b6d0 f   libucrtd:cfout.obj
 0001:0006adf0       ??0scoped_fp_state_reset@?A0x71ca7cfb@@QEAA@XZ 000000018006bdf0 f   libucrtd:cfout.obj
 0001:0006ae40       ??1scoped_fp_state_reset@?A0x71ca7cfb@@QEAA@XZ 000000018006be40 f   libucrtd:cfout.obj
 0001:0006c990       ??$common_flush_and_write_nolock@D@@YAHHV__crt_stdio_stream@@@Z 000000018006d990 f   libucrtd:_flsbuf.obj
 0001:0006cbb0       ??$common_flush_and_write_nolock@_W@@YAHHV__crt_stdio_stream@@@Z 000000018006dbb0 f   libucrtd:_flsbuf.obj
 0001:0006cdd0       ??$write_buffer_nolock@D@@YA_NDV__crt_stdio_stream@@@Z 000000018006ddd0 f   libucrtd:_flsbuf.obj
 0001:0006d040       ??$write_buffer_nolock@_W@@YA_N_WV__crt_stdio_stream@@@Z 000000018006e040 f   libucrtd:_flsbuf.obj
 0001:0006d2c0       ?stream_is_at_end_of_file_nolock@@YA_NV__crt_stdio_stream@@@Z 000000018006e2c0 f   libucrtd:_flsbuf.obj
 0001:0006d420       ?_mbstowcs_l_helper@@YA_KPEA_WPEBD_KPEAU__crt_locale_pointers@@@Z 000000018006e420 f   libucrtd:mbstowcs.obj
 0001:0006e020       ?_wcstombs_l_helper@@YA_KPEADPEB_W_KPEAU__crt_locale_pointers@@@Z 000000018006f020 f   libucrtd:wcstombs.obj
 0001:0006e8d0       ?wcsncnt@@YA_KPEB_W_K@Z    000000018006f8d0 f   libucrtd:wcstombs.obj
 0001:0006fa10       $$000000                   0000000180070a10     libucrtd:log10.obj
 0001:00070550       ??$to_abstract_status@W4__acrt_fenv_machine_sse_status@@@@YA?AW4__acrt_fenv_abstract_status@@W4__acrt_fenv_machine_sse_status@@@Z 0000000180071550 f   libucrtd:_fenvutils.obj
 0001:00070570       ??$translate_control_exception_mask@W4__acrt_fenv_abstract_control@@W4__acrt_fenv_machine_sse_control@@@@YA?AW4__acrt_fenv_abstract_control@@W4__acrt_fenv_machine_sse_control@@@Z 0000000180071570 f   libucrtd:_fenvutils.obj
 0001:00070660       ??$translate_control_exception_mask@W4__acrt_fenv_machine_sse_control@@W4__acrt_fenv_abstract_control@@@@YA?AW4__acrt_fenv_machine_sse_control@@W4__acrt_fenv_abstract_control@@@Z 0000000180071660 f   libucrtd:_fenvutils.obj
 0001:00070750       ??$translate_control_rounding_control@W4__acrt_fenv_abstract_control@@W4__acrt_fenv_machine_sse_control@@@@YA?AW4__acrt_fenv_abstract_control@@W4__acrt_fenv_machine_sse_control@@@Z 0000000180071750 f   libucrtd:_fenvutils.obj
 0001:000707c0       ??$translate_control_rounding_control@W4__acrt_fenv_machine_sse_control@@W4__acrt_fenv_abstract_control@@@@YA?AW4__acrt_fenv_machine_sse_control@@W4__acrt_fenv_abstract_control@@@Z 00000001800717c0 f   libucrtd:_fenvutils.obj
 0001:00070830       ??$translate_status@W4__acrt_fenv_abstract_status@@W4__acrt_fenv_machine_sse_status@@@@YA?AW4__acrt_fenv_abstract_status@@W4__acrt_fenv_machine_sse_status@@@Z 0000000180071830 f   libucrtd:_fenvutils.obj
 0001:00070920       ??$translate_status@W4__acrt_fenv_machine_sse_status@@W4__acrt_fenv_abstract_status@@@@YA?AW4__acrt_fenv_machine_sse_status@@W4__acrt_fenv_abstract_status@@@Z 0000000180071920 f   libucrtd:_fenvutils.obj
 0001:00070bf0       ?get_machine_sse_control@@YA?AW4__acrt_fenv_machine_sse_control@@XZ 0000000180071bf0 f   libucrtd:_fenvutils.obj
 0001:00070c10       ?get_machine_sse_status@@YA?AW4__acrt_fenv_machine_sse_status@@XZ 0000000180071c10 f   libucrtd:_fenvutils.obj
 0001:00070c30       ?set_machine_sse_control@@YAXW4__acrt_fenv_machine_sse_control@@@Z 0000000180071c30 f   libucrtd:_fenvutils.obj
 0001:00070c90       ?set_machine_sse_status@@YAXW4__acrt_fenv_machine_sse_status@@@Z 0000000180071c90 f   libucrtd:_fenvutils.obj
 0001:00070ce0       ?to_abstract_control@@YA?AW4__acrt_fenv_abstract_control@@W4__acrt_fenv_machine_sse_control@@@Z 0000000180071ce0 f   libucrtd:_fenvutils.obj
 0001:00070d30       ?to_machine_sse_control@@YA?AW4__acrt_fenv_machine_sse_control@@W4__acrt_fenv_abstract_control@@@Z 0000000180071d30 f   libucrtd:_fenvutils.obj
 0001:00070d90       ?to_machine_sse_status@@YA?AW4__acrt_fenv_machine_sse_status@@W4__acrt_fenv_abstract_status@@@Z 0000000180071d90 f   libucrtd:_fenvutils.obj
 0001:00070db0       ?translate_control_denormal_control_from_sse@@YA?AW4__acrt_fenv_abstract_control@@W4__acrt_fenv_machine_sse_control@@@Z 0000000180071db0 f   libucrtd:_fenvutils.obj
 0001:00070e30       ?translate_control_denormal_control_to_sse@@YA?AW4__acrt_fenv_machine_sse_control@@W4__acrt_fenv_abstract_control@@@Z 0000000180071e30 f   libucrtd:_fenvutils.obj
 0001:000713a0       _log_special_common        00000001800723a0 f   libucrtd:log_special.obj
 0001:000714c0       _abstract_cw               00000001800724c0 f   libucrtd:ieee.obj
 0001:00071610       _abstract_sw               0000000180072610 f   libucrtd:ieee.obj
 0001:000716f0       _hw_cw                     00000001800726f0 f   libucrtd:ieee.obj
 0001:00071840       common_control87           0000000180072840 f   libucrtd:ieee.obj
 0001:00071a70       ?combine_second_surrogate@?A0xc60ee810@@YA_U_SPEAU_Mbstatet@@@Z 0000000180072a70 f   libucrtd:c16rtomb.obj
 0001:00071a90       ?has_surrogate@?A0xc60ee810@@YA_NPEAU_Mbstatet@@@Z 0000000180072a90 f   libucrtd:c16rtomb.obj
 0001:00071ac0       ?is_first_surrogate@?A0xc60ee810@@YA_N_S@Z 0000000180072ac0 f   libucrtd:c16rtomb.obj
 0001:00071b00       ?is_second_surrogate@?A0xc60ee810@@YA_N_S@Z 0000000180072b00 f   libucrtd:c16rtomb.obj
 0001:00071b40       ?store_first_surrogate@?A0xc60ee810@@YAX_SPEAU_Mbstatet@@@Z 0000000180072b40 f   libucrtd:c16rtomb.obj
 0001:00071f80       $$000000                   0000000180072f80     libvcruntimed:memcmp.obj
 0001:00072480       $$000000                   0000000180073480     LIBCMTD:guard_dispatch.obj
 0001:000724a0       ?fin$0@?0??dllmain_crt_process_attach@@YAHQEAUHINSTANCE__@@QEAX@Z@4HA 00000001800734a0 f   LIBCMTD:dll_dllmain.obj
 0001:000724c0       ?fin$0@?0??dllmain_crt_process_detach@@YAH_N@Z@4HA 00000001800734c0 f   LIBCMTD:dll_dllmain.obj
 0001:000724e0       ?filt$0@?0??dllmain_dispatch@@YAHQEAUHINSTANCE__@@KQEAX@Z@4HA 00000001800734e0 f   LIBCMTD:dll_dllmain.obj
 0001:00072530       __scrt_is_nonwritable_in_current_image$filt$0 0000000180073530 f   LIBCMTD:utility.obj
 0001:00072570       __DestructExceptionObject$filt$0 0000000180073570 f   libvcruntimed:ehhelpers.obj
 0001:000725a0       ?filt$0@?0???$_CallSETranslator@V__FrameHandler3@@@@YAHPEAUEHExceptionRecord@@PEA_KPEAU_CONTEXT@@PEAU_xDISPATCHER_CONTEXT@@PEBU_s_FuncInfo@@K1@Z@4HA 00000001800735a0 f   libvcruntimed:risctrnsctrl.obj
 0001:00072600       ?filt$0@?0???$BuildCatchObjectInternal@V__FrameHandler3@@@@YAXPEAUEHExceptionRecord@@PEAXPEBU_s_HandlerType@@PEBU_s_CatchableType@@@Z@4HA 0000000180073600 f   libvcruntimed:frame.obj
 0001:00072600       ?filt$0@?0???$BuildCatchObjectHelperInternal@V__FrameHandler3@@@@YAHPEAUEHExceptionRecord@@PEAXPEBU_s_HandlerType@@PEBU_s_CatchableType@@@Z@4HA 0000000180073600 f   libvcruntimed:frame.obj
 0001:00072600       terminate$filt$0           0000000180073600 f   libucrtd:terminate.obj
 0001:00072600       ?filt$0@?0??is_bad_read_pointer@@YA_NQEBX_K@Z@4HA 0000000180073600 f   libucrtd:debug_heap.obj
 0001:00072620       ?filt$0@?0??CxxCallCatchBlock@__FrameHandler3@@SAPEAXPEAU_EXCEPTION_RECORD@@@Z@4HA 0000000180073620 f   libvcruntimed:frame.obj
 0001:00072649       ?fin$1@?0??CxxCallCatchBlock@__FrameHandler3@@SAPEAXPEAU_EXCEPTION_RECORD@@@Z@4HA 0000000180073649 f   libvcruntimed:frame.obj
 0001:000726e0       ?filt$0@?0??FrameUnwindToState@__FrameHandler3@@SAXPEA_KPEAU_xDISPATCHER_CONTEXT@@PEBU_s_FuncInfo@@H@Z@4HA 00000001800736e0 f   libvcruntimed:frame.obj
 0001:00072707       ?fin$1@?0??FrameUnwindToState@__FrameHandler3@@SAXPEA_KPEAU_xDISPATCHER_CONTEXT@@PEBU_s_FuncInfo@@H@Z@4HA 0000000180073707 f   libvcruntimed:frame.obj
 0001:00072740       ?fin$0@?0???$common_fsopen@D@@YAPEAU_iobuf@@QEBD0H@Z@4HA 0000000180073740 f   libucrtd:fopen.obj
 0001:00072770       fclose$fin$0               0000000180073770 f   libucrtd:fclose.obj
 0001:000727a0       fgetc$fin$0                00000001800737a0 f   libucrtd:fgetc.obj
 0001:000727d0       fread_s$fin$0              00000001800737d0 f   libucrtd:fread.obj
 0001:000727f0       ?fin$0@?0??common_fseek@@YAHV__crt_stdio_stream@@_JH@Z@4HA 00000001800737f0 f   libucrtd:fseek.obj
 0001:00072820       ?fin$0@?0???$common_ftell@J@@YAJV__crt_stdio_stream@@@Z@4HA 0000000180073820 f   libucrtd:ftell.obj
 0001:00072850       ungetc$fin$0               0000000180073850 f   libucrtd:ungetc.obj
 0001:00072870       ?fin$0@?0???$?RV<lambda_74a0ef281e44d15e1136f792f539efb3>@@AEAV<lambda_e157831efee4ea0afb0a2ace5dd5fd0d>@@V<lambda_04ddeca75b7c13fd67716e8dfcef87ee>@@@?$__crt_seh_guarded_call@X@@QEAAX$$QEAV<lambda_74a0ef281e44d15e1136f792f539efb3>@@AEAV<lambda_e157831efee4ea0afb0a2ace5dd5fd0d>@@$$QEAV<lambda_04ddeca75b7c13fd67716e8dfcef87ee>@@@Z@4HA 0000000180073870 f   libucrtd:per_thread_data.obj
 0001:00072870       ?fin$0@?0???$?RV<lambda_0ae27a3a962d80f24befdcbee591983d>@@AEAV<lambda_8d0ee55de4b1038c4002e0adecdf1839>@@V<lambda_dc504788e8f1664fe9b84e20bfb512f2>@@@?$__crt_seh_guarded_call@X@@QEAAX$$QEAV<lambda_0ae27a3a962d80f24befdcbee591983d>@@AEAV<lambda_8d0ee55de4b1038c4002e0adecdf1839>@@$$QEAV<lambda_dc504788e8f1664fe9b84e20bfb512f2>@@@Z@4HA 0000000180073870 f   libucrtd:per_thread_data.obj
